;--------------------------------------------------------
; File Created by SDCC : free open source ANSI-C Compiler
; Version 3.5.0 #9253 (Jun 20 2015) (MINGW32)
; This file was generated Fri May 13 16:36:38 2022
;--------------------------------------------------------
; PIC port for the 14-bit core
;--------------------------------------------------------
	.file	"Timer0.c"
	list	p=16f877a
	radix dec
	include "p16f877a.inc"
;--------------------------------------------------------
; external declarations
;--------------------------------------------------------
	extern	_PB_Init
	extern	_PB_Update
	extern	_PB_GetState
	extern	_COUNTER_Init
	extern	_COUNTER_Update
	extern	_COUNTER_SetCount
	extern	_COUNTER_GetCount
	extern	_SSD_Init
	extern	_SSD_Update
	extern	_SSD_SetState
	extern	_SSD_SetSymbol
	extern	__modsint
	extern	_STATUSbits
	extern	_PORTAbits
	extern	_PORTBbits
	extern	_PORTCbits
	extern	_PORTDbits
	extern	_PORTEbits
	extern	_INTCONbits
	extern	_PIR1bits
	extern	_PIR2bits
	extern	_T1CONbits
	extern	_T2CONbits
	extern	_SSPCONbits
	extern	_CCP1CONbits
	extern	_RCSTAbits
	extern	_CCP2CONbits
	extern	_ADCON0bits
	extern	_OPTION_REGbits
	extern	_TRISAbits
	extern	_TRISBbits
	extern	_TRISCbits
	extern	_TRISDbits
	extern	_TRISEbits
	extern	_PIE1bits
	extern	_PIE2bits
	extern	_PCONbits
	extern	_SSPCON2bits
	extern	_SSPSTATbits
	extern	_TXSTAbits
	extern	_CMCONbits
	extern	_CVRCONbits
	extern	_ADCON1bits
	extern	_EECON1bits
	extern	_INDF
	extern	_TMR0
	extern	_PCL
	extern	_STATUS
	extern	_FSR
	extern	_PORTA
	extern	_PORTB
	extern	_PORTC
	extern	_PORTD
	extern	_PORTE
	extern	_PCLATH
	extern	_INTCON
	extern	_PIR1
	extern	_PIR2
	extern	_TMR1
	extern	_TMR1L
	extern	_TMR1H
	extern	_T1CON
	extern	_TMR2
	extern	_T2CON
	extern	_SSPBUF
	extern	_SSPCON
	extern	_CCPR1
	extern	_CCPR1L
	extern	_CCPR1H
	extern	_CCP1CON
	extern	_RCSTA
	extern	_TXREG
	extern	_RCREG
	extern	_CCPR2
	extern	_CCPR2L
	extern	_CCPR2H
	extern	_CCP2CON
	extern	_ADRESH
	extern	_ADCON0
	extern	_OPTION_REG
	extern	_TRISA
	extern	_TRISB
	extern	_TRISC
	extern	_TRISD
	extern	_TRISE
	extern	_PIE1
	extern	_PIE2
	extern	_PCON
	extern	_SSPCON2
	extern	_PR2
	extern	_SSPADD
	extern	_SSPSTAT
	extern	_TXSTA
	extern	_SPBRG
	extern	_CMCON
	extern	_CVRCON
	extern	_ADRESL
	extern	_ADCON1
	extern	_EEDATA
	extern	_EEADR
	extern	_EEDATH
	extern	_EEADRH
	extern	_EECON1
	extern	_EECON2
	extern	___sdcc_saved_fsr

	extern PSAVE
	extern SSAVE
	extern WSAVE
	extern STK12
	extern STK11
	extern STK10
	extern STK09
	extern STK08
	extern STK07
	extern STK06
	extern STK05
	extern STK04
	extern STK03
	extern STK02
	extern STK01
	extern STK00
;--------------------------------------------------------
; global declarations
;--------------------------------------------------------
	global	_TMR0_Start
	global	_TMR0_Update
	global	_TMR0_Init

;--------------------------------------------------------
; global definitions
;--------------------------------------------------------
;--------------------------------------------------------
; absolute symbol definitions
;--------------------------------------------------------
;--------------------------------------------------------
; compiler-defined variables
;--------------------------------------------------------
UDL_Timer0_0	udata
r0x1004	res	1
r0x1003	res	1
_TMR0_Update_sched_1_18	res	2
;--------------------------------------------------------
; initialized data
;--------------------------------------------------------
;--------------------------------------------------------
; overlayable items in internal ram 
;--------------------------------------------------------
;	udata_ovr
;--------------------------------------------------------
; interrupt and initialization code
;--------------------------------------------------------
c_interrupt	code	0x4
__sdcc_interrupt
;***
;  pBlock Stats: dbName = I
;***
;entry:  _TMR0_Update	;Function start
; 0 exit points
;functions called:
;   __modsint
;   _PB_Update
;   _COUNTER_Update
;   _SSD_Update
;   __modsint
;   __modsint
;   _PB_Update
;   _COUNTER_Update
;   _SSD_Update
;   __modsint
;5 compiler assigned registers:
;   STK02
;   STK01
;   STK00
;   r0x1003
;   r0x1004
;; Starting pCode block
;;; /home/sdcc-builder/build/sdcc-build/orig/sdcc/src/pic14/gen.c:2316:resultRemat *{*
;;; /home/sdcc-builder/build/sdcc-build/orig/sdcc/src/pic14/gen.c:2760:genLabel *{*
;; ***	genLabel  2763
;;; /home/sdcc-builder/build/sdcc-build/orig/sdcc/src/pic14/gen.c:2316:resultRemat *{*
;;; /home/sdcc-builder/build/sdcc-build/orig/sdcc/src/pic14/gen.c:2340:genFunction *{*
;; ***	genFunction  2342 curr label offset=4previous max_key=0 
_TMR0_Update	;Function start
; 0 exit points
;; >>> /home/sdcc-builder/build/sdcc-build/orig/sdcc/src/pic14/gen.c:2407:genFunction
	.line	24; "Timer0.c"	void TMR0_Update(void) __interrupt 0
	MOVWF	WSAVE
;; >>> /home/sdcc-builder/build/sdcc-build/orig/sdcc/src/pic14/gen.c:2408:genFunction
	SWAPF	STATUS,W
;; >>> /home/sdcc-builder/build/sdcc-build/orig/sdcc/src/pic14/gen.c:2413:genFunction
	CLRF	STATUS
;; >>> /home/sdcc-builder/build/sdcc-build/orig/sdcc/src/pic14/gen.c:2414:genFunction
	MOVWF	SSAVE
;; >>> /home/sdcc-builder/build/sdcc-build/orig/sdcc/src/pic14/gen.c:2416:genFunction
	MOVF	PCLATH,W
;; >>> /home/sdcc-builder/build/sdcc-build/orig/sdcc/src/pic14/gen.c:2418:genFunction
	CLRF	PCLATH
;; >>> /home/sdcc-builder/build/sdcc-build/orig/sdcc/src/pic14/gen.c:2419:genFunction
	MOVWF	PSAVE
;; >>> /home/sdcc-builder/build/sdcc-build/orig/sdcc/src/pic14/gen.c:2421:genFunction
	MOVF	FSR,W
;; >>> /home/sdcc-builder/build/sdcc-build/orig/sdcc/src/pic14/gen.c:2422:genFunction
	BANKSEL	___sdcc_saved_fsr
	MOVWF	___sdcc_saved_fsr
;;; /home/sdcc-builder/build/sdcc-build/orig/sdcc/src/pic14/gen.c:2316:resultRemat *{*
;;; /home/sdcc-builder/build/sdcc-build/orig/sdcc/src/pic14/gen.c:2316:resultRemat *{*
;;; /home/sdcc-builder/build/sdcc-build/orig/sdcc/src/pic14/gen.c:2316:resultRemat *{*
;;; /home/sdcc-builder/build/sdcc-build/orig/sdcc/src/pic14/gen.c:2086:genCall *{*
;; ***	genCall  2088
;;; /home/sdcc-builder/build/sdcc-build/orig/sdcc/src/pic14/gen.c:1801:saveRegisters *{*
;; ***	saveRegisters  1803
;; ***	aopForSym 315
;;	327 sym->rname = _TMR0_Update_sched_1_18, size = 2
;; 	2135 left AOP_LIT
;;; /home/sdcc-builder/build/sdcc-build/orig/sdcc/src/pic14/gen.c:1343:mov2w_op *{*
;; >>> /home/sdcc-builder/build/sdcc-build/orig/sdcc/src/pic14/gen.c:1361:mov2w_op
	.line	27; "Timer0.c"	if(sched % 20 == 0 )
	MOVLW	0x14
;; 	2135 left AOP_LIT
;; >>> /home/sdcc-builder/build/sdcc-build/orig/sdcc/src/pic14/gen.c:2143:genCall
;; ***	popRegFromIdx,1042  , rIdx=0x7d
	MOVWF	STK02
;;; /home/sdcc-builder/build/sdcc-build/orig/sdcc/src/pic14/gen.c:1343:mov2w_op *{*
;; >>> /home/sdcc-builder/build/sdcc-build/orig/sdcc/src/pic14/gen.c:1361:mov2w_op
	MOVLW	0x00
;; ***	aopForSym 315
;;	327 sym->rname = _TMR0_Update_sched_1_18, size = 2
;; 	2135 left AOP_DIR
;; >>> /home/sdcc-builder/build/sdcc-build/orig/sdcc/src/pic14/gen.c:2143:genCall
;; ***	popRegFromIdx,1042  , rIdx=0x7e
	MOVWF	STK01
;;; /home/sdcc-builder/build/sdcc-build/orig/sdcc/src/pic14/gen.c:1343:mov2w_op *{*
;; ***	mov2w  1381  offset=0
;; >>> /home/sdcc-builder/build/sdcc-build/orig/sdcc/src/pic14/gen.c:1386:mov2w
;;	1009
;;	1028  _TMR0_Update_sched_1_18   offset=0
	BANKSEL	_TMR0_Update_sched_1_18
	MOVF	_TMR0_Update_sched_1_18,W
;; 	2135 left AOP_DIR
;; >>> /home/sdcc-builder/build/sdcc-build/orig/sdcc/src/pic14/gen.c:2143:genCall
;; ***	popRegFromIdx,1042  , rIdx=0x7f
	MOVWF	STK00
;;; /home/sdcc-builder/build/sdcc-build/orig/sdcc/src/pic14/gen.c:1343:mov2w_op *{*
;; ***	mov2w  1381  offset=1
;; >>> /home/sdcc-builder/build/sdcc-build/orig/sdcc/src/pic14/gen.c:1386:mov2w
;;	1009
;;	1028  _TMR0_Update_sched_1_18   offset=1
	MOVF	(_TMR0_Update_sched_1_18 + 1),W
;; >>> /home/sdcc-builder/build/sdcc-build/orig/sdcc/src/pic14/gen.c:2173:genCall
	PAGESEL	__modsint
;; >>> /home/sdcc-builder/build/sdcc-build/orig/sdcc/src/pic14/gen.c:2175:genCall
	CALL	__modsint
;; >>> /home/sdcc-builder/build/sdcc-build/orig/sdcc/src/pic14/gen.c:2181:genCall
	PAGESEL	$
;;	694 register type nRegs=2
;;; /home/sdcc-builder/build/sdcc-build/orig/sdcc/src/pic14/gen.c:1907:assignResultValue *{*
;; ***	assignResultValue  1909
;; 	line = 1911 result -=-, size=0, left AOP_REG=r0x1049, size=2, right -=-, size=0
;; >>> /home/sdcc-builder/build/sdcc-build/orig/sdcc/src/pic14/gen.c:1393:movwf
;;	1109 rIdx = r0x104A 
	BANKSEL	r0x1003
	MOVWF	r0x1003
;; >>> /home/sdcc-builder/build/sdcc-build/orig/sdcc/src/pic14/gen.c:1423:get_returnvalue
;; ***	popRegFromIdx,1042  , rIdx=0x7f
	MOVF	STK00,W
;; >>> /home/sdcc-builder/build/sdcc-build/orig/sdcc/src/pic14/gen.c:1393:movwf
;;	1109 rIdx = r0x1049 
	MOVWF	r0x1004
	IORWF	r0x1003,W
;; >>> /home/sdcc-builder/build/sdcc-build/orig/sdcc/src/pic14/gen.c:6808:genIfx
	BTFSS	STATUS,2
;; >>> /home/sdcc-builder/build/sdcc-build/orig/sdcc/src/pic14/gen.c:6809:genIfx
;; ***	popGetLabel  key=2, label offset 8
	GOTO	_00110_DS_
;;; /home/sdcc-builder/build/sdcc-build/orig/sdcc/src/pic14/gen.c:2316:resultRemat *{*
;;; /home/sdcc-builder/build/sdcc-build/orig/sdcc/src/pic14/gen.c:2086:genCall *{*
;; ***	genCall  2088
;;; /home/sdcc-builder/build/sdcc-build/orig/sdcc/src/pic14/gen.c:1801:saveRegisters *{*
;; ***	saveRegisters  1803
;; >>> /home/sdcc-builder/build/sdcc-build/orig/sdcc/src/pic14/gen.c:2173:genCall
	.line	29; "Timer0.c"	PB_Update() ;
	PAGESEL	_PB_Update
;; >>> /home/sdcc-builder/build/sdcc-build/orig/sdcc/src/pic14/gen.c:2175:genCall
	CALL	_PB_Update
;; >>> /home/sdcc-builder/build/sdcc-build/orig/sdcc/src/pic14/gen.c:2181:genCall
	PAGESEL	$
;;; /home/sdcc-builder/build/sdcc-build/orig/sdcc/src/pic14/gen.c:1845:unsaveRegisters *{*
;; ***	unsaveRegisters  1847
;;; /home/sdcc-builder/build/sdcc-build/orig/sdcc/src/pic14/gen.c:2316:resultRemat *{*
;;; /home/sdcc-builder/build/sdcc-build/orig/sdcc/src/pic14/gen.c:2086:genCall *{*
;; ***	genCall  2088
;;; /home/sdcc-builder/build/sdcc-build/orig/sdcc/src/pic14/gen.c:1801:saveRegisters *{*
;; ***	saveRegisters  1803
;; >>> /home/sdcc-builder/build/sdcc-build/orig/sdcc/src/pic14/gen.c:2173:genCall
	.line	30; "Timer0.c"	COUNTER_Update() ;
	PAGESEL	_COUNTER_Update
;; >>> /home/sdcc-builder/build/sdcc-build/orig/sdcc/src/pic14/gen.c:2175:genCall
	CALL	_COUNTER_Update
;; >>> /home/sdcc-builder/build/sdcc-build/orig/sdcc/src/pic14/gen.c:2181:genCall
	PAGESEL	$
;;; /home/sdcc-builder/build/sdcc-build/orig/sdcc/src/pic14/gen.c:1845:unsaveRegisters *{*
;; ***	unsaveRegisters  1847
;;; /home/sdcc-builder/build/sdcc-build/orig/sdcc/src/pic14/gen.c:2316:resultRemat *{*
;;; /home/sdcc-builder/build/sdcc-build/orig/sdcc/src/pic14/gen.c:2760:genLabel *{*
;; ***	genLabel  2763
;;; /home/sdcc-builder/build/sdcc-build/orig/sdcc/src/pic14/gen.c:2316:resultRemat *{*
;;; /home/sdcc-builder/build/sdcc-build/orig/sdcc/src/pic14/gen.c:2086:genCall *{*
;; ***	genCall  2088
;;; /home/sdcc-builder/build/sdcc-build/orig/sdcc/src/pic14/gen.c:1801:saveRegisters *{*
;; ***	saveRegisters  1803
;; >>> /home/sdcc-builder/build/sdcc-build/orig/sdcc/src/pic14/gen.c:2173:genCall
_00110_DS_
	.line	32; "Timer0.c"	SSD_Update() ;
	PAGESEL	_SSD_Update
;; >>> /home/sdcc-builder/build/sdcc-build/orig/sdcc/src/pic14/gen.c:2175:genCall
	CALL	_SSD_Update
;; >>> /home/sdcc-builder/build/sdcc-build/orig/sdcc/src/pic14/gen.c:2181:genCall
	PAGESEL	$
;;; /home/sdcc-builder/build/sdcc-build/orig/sdcc/src/pic14/gen.c:1845:unsaveRegisters *{*
;; ***	unsaveRegisters  1847
;;; /home/sdcc-builder/build/sdcc-build/orig/sdcc/src/pic14/gen.c:2316:resultRemat *{*
;; ***	genPlus  611
;;; /home/sdcc-builder/build/sdcc-build/orig/sdcc/src/pic14/genarith.c:612:genPlus *{*
;; ***	aopForSym 315
;;	327 sym->rname = _TMR0_Update_sched_1_18, size = 2
;;	694 register type nRegs=2
;; 	line = 618 result AOP_REG=r0x1049, size=2, left AOP_DIR=_TMR0_Update_sched_1_18, size=2, right AOP_LIT=0x04, size=2
;;; /home/sdcc-builder/build/sdcc-build/orig/sdcc/src/pic14/genarith.c:142:genPlusIncr *{*
;; ***	genPlusIncr  144
;; 	result AOP_REG, left AOP_DIR, right AOP_LIT
;; 	genPlusIncr  156
;;	adding lit to something. size 2
;;; /home/sdcc-builder/build/sdcc-build/orig/sdcc/src/pic14/genarith.c:269:genAddLit *{*
;; ***	genAddLit  270
;;  left and result aren't same	genAddLit  514
;; >>> /home/sdcc-builder/build/sdcc-build/orig/sdcc/src/pic14/genarith.c:546:genAddLit
	.line	33; "Timer0.c"	sched = (sched + TICK_TIME ) % 20 ;
	MOVLW	0x04
;; >>> /home/sdcc-builder/build/sdcc-build/orig/sdcc/src/pic14/genarith.c:547:genAddLit
;;	1009
;;	1028  _TMR0_Update_sched_1_18   offset=0
	BANKSEL	_TMR0_Update_sched_1_18
	ADDWF	_TMR0_Update_sched_1_18,W
;;; /home/sdcc-builder/build/sdcc-build/orig/sdcc/src/pic14/genarith.c:253:emitMOVWF *{*
;; >>> /home/sdcc-builder/build/sdcc-build/orig/sdcc/src/pic14/genarith.c:257:emitMOVWF
;;	1109 rIdx = r0x1049 
	BANKSEL	r0x1004
	MOVWF	r0x1004
;; >>> /home/sdcc-builder/build/sdcc-build/orig/sdcc/src/pic14/genarith.c:584:genAddLit
;;	1109 rIdx = r0x104A 
	CLRF	r0x1003
;; >>> /home/sdcc-builder/build/sdcc-build/orig/sdcc/src/pic14/genarith.c:585:genAddLit
;;	1109 rIdx = r0x104A 
	RLF	r0x1003,F
;; >>> /home/sdcc-builder/build/sdcc-build/orig/sdcc/src/pic14/genarith.c:586:genAddLit
;;	1009
;;	1028  _TMR0_Update_sched_1_18   offset=1
	BANKSEL	_TMR0_Update_sched_1_18
	MOVF	(_TMR0_Update_sched_1_18 + 1),W
;; >>> /home/sdcc-builder/build/sdcc-build/orig/sdcc/src/pic14/genarith.c:587:genAddLit
;;	1109 rIdx = r0x104A 
	BANKSEL	r0x1003
	ADDWF	r0x1003,F
;; ***	addSign  861
;;; /home/sdcc-builder/build/sdcc-build/orig/sdcc/src/pic14/genarith.c:862:addSign *{*
;;; /home/sdcc-builder/build/sdcc-build/orig/sdcc/src/pic14/gen.c:2316:resultRemat *{*
;;; /home/sdcc-builder/build/sdcc-build/orig/sdcc/src/pic14/gen.c:2316:resultRemat *{*
;;; /home/sdcc-builder/build/sdcc-build/orig/sdcc/src/pic14/gen.c:2316:resultRemat *{*
;;; /home/sdcc-builder/build/sdcc-build/orig/sdcc/src/pic14/gen.c:2086:genCall *{*
;; ***	genCall  2088
;;; /home/sdcc-builder/build/sdcc-build/orig/sdcc/src/pic14/gen.c:1801:saveRegisters *{*
;; ***	saveRegisters  1803
;;	694 register type nRegs=2
;; 	2135 left AOP_LIT
;;; /home/sdcc-builder/build/sdcc-build/orig/sdcc/src/pic14/gen.c:1343:mov2w_op *{*
;; >>> /home/sdcc-builder/build/sdcc-build/orig/sdcc/src/pic14/gen.c:1361:mov2w_op
	MOVLW	0x14
;; 	2135 left AOP_LIT
;; >>> /home/sdcc-builder/build/sdcc-build/orig/sdcc/src/pic14/gen.c:2143:genCall
;; ***	popRegFromIdx,1042  , rIdx=0x7d
	MOVWF	STK02
;;; /home/sdcc-builder/build/sdcc-build/orig/sdcc/src/pic14/gen.c:1343:mov2w_op *{*
;; >>> /home/sdcc-builder/build/sdcc-build/orig/sdcc/src/pic14/gen.c:1361:mov2w_op
	MOVLW	0x00
;;	694 register type nRegs=2
;; 	2135 left AOP_REG
;; >>> /home/sdcc-builder/build/sdcc-build/orig/sdcc/src/pic14/gen.c:2143:genCall
;; ***	popRegFromIdx,1042  , rIdx=0x7e
	MOVWF	STK01
;;; /home/sdcc-builder/build/sdcc-build/orig/sdcc/src/pic14/gen.c:1343:mov2w_op *{*
;; ***	mov2w  1381  offset=0
;; >>> /home/sdcc-builder/build/sdcc-build/orig/sdcc/src/pic14/gen.c:1386:mov2w
;;	1109 rIdx = r0x1049 
	MOVF	r0x1004,W
;; 	2135 left AOP_REG
;; >>> /home/sdcc-builder/build/sdcc-build/orig/sdcc/src/pic14/gen.c:2143:genCall
;; ***	popRegFromIdx,1042  , rIdx=0x7f
	MOVWF	STK00
;;; /home/sdcc-builder/build/sdcc-build/orig/sdcc/src/pic14/gen.c:1343:mov2w_op *{*
;; ***	mov2w  1381  offset=1
;; >>> /home/sdcc-builder/build/sdcc-build/orig/sdcc/src/pic14/gen.c:1386:mov2w
;;	1109 rIdx = r0x104A 
	MOVF	r0x1003,W
;; >>> /home/sdcc-builder/build/sdcc-build/orig/sdcc/src/pic14/gen.c:2173:genCall
	PAGESEL	__modsint
;; >>> /home/sdcc-builder/build/sdcc-build/orig/sdcc/src/pic14/gen.c:2175:genCall
	CALL	__modsint
;; >>> /home/sdcc-builder/build/sdcc-build/orig/sdcc/src/pic14/gen.c:2181:genCall
	PAGESEL	$
;; ***	aopForSym 315
;;	327 sym->rname = _TMR0_Update_sched_1_18, size = 2
;;; /home/sdcc-builder/build/sdcc-build/orig/sdcc/src/pic14/gen.c:1907:assignResultValue *{*
;; ***	assignResultValue  1909
;; 	line = 1911 result -=-, size=0, left AOP_DIR=_TMR0_Update_sched_1_18, size=2, right -=-, size=0
;; >>> /home/sdcc-builder/build/sdcc-build/orig/sdcc/src/pic14/gen.c:1393:movwf
;;	1009
;;	1028  _TMR0_Update_sched_1_18   offset=1
	BANKSEL	_TMR0_Update_sched_1_18
	MOVWF	(_TMR0_Update_sched_1_18 + 1)
;; >>> /home/sdcc-builder/build/sdcc-build/orig/sdcc/src/pic14/gen.c:1423:get_returnvalue
;; ***	popRegFromIdx,1042  , rIdx=0x7f
	MOVF	STK00,W
;; >>> /home/sdcc-builder/build/sdcc-build/orig/sdcc/src/pic14/gen.c:1393:movwf
;;	1009
;;	1028  _TMR0_Update_sched_1_18   offset=0
	MOVWF	_TMR0_Update_sched_1_18
;; 	2195 left AOP_DIR
;;; /home/sdcc-builder/build/sdcc-build/orig/sdcc/src/pic14/gen.c:1845:unsaveRegisters *{*
;; ***	unsaveRegisters  1847
;;; /home/sdcc-builder/build/sdcc-build/orig/sdcc/src/pic14/gen.c:2316:resultRemat *{*
;;; /home/sdcc-builder/build/sdcc-build/orig/sdcc/src/pic14/gen.c:2316:resultRemat *{*
;;; /home/sdcc-builder/build/sdcc-build/orig/sdcc/src/pic14/gen.c:6686:genPointerSet *{*
;; ***	genPointerSet  6687
;;; /home/sdcc-builder/build/sdcc-build/orig/sdcc/src/pic14/gen.c:6505:genNearPointerSet *{*
;; ***	genNearPointerSet  6506
;;	613
;;	aopForRemat 392
;;	418: rname _INTCONbits, val 0, const = 0
;; ***	genNearPointerSet  6521
;;	833: aopGet AOP_PCODE type PO_IMMEDIATE
;;	_INTCONbits
;; 	line = 6523 result AOP_PCODE=_INTCONbits, size=2, left -=-, size=0, right AOP_LIT=0x00, size=1
;;; /home/sdcc-builder/build/sdcc-build/orig/sdcc/src/pic14/gen.c:6249:genPackBits *{*
;; ***	genPackBits  6250
;;	833: aopGet AOP_PCODE type PO_IMMEDIATE
;;	_INTCONbits
;; >>> /home/sdcc-builder/build/sdcc-build/orig/sdcc/src/pic14/gen.c:6275:genPackBits
	.line	35; "Timer0.c"	CLEAR_TMR0_FLAG ;
	BANKSEL	_INTCONbits
	BCF	_INTCONbits,2
;;; /home/sdcc-builder/build/sdcc-build/orig/sdcc/src/pic14/gen.c:2316:resultRemat *{*
;;; /home/sdcc-builder/build/sdcc-build/orig/sdcc/src/pic14/gen.c:6927:genAssign *{*
;; ***	genAssign  6928
;; ***	aopForSym 315
;;	327 sym->rname = _TMR0, size = 1
;; 	line = 6937 result AOP_DIR=_TMR0, size=1, left -=-, size=0, right AOP_LIT=0xe0, size=1
;; ***	genAssign  7023
;; >>> /home/sdcc-builder/build/sdcc-build/orig/sdcc/src/pic14/gen.c:7030:genAssign
	.line	36; "Timer0.c"	SET_TMR0_TIME_MS(TICK_TIME)  ;
	MOVLW	0xe0
;; >>> /home/sdcc-builder/build/sdcc-build/orig/sdcc/src/pic14/gen.c:7032:genAssign
;;	1009
;;	1028  _TMR0   offset=0
	MOVWF	_TMR0
;;; /home/sdcc-builder/build/sdcc-build/orig/sdcc/src/pic14/gen.c:2316:resultRemat *{*
;;; /home/sdcc-builder/build/sdcc-build/orig/sdcc/src/pic14/gen.c:2760:genLabel *{*
;; ***	genLabel  2763
;;; /home/sdcc-builder/build/sdcc-build/orig/sdcc/src/pic14/gen.c:2316:resultRemat *{*
;;; /home/sdcc-builder/build/sdcc-build/orig/sdcc/src/pic14/gen.c:2528:genEndFunction *{*
;; ***	genEndFunction  2530
;;; /home/sdcc-builder/build/sdcc-build/orig/sdcc/src/pic14/gen.c:2023:unsaverbank *{*
;; ***	unsaverbank  2025 - WARNING no code generated
;; >>> /home/sdcc-builder/build/sdcc-build/orig/sdcc/src/pic14/gen.c:2622:genEndFunction
	BANKSEL	___sdcc_saved_fsr
	MOVF	___sdcc_saved_fsr,W
;; >>> /home/sdcc-builder/build/sdcc-build/orig/sdcc/src/pic14/gen.c:2623:genEndFunction
	BANKSEL	FSR
	MOVWF	FSR
;; >>> /home/sdcc-builder/build/sdcc-build/orig/sdcc/src/pic14/gen.c:2625:genEndFunction
	MOVF	PSAVE,W
;; >>> /home/sdcc-builder/build/sdcc-build/orig/sdcc/src/pic14/gen.c:2626:genEndFunction
	MOVWF	PCLATH
;; >>> /home/sdcc-builder/build/sdcc-build/orig/sdcc/src/pic14/gen.c:2627:genEndFunction
	CLRF	STATUS
;; >>> /home/sdcc-builder/build/sdcc-build/orig/sdcc/src/pic14/gen.c:2629:genEndFunction
	SWAPF	SSAVE,W
;; >>> /home/sdcc-builder/build/sdcc-build/orig/sdcc/src/pic14/gen.c:2630:genEndFunction
	MOVWF	STATUS
;; >>> /home/sdcc-builder/build/sdcc-build/orig/sdcc/src/pic14/gen.c:2631:genEndFunction
	SWAPF	WSAVE,F
;; >>> /home/sdcc-builder/build/sdcc-build/orig/sdcc/src/pic14/gen.c:2632:genEndFunction
	SWAPF	WSAVE,W
END_OF_INTERRUPT
	RETFIE	
;;; /home/sdcc-builder/build/sdcc-build/orig/sdcc/src/pic14/gen.c:7426:genpic14Code *{*

;--------------------------------------------------------
; code
;--------------------------------------------------------
code_Timer0	code
;***
;  pBlock Stats: dbName = C
;***
;entry:  _TMR0_Start	;Function start
; 2 exit points
;has an exit
;; Starting pCode block
;;; /home/sdcc-builder/build/sdcc-build/orig/sdcc/src/pic14/gen.c:2316:resultRemat *{*
;;; /home/sdcc-builder/build/sdcc-build/orig/sdcc/src/pic14/gen.c:2760:genLabel *{*
;; ***	genLabel  2763
;;; /home/sdcc-builder/build/sdcc-build/orig/sdcc/src/pic14/gen.c:2316:resultRemat *{*
;;; /home/sdcc-builder/build/sdcc-build/orig/sdcc/src/pic14/gen.c:2340:genFunction *{*
;; ***	genFunction  2342 curr label offset=8previous max_key=2 
_TMR0_Start	;Function start
; 2 exit points
;;; /home/sdcc-builder/build/sdcc-build/orig/sdcc/src/pic14/gen.c:2316:resultRemat *{*
;;; /home/sdcc-builder/build/sdcc-build/orig/sdcc/src/pic14/gen.c:2316:resultRemat *{*
;;; /home/sdcc-builder/build/sdcc-build/orig/sdcc/src/pic14/gen.c:6686:genPointerSet *{*
;; ***	genPointerSet  6687
;;; /home/sdcc-builder/build/sdcc-build/orig/sdcc/src/pic14/gen.c:6505:genNearPointerSet *{*
;; ***	genNearPointerSet  6506
;;	613
;;	aopForRemat 392
;;	418: rname _INTCONbits, val 0, const = 0
;; ***	genNearPointerSet  6521
;;	833: aopGet AOP_PCODE type PO_IMMEDIATE
;;	_INTCONbits
;; 	line = 6523 result AOP_PCODE=_INTCONbits, size=2, left -=-, size=0, right AOP_LIT=0x01, size=1
;;; /home/sdcc-builder/build/sdcc-build/orig/sdcc/src/pic14/gen.c:6249:genPackBits *{*
;; ***	genPackBits  6250
;;	833: aopGet AOP_PCODE type PO_IMMEDIATE
;;	_INTCONbits
;; >>> /home/sdcc-builder/build/sdcc-build/orig/sdcc/src/pic14/gen.c:6275:genPackBits
	.line	40; "Timer0.c"	SET_TMR0_INT_STATE(1) ;
	BANKSEL	_INTCONbits
	BSF	_INTCONbits,5
;;; /home/sdcc-builder/build/sdcc-build/orig/sdcc/src/pic14/gen.c:2316:resultRemat *{*
;;; /home/sdcc-builder/build/sdcc-build/orig/sdcc/src/pic14/gen.c:2316:resultRemat *{*
;;; /home/sdcc-builder/build/sdcc-build/orig/sdcc/src/pic14/gen.c:6686:genPointerSet *{*
;; ***	genPointerSet  6687
;;; /home/sdcc-builder/build/sdcc-build/orig/sdcc/src/pic14/gen.c:6505:genNearPointerSet *{*
;; ***	genNearPointerSet  6506
;;	613
;;	aopForRemat 392
;;	418: rname _INTCONbits, val 0, const = 0
;; ***	genNearPointerSet  6521
;;	833: aopGet AOP_PCODE type PO_IMMEDIATE
;;	_INTCONbits
;; 	line = 6523 result AOP_PCODE=_INTCONbits, size=2, left -=-, size=0, right AOP_LIT=0x01, size=1
;;; /home/sdcc-builder/build/sdcc-build/orig/sdcc/src/pic14/gen.c:6249:genPackBits *{*
;; ***	genPackBits  6250
;;	833: aopGet AOP_PCODE type PO_IMMEDIATE
;;	_INTCONbits
;; >>> /home/sdcc-builder/build/sdcc-build/orig/sdcc/src/pic14/gen.c:6275:genPackBits
	.line	41; "Timer0.c"	SET_GIE_STATE(1) ;
	BSF	_INTCONbits,7
;;; /home/sdcc-builder/build/sdcc-build/orig/sdcc/src/pic14/gen.c:2316:resultRemat *{*
;;; /home/sdcc-builder/build/sdcc-build/orig/sdcc/src/pic14/gen.c:2316:resultRemat *{*
;;; /home/sdcc-builder/build/sdcc-build/orig/sdcc/src/pic14/gen.c:6686:genPointerSet *{*
;; ***	genPointerSet  6687
;;; /home/sdcc-builder/build/sdcc-build/orig/sdcc/src/pic14/gen.c:6505:genNearPointerSet *{*
;; ***	genNearPointerSet  6506
;;	613
;;	aopForRemat 392
;;	418: rname _OPTION_REGbits, val 0, const = 0
;; ***	genNearPointerSet  6521
;;	833: aopGet AOP_PCODE type PO_IMMEDIATE
;;	_OPTION_REGbits
;; 	line = 6523 result AOP_PCODE=_OPTION_REGbits, size=2, left -=-, size=0, right AOP_LIT=0x01, size=1
;;; /home/sdcc-builder/build/sdcc-build/orig/sdcc/src/pic14/gen.c:6249:genPackBits *{*
;; ***	genPackBits  6250
;;	833: aopGet AOP_PCODE type PO_IMMEDIATE
;;	_OPTION_REGbits
;; >>> /home/sdcc-builder/build/sdcc-build/orig/sdcc/src/pic14/gen.c:6275:genPackBits
	.line	42; "Timer0.c"	SET_TMR0_EDGE(1) ;
	BANKSEL	_OPTION_REGbits
	BSF	_OPTION_REGbits,4
;;; /home/sdcc-builder/build/sdcc-build/orig/sdcc/src/pic14/gen.c:2316:resultRemat *{*
;;; /home/sdcc-builder/build/sdcc-build/orig/sdcc/src/pic14/gen.c:2316:resultRemat *{*
;;; /home/sdcc-builder/build/sdcc-build/orig/sdcc/src/pic14/gen.c:6686:genPointerSet *{*
;; ***	genPointerSet  6687
;;; /home/sdcc-builder/build/sdcc-build/orig/sdcc/src/pic14/gen.c:6505:genNearPointerSet *{*
;; ***	genNearPointerSet  6506
;;	613
;;	aopForRemat 392
;;	418: rname _OPTION_REGbits, val 0, const = 0
;; ***	genNearPointerSet  6521
;;	833: aopGet AOP_PCODE type PO_IMMEDIATE
;;	_OPTION_REGbits
;; 	line = 6523 result AOP_PCODE=_OPTION_REGbits, size=2, left -=-, size=0, right AOP_LIT=0x00, size=1
;;; /home/sdcc-builder/build/sdcc-build/orig/sdcc/src/pic14/gen.c:6249:genPackBits *{*
;; ***	genPackBits  6250
;;	833: aopGet AOP_PCODE type PO_IMMEDIATE
;;	_OPTION_REGbits
;; >>> /home/sdcc-builder/build/sdcc-build/orig/sdcc/src/pic14/gen.c:6275:genPackBits
	.line	43; "Timer0.c"	SET_TMR0_CLKS(0) ;
	BCF	_OPTION_REGbits,5
;;; /home/sdcc-builder/build/sdcc-build/orig/sdcc/src/pic14/gen.c:2316:resultRemat *{*
;;; /home/sdcc-builder/build/sdcc-build/orig/sdcc/src/pic14/gen.c:6927:genAssign *{*
;; ***	genAssign  6928
;; ***	aopForSym 315
;;	327 sym->rname = _TMR0, size = 1
;; 	line = 6937 result AOP_DIR=_TMR0, size=1, left -=-, size=0, right AOP_LIT=0xe0, size=1
;; ***	genAssign  7023
;; >>> /home/sdcc-builder/build/sdcc-build/orig/sdcc/src/pic14/gen.c:7030:genAssign
	.line	44; "Timer0.c"	SET_TMR0_TIME_MS(TICK_TIME)  ;
	MOVLW	0xe0
;; >>> /home/sdcc-builder/build/sdcc-build/orig/sdcc/src/pic14/gen.c:7032:genAssign
;;	1009
;;	1028  _TMR0   offset=0
	BANKSEL	_TMR0
	MOVWF	_TMR0
;;; /home/sdcc-builder/build/sdcc-build/orig/sdcc/src/pic14/gen.c:2316:resultRemat *{*
;;; /home/sdcc-builder/build/sdcc-build/orig/sdcc/src/pic14/gen.c:2760:genLabel *{*
;; ***	genLabel  2763
;;; /home/sdcc-builder/build/sdcc-build/orig/sdcc/src/pic14/gen.c:2316:resultRemat *{*
;;; /home/sdcc-builder/build/sdcc-build/orig/sdcc/src/pic14/gen.c:2528:genEndFunction *{*
;; ***	genEndFunction  2530
	RETURN	
; exit point of _TMR0_Start

;***
;  pBlock Stats: dbName = C
;***
;entry:  _TMR0_Init	;Function start
; 2 exit points
;has an exit
;; Starting pCode block
;;; /home/sdcc-builder/build/sdcc-build/orig/sdcc/src/pic14/gen.c:2316:resultRemat *{*
;;; /home/sdcc-builder/build/sdcc-build/orig/sdcc/src/pic14/gen.c:2760:genLabel *{*
;; ***	genLabel  2763
;;; /home/sdcc-builder/build/sdcc-build/orig/sdcc/src/pic14/gen.c:2316:resultRemat *{*
;;; /home/sdcc-builder/build/sdcc-build/orig/sdcc/src/pic14/gen.c:2340:genFunction *{*
;; ***	genFunction  2342 curr label offset=0previous max_key=0 
_TMR0_Init	;Function start
; 2 exit points
;;; /home/sdcc-builder/build/sdcc-build/orig/sdcc/src/pic14/gen.c:2316:resultRemat *{*
;;; /home/sdcc-builder/build/sdcc-build/orig/sdcc/src/pic14/gen.c:2316:resultRemat *{*
;;; /home/sdcc-builder/build/sdcc-build/orig/sdcc/src/pic14/gen.c:6686:genPointerSet *{*
;; ***	genPointerSet  6687
;;; /home/sdcc-builder/build/sdcc-build/orig/sdcc/src/pic14/gen.c:6505:genNearPointerSet *{*
;; ***	genNearPointerSet  6506
;;	613
;;	aopForRemat 392
;;	418: rname _OPTION_REGbits, val 0, const = 0
;; ***	genNearPointerSet  6521
;;	833: aopGet AOP_PCODE type PO_IMMEDIATE
;;	_OPTION_REGbits
;; 	line = 6523 result AOP_PCODE=_OPTION_REGbits, size=2, left -=-, size=0, right AOP_LIT=0x01, size=1
;;; /home/sdcc-builder/build/sdcc-build/orig/sdcc/src/pic14/gen.c:6249:genPackBits *{*
;; ***	genPackBits  6250
;;	833: aopGet AOP_PCODE type PO_IMMEDIATE
;;	_OPTION_REGbits
;; >>> /home/sdcc-builder/build/sdcc-build/orig/sdcc/src/pic14/gen.c:6275:genPackBits
	.line	21; "Timer0.c"	SET_TMR0_CLKS(1) ;
	BANKSEL	_OPTION_REGbits
	BSF	_OPTION_REGbits,5
;;; /home/sdcc-builder/build/sdcc-build/orig/sdcc/src/pic14/gen.c:2316:resultRemat *{*
;;; /home/sdcc-builder/build/sdcc-build/orig/sdcc/src/pic14/gen.c:2316:resultRemat *{*
;;; /home/sdcc-builder/build/sdcc-build/orig/sdcc/src/pic14/gen.c:6686:genPointerSet *{*
;; ***	genPointerSet  6687
;;; /home/sdcc-builder/build/sdcc-build/orig/sdcc/src/pic14/gen.c:6505:genNearPointerSet *{*
;; ***	genNearPointerSet  6506
;;	613
;;	aopForRemat 392
;;	418: rname _OPTION_REGbits, val 0, const = 0
;; ***	genNearPointerSet  6521
;;	833: aopGet AOP_PCODE type PO_IMMEDIATE
;;	_OPTION_REGbits
;; 	line = 6523 result AOP_PCODE=_OPTION_REGbits, size=2, left -=-, size=0, right AOP_LIT=0x00, size=1
;;; /home/sdcc-builder/build/sdcc-build/orig/sdcc/src/pic14/gen.c:6249:genPackBits *{*
;; ***	genPackBits  6250
;;	833: aopGet AOP_PCODE type PO_IMMEDIATE
;;	_OPTION_REGbits
;; >>> /home/sdcc-builder/build/sdcc-build/orig/sdcc/src/pic14/gen.c:6275:genPackBits
	.line	22; "Timer0.c"	SET_TMR0_PRESCALER(7)
	BCF	_OPTION_REGbits,3
;;; /home/sdcc-builder/build/sdcc-build/orig/sdcc/src/pic14/gen.c:2316:resultRemat *{*
;;; /home/sdcc-builder/build/sdcc-build/orig/sdcc/src/pic14/gen.c:2316:resultRemat *{*
;;; /home/sdcc-builder/build/sdcc-build/orig/sdcc/src/pic14/gen.c:6686:genPointerSet *{*
;; ***	genPointerSet  6687
;;; /home/sdcc-builder/build/sdcc-build/orig/sdcc/src/pic14/gen.c:6505:genNearPointerSet *{*
;; ***	genNearPointerSet  6506
;;	613
;;	aopForRemat 392
;;	418: rname _OPTION_REGbits, val 0, const = 0
;; ***	genNearPointerSet  6521
;;	833: aopGet AOP_PCODE type PO_IMMEDIATE
;;	_OPTION_REGbits
;; 	line = 6523 result AOP_PCODE=_OPTION_REGbits, size=2, left -=-, size=0, right AOP_LIT=0x01, size=1
;;; /home/sdcc-builder/build/sdcc-build/orig/sdcc/src/pic14/gen.c:6249:genPackBits *{*
;; ***	genPackBits  6250
;;	833: aopGet AOP_PCODE type PO_IMMEDIATE
;;	_OPTION_REGbits
;; >>> /home/sdcc-builder/build/sdcc-build/orig/sdcc/src/pic14/gen.c:6275:genPackBits
	BSF	_OPTION_REGbits,0
;;; /home/sdcc-builder/build/sdcc-build/orig/sdcc/src/pic14/gen.c:2316:resultRemat *{*
;;; /home/sdcc-builder/build/sdcc-build/orig/sdcc/src/pic14/gen.c:2316:resultRemat *{*
;;; /home/sdcc-builder/build/sdcc-build/orig/sdcc/src/pic14/gen.c:6686:genPointerSet *{*
;; ***	genPointerSet  6687
;;; /home/sdcc-builder/build/sdcc-build/orig/sdcc/src/pic14/gen.c:6505:genNearPointerSet *{*
;; ***	genNearPointerSet  6506
;;	613
;;	aopForRemat 392
;;	418: rname _OPTION_REGbits, val 0, const = 0
;; ***	genNearPointerSet  6521
;;	833: aopGet AOP_PCODE type PO_IMMEDIATE
;;	_OPTION_REGbits
;; 	line = 6523 result AOP_PCODE=_OPTION_REGbits, size=2, left -=-, size=0, right AOP_LIT=0x01, size=1
;;; /home/sdcc-builder/build/sdcc-build/orig/sdcc/src/pic14/gen.c:6249:genPackBits *{*
;; ***	genPackBits  6250
;;	833: aopGet AOP_PCODE type PO_IMMEDIATE
;;	_OPTION_REGbits
;; >>> /home/sdcc-builder/build/sdcc-build/orig/sdcc/src/pic14/gen.c:6275:genPackBits
	BSF	_OPTION_REGbits,1
;;; /home/sdcc-builder/build/sdcc-build/orig/sdcc/src/pic14/gen.c:2316:resultRemat *{*
;;; /home/sdcc-builder/build/sdcc-build/orig/sdcc/src/pic14/gen.c:2316:resultRemat *{*
;;; /home/sdcc-builder/build/sdcc-build/orig/sdcc/src/pic14/gen.c:6686:genPointerSet *{*
;; ***	genPointerSet  6687
;;; /home/sdcc-builder/build/sdcc-build/orig/sdcc/src/pic14/gen.c:6505:genNearPointerSet *{*
;; ***	genNearPointerSet  6506
;;	613
;;	aopForRemat 392
;;	418: rname _OPTION_REGbits, val 0, const = 0
;; ***	genNearPointerSet  6521
;;	833: aopGet AOP_PCODE type PO_IMMEDIATE
;;	_OPTION_REGbits
;; 	line = 6523 result AOP_PCODE=_OPTION_REGbits, size=2, left -=-, size=0, right AOP_LIT=0x01, size=1
;;; /home/sdcc-builder/build/sdcc-build/orig/sdcc/src/pic14/gen.c:6249:genPackBits *{*
;; ***	genPackBits  6250
;;	833: aopGet AOP_PCODE type PO_IMMEDIATE
;;	_OPTION_REGbits
;; >>> /home/sdcc-builder/build/sdcc-build/orig/sdcc/src/pic14/gen.c:6275:genPackBits
	BSF	_OPTION_REGbits,2
;;; /home/sdcc-builder/build/sdcc-build/orig/sdcc/src/pic14/gen.c:2316:resultRemat *{*
;;; /home/sdcc-builder/build/sdcc-build/orig/sdcc/src/pic14/gen.c:2760:genLabel *{*
;; ***	genLabel  2763
;;; /home/sdcc-builder/build/sdcc-build/orig/sdcc/src/pic14/gen.c:2316:resultRemat *{*
;;; /home/sdcc-builder/build/sdcc-build/orig/sdcc/src/pic14/gen.c:2528:genEndFunction *{*
;; ***	genEndFunction  2530
	RETURN	
; exit point of _TMR0_Init
;;; /home/sdcc-builder/build/sdcc-build/orig/sdcc/src/pic14/gen.c:7426:genpic14Code *{*


;	code size estimation:
;	   70+   25 =    95 instructions (  240 byte)

	end
