;--------------------------------------------------------
; File Created by SDCC : free open source ANSI-C Compiler
; Version 3.5.0 #9253 (Jun 20 2015) (MINGW32)
; This file was generated Wed May 11 20:13:40 2022
;--------------------------------------------------------
; PIC port for the 14-bit core
;--------------------------------------------------------
	.file	"SSD.c"
	list	p=16f877a
	radix dec
	include "p16f877a.inc"
;--------------------------------------------------------
; external declarations
;--------------------------------------------------------
	extern	_GPIO_InitPin
	extern	_GPIO_InitPort
	extern	_GPIO_SetPinState
	extern	_GPIO_SetPortState
	extern	_GPIO_GetPinState
	extern	_GPIO_GetPortState
	extern	_GPIO_BitToggle
	extern	_GPIO_PortToggle
	extern	_Delay_ms
	extern	__mulchar

	extern PSAVE
	extern SSAVE
	extern WSAVE
	extern STK12
	extern STK11
	extern STK10
	extern STK09
	extern STK08
	extern STK07
	extern STK06
	extern STK05
	extern STK04
	extern STK03
	extern STK02
	extern STK01
	extern STK00
;--------------------------------------------------------
; global declarations
;--------------------------------------------------------
	global	_SSD_SetSymbol
	global	_SSD_SetState
	global	_SSD_Update
	global	_SSD_Init
	global	_SSD_IN_SYSTEM

;--------------------------------------------------------
; global definitions
;--------------------------------------------------------
UD_SSD_0	udata
_SSD_IN_SYSTEM	res	0

;--------------------------------------------------------
; absolute symbol definitions
;--------------------------------------------------------
;--------------------------------------------------------
; compiler-defined variables
;--------------------------------------------------------
UDL_SSD_0	udata
r0x101B	res	1
r0x101C	res	1
r0x101D	res	1
r0x101E	res	1
r0x101F	res	1
r0x1020	res	1
r0x1015	res	1
r0x1016	res	1
r0x1017	res	1
r0x1018	res	1
r0x1019	res	1
r0x1010	res	1
r0x1011	res	1
r0x1012	res	1
r0x1013	res	1
r0x1014	res	1
r0x100B	res	1
r0x100C	res	1
r0x100D	res	1
r0x100E	res	1
r0x100F	res	1
;--------------------------------------------------------
; initialized data
;--------------------------------------------------------

ID_SSD_0	idata
_ssd_data
	db	0x3f
	db	0x06
	db	0x5b
	db	0x4f
	db	0x66
	db	0x6d
	db	0x7d
	db	0x07
	db	0x7f
	db	0x6f
	db	0x00

;--------------------------------------------------------
; overlayable items in internal ram 
;--------------------------------------------------------
;	udata_ovr
;--------------------------------------------------------
; code
;--------------------------------------------------------
code_SSD	code
;***
;  pBlock Stats: dbName = C
;***
;entry:  _TurnAllOff	;Function start
; 2 exit points
;has an exit
;functions called:
;   _GPIO_SetPinState
;   _GPIO_SetPinState
;   _GPIO_SetPinState
;   _GPIO_SetPinState
;   _GPIO_SetPinState
;   _GPIO_SetPinState
;   _GPIO_SetPinState
;   _GPIO_SetPinState
;2 compiler assigned registers:
;   STK01
;   STK00
;; Starting pCode block
;;; /home/sdcc-builder/build/sdcc-build/orig/sdcc/src/pic14/gen.c:2316:resultRemat *{*
;;; /home/sdcc-builder/build/sdcc-build/orig/sdcc/src/pic14/gen.c:2760:genLabel *{*
;; ***	genLabel  2763
;;; /home/sdcc-builder/build/sdcc-build/orig/sdcc/src/pic14/gen.c:2316:resultRemat *{*
;;; /home/sdcc-builder/build/sdcc-build/orig/sdcc/src/pic14/gen.c:2340:genFunction *{*
;; ***	genFunction  2342 curr label offset=52previous max_key=0 
_TurnAllOff	;Function start
; 2 exit points
;;; /home/sdcc-builder/build/sdcc-build/orig/sdcc/src/pic14/gen.c:2316:resultRemat *{*
;;; /home/sdcc-builder/build/sdcc-build/orig/sdcc/src/pic14/gen.c:2316:resultRemat *{*
;;; /home/sdcc-builder/build/sdcc-build/orig/sdcc/src/pic14/gen.c:2316:resultRemat *{*
;;; /home/sdcc-builder/build/sdcc-build/orig/sdcc/src/pic14/gen.c:2316:resultRemat *{*
;;; /home/sdcc-builder/build/sdcc-build/orig/sdcc/src/pic14/gen.c:2086:genCall *{*
;; ***	genCall  2088
;;; /home/sdcc-builder/build/sdcc-build/orig/sdcc/src/pic14/gen.c:1801:saveRegisters *{*
;; ***	saveRegisters  1803
;; 	2135 left AOP_LIT
;;; /home/sdcc-builder/build/sdcc-build/orig/sdcc/src/pic14/gen.c:1343:mov2w_op *{*
;; >>> /home/sdcc-builder/build/sdcc-build/orig/sdcc/src/pic14/gen.c:1361:mov2w_op
	.line	89; "SSD.c"	GPIO_SetPinState(PORT_B ,7,0) ;
	MOVLW	0x00
;; 	2135 left AOP_LIT
;; >>> /home/sdcc-builder/build/sdcc-build/orig/sdcc/src/pic14/gen.c:2143:genCall
;; ***	popRegFromIdx,1042  , rIdx=0x7e
	MOVWF	STK01
;;; /home/sdcc-builder/build/sdcc-build/orig/sdcc/src/pic14/gen.c:1343:mov2w_op *{*
;; >>> /home/sdcc-builder/build/sdcc-build/orig/sdcc/src/pic14/gen.c:1361:mov2w_op
	MOVLW	0x07
;; 	2135 left AOP_LIT
;; >>> /home/sdcc-builder/build/sdcc-build/orig/sdcc/src/pic14/gen.c:2143:genCall
;; ***	popRegFromIdx,1042  , rIdx=0x7f
	MOVWF	STK00
;;; /home/sdcc-builder/build/sdcc-build/orig/sdcc/src/pic14/gen.c:1343:mov2w_op *{*
;; >>> /home/sdcc-builder/build/sdcc-build/orig/sdcc/src/pic14/gen.c:1361:mov2w_op
	MOVLW	0x01
;; >>> /home/sdcc-builder/build/sdcc-build/orig/sdcc/src/pic14/gen.c:2173:genCall
	PAGESEL	_GPIO_SetPinState
;; >>> /home/sdcc-builder/build/sdcc-build/orig/sdcc/src/pic14/gen.c:2175:genCall
	CALL	_GPIO_SetPinState
;; >>> /home/sdcc-builder/build/sdcc-build/orig/sdcc/src/pic14/gen.c:2181:genCall
	PAGESEL	$
;;; /home/sdcc-builder/build/sdcc-build/orig/sdcc/src/pic14/gen.c:1845:unsaveRegisters *{*
;; ***	unsaveRegisters  1847
;;; /home/sdcc-builder/build/sdcc-build/orig/sdcc/src/pic14/gen.c:2316:resultRemat *{*
;;; /home/sdcc-builder/build/sdcc-build/orig/sdcc/src/pic14/gen.c:2316:resultRemat *{*
;;; /home/sdcc-builder/build/sdcc-build/orig/sdcc/src/pic14/gen.c:2316:resultRemat *{*
;;; /home/sdcc-builder/build/sdcc-build/orig/sdcc/src/pic14/gen.c:2316:resultRemat *{*
;;; /home/sdcc-builder/build/sdcc-build/orig/sdcc/src/pic14/gen.c:2086:genCall *{*
;; ***	genCall  2088
;;; /home/sdcc-builder/build/sdcc-build/orig/sdcc/src/pic14/gen.c:1801:saveRegisters *{*
;; ***	saveRegisters  1803
;; 	2135 left AOP_LIT
;;; /home/sdcc-builder/build/sdcc-build/orig/sdcc/src/pic14/gen.c:1343:mov2w_op *{*
;; >>> /home/sdcc-builder/build/sdcc-build/orig/sdcc/src/pic14/gen.c:1361:mov2w_op
	.line	90; "SSD.c"	GPIO_SetPinState(PORT_B ,6,0) ;
	MOVLW	0x00
;; 	2135 left AOP_LIT
;; >>> /home/sdcc-builder/build/sdcc-build/orig/sdcc/src/pic14/gen.c:2143:genCall
;; ***	popRegFromIdx,1042  , rIdx=0x7e
	MOVWF	STK01
;;; /home/sdcc-builder/build/sdcc-build/orig/sdcc/src/pic14/gen.c:1343:mov2w_op *{*
;; >>> /home/sdcc-builder/build/sdcc-build/orig/sdcc/src/pic14/gen.c:1361:mov2w_op
	MOVLW	0x06
;; 	2135 left AOP_LIT
;; >>> /home/sdcc-builder/build/sdcc-build/orig/sdcc/src/pic14/gen.c:2143:genCall
;; ***	popRegFromIdx,1042  , rIdx=0x7f
	MOVWF	STK00
;;; /home/sdcc-builder/build/sdcc-build/orig/sdcc/src/pic14/gen.c:1343:mov2w_op *{*
;; >>> /home/sdcc-builder/build/sdcc-build/orig/sdcc/src/pic14/gen.c:1361:mov2w_op
	MOVLW	0x01
;; >>> /home/sdcc-builder/build/sdcc-build/orig/sdcc/src/pic14/gen.c:2173:genCall
	PAGESEL	_GPIO_SetPinState
;; >>> /home/sdcc-builder/build/sdcc-build/orig/sdcc/src/pic14/gen.c:2175:genCall
	CALL	_GPIO_SetPinState
;; >>> /home/sdcc-builder/build/sdcc-build/orig/sdcc/src/pic14/gen.c:2181:genCall
	PAGESEL	$
;;; /home/sdcc-builder/build/sdcc-build/orig/sdcc/src/pic14/gen.c:1845:unsaveRegisters *{*
;; ***	unsaveRegisters  1847
;;; /home/sdcc-builder/build/sdcc-build/orig/sdcc/src/pic14/gen.c:2316:resultRemat *{*
;;; /home/sdcc-builder/build/sdcc-build/orig/sdcc/src/pic14/gen.c:2316:resultRemat *{*
;;; /home/sdcc-builder/build/sdcc-build/orig/sdcc/src/pic14/gen.c:2316:resultRemat *{*
;;; /home/sdcc-builder/build/sdcc-build/orig/sdcc/src/pic14/gen.c:2316:resultRemat *{*
;;; /home/sdcc-builder/build/sdcc-build/orig/sdcc/src/pic14/gen.c:2086:genCall *{*
;; ***	genCall  2088
;;; /home/sdcc-builder/build/sdcc-build/orig/sdcc/src/pic14/gen.c:1801:saveRegisters *{*
;; ***	saveRegisters  1803
;; 	2135 left AOP_LIT
;;; /home/sdcc-builder/build/sdcc-build/orig/sdcc/src/pic14/gen.c:1343:mov2w_op *{*
;; >>> /home/sdcc-builder/build/sdcc-build/orig/sdcc/src/pic14/gen.c:1361:mov2w_op
	.line	91; "SSD.c"	GPIO_SetPinState(PORT_B ,5,0) ;
	MOVLW	0x00
;; 	2135 left AOP_LIT
;; >>> /home/sdcc-builder/build/sdcc-build/orig/sdcc/src/pic14/gen.c:2143:genCall
;; ***	popRegFromIdx,1042  , rIdx=0x7e
	MOVWF	STK01
;;; /home/sdcc-builder/build/sdcc-build/orig/sdcc/src/pic14/gen.c:1343:mov2w_op *{*
;; >>> /home/sdcc-builder/build/sdcc-build/orig/sdcc/src/pic14/gen.c:1361:mov2w_op
	MOVLW	0x05
;; 	2135 left AOP_LIT
;; >>> /home/sdcc-builder/build/sdcc-build/orig/sdcc/src/pic14/gen.c:2143:genCall
;; ***	popRegFromIdx,1042  , rIdx=0x7f
	MOVWF	STK00
;;; /home/sdcc-builder/build/sdcc-build/orig/sdcc/src/pic14/gen.c:1343:mov2w_op *{*
;; >>> /home/sdcc-builder/build/sdcc-build/orig/sdcc/src/pic14/gen.c:1361:mov2w_op
	MOVLW	0x01
;; >>> /home/sdcc-builder/build/sdcc-build/orig/sdcc/src/pic14/gen.c:2173:genCall
	PAGESEL	_GPIO_SetPinState
;; >>> /home/sdcc-builder/build/sdcc-build/orig/sdcc/src/pic14/gen.c:2175:genCall
	CALL	_GPIO_SetPinState
;; >>> /home/sdcc-builder/build/sdcc-build/orig/sdcc/src/pic14/gen.c:2181:genCall
	PAGESEL	$
;;; /home/sdcc-builder/build/sdcc-build/orig/sdcc/src/pic14/gen.c:1845:unsaveRegisters *{*
;; ***	unsaveRegisters  1847
;;; /home/sdcc-builder/build/sdcc-build/orig/sdcc/src/pic14/gen.c:2316:resultRemat *{*
;;; /home/sdcc-builder/build/sdcc-build/orig/sdcc/src/pic14/gen.c:2316:resultRemat *{*
;;; /home/sdcc-builder/build/sdcc-build/orig/sdcc/src/pic14/gen.c:2316:resultRemat *{*
;;; /home/sdcc-builder/build/sdcc-build/orig/sdcc/src/pic14/gen.c:2316:resultRemat *{*
;;; /home/sdcc-builder/build/sdcc-build/orig/sdcc/src/pic14/gen.c:2086:genCall *{*
;; ***	genCall  2088
;;; /home/sdcc-builder/build/sdcc-build/orig/sdcc/src/pic14/gen.c:1801:saveRegisters *{*
;; ***	saveRegisters  1803
;; 	2135 left AOP_LIT
;;; /home/sdcc-builder/build/sdcc-build/orig/sdcc/src/pic14/gen.c:1343:mov2w_op *{*
;; >>> /home/sdcc-builder/build/sdcc-build/orig/sdcc/src/pic14/gen.c:1361:mov2w_op
	.line	92; "SSD.c"	GPIO_SetPinState(PORT_B ,4,0) ;
	MOVLW	0x00
;; 	2135 left AOP_LIT
;; >>> /home/sdcc-builder/build/sdcc-build/orig/sdcc/src/pic14/gen.c:2143:genCall
;; ***	popRegFromIdx,1042  , rIdx=0x7e
	MOVWF	STK01
;;; /home/sdcc-builder/build/sdcc-build/orig/sdcc/src/pic14/gen.c:1343:mov2w_op *{*
;; >>> /home/sdcc-builder/build/sdcc-build/orig/sdcc/src/pic14/gen.c:1361:mov2w_op
	MOVLW	0x04
;; 	2135 left AOP_LIT
;; >>> /home/sdcc-builder/build/sdcc-build/orig/sdcc/src/pic14/gen.c:2143:genCall
;; ***	popRegFromIdx,1042  , rIdx=0x7f
	MOVWF	STK00
;;; /home/sdcc-builder/build/sdcc-build/orig/sdcc/src/pic14/gen.c:1343:mov2w_op *{*
;; >>> /home/sdcc-builder/build/sdcc-build/orig/sdcc/src/pic14/gen.c:1361:mov2w_op
	MOVLW	0x01
;; >>> /home/sdcc-builder/build/sdcc-build/orig/sdcc/src/pic14/gen.c:2173:genCall
	PAGESEL	_GPIO_SetPinState
;; >>> /home/sdcc-builder/build/sdcc-build/orig/sdcc/src/pic14/gen.c:2175:genCall
	CALL	_GPIO_SetPinState
;; >>> /home/sdcc-builder/build/sdcc-build/orig/sdcc/src/pic14/gen.c:2181:genCall
	PAGESEL	$
;;; /home/sdcc-builder/build/sdcc-build/orig/sdcc/src/pic14/gen.c:1845:unsaveRegisters *{*
;; ***	unsaveRegisters  1847
;;; /home/sdcc-builder/build/sdcc-build/orig/sdcc/src/pic14/gen.c:2316:resultRemat *{*
;;; /home/sdcc-builder/build/sdcc-build/orig/sdcc/src/pic14/gen.c:2760:genLabel *{*
;; ***	genLabel  2763
;;; /home/sdcc-builder/build/sdcc-build/orig/sdcc/src/pic14/gen.c:2316:resultRemat *{*
;;; /home/sdcc-builder/build/sdcc-build/orig/sdcc/src/pic14/gen.c:2528:genEndFunction *{*
;; ***	genEndFunction  2530
	RETURN	
; exit point of _TurnAllOff

;***
;  pBlock Stats: dbName = C
;***
;entry:  _SSD_SetSymbol	;Function start
; 2 exit points
;has an exit
;functions called:
;   __mulchar
;   __mulchar
;6 compiler assigned registers:
;   r0x100B
;   STK00
;   r0x100C
;   r0x100D
;   r0x100E
;   r0x100F
;; Starting pCode block
;;; /home/sdcc-builder/build/sdcc-build/orig/sdcc/src/pic14/gen.c:2316:resultRemat *{*
;;; /home/sdcc-builder/build/sdcc-build/orig/sdcc/src/pic14/gen.c:2760:genLabel *{*
;; ***	genLabel  2763
;;; /home/sdcc-builder/build/sdcc-build/orig/sdcc/src/pic14/gen.c:2316:resultRemat *{*
;;; /home/sdcc-builder/build/sdcc-build/orig/sdcc/src/pic14/gen.c:2340:genFunction *{*
;; ***	genFunction  2342 curr label offset=48previous max_key=0 
_SSD_SetSymbol	;Function start
; 2 exit points
;;; /home/sdcc-builder/build/sdcc-build/orig/sdcc/src/pic14/gen.c:2316:resultRemat *{*
;;; /home/sdcc-builder/build/sdcc-build/orig/sdcc/src/pic14/gen.c:7358:genReceive *{*
;; ***	genReceive  7359
;;	694 register type nRegs=1
;;; /home/sdcc-builder/build/sdcc-build/orig/sdcc/src/pic14/gen.c:1907:assignResultValue *{*
;; ***	assignResultValue  1909
;; 	line = 1911 result -=-, size=0, left AOP_REG=r0x105B, size=1, right -=-, size=0
;; >>> /home/sdcc-builder/build/sdcc-build/orig/sdcc/src/pic14/gen.c:1393:movwf
;;	1109 rIdx = r0x105B 
	.line	83; "SSD.c"	void SSD_SetSymbol(tSSD ssd,tSSD_Symbol ssdSymbol)
	BANKSEL	r0x100B
	MOVWF	r0x100B
;;; /home/sdcc-builder/build/sdcc-build/orig/sdcc/src/pic14/gen.c:2316:resultRemat *{*
;;; /home/sdcc-builder/build/sdcc-build/orig/sdcc/src/pic14/gen.c:7358:genReceive *{*
;; ***	genReceive  7359
;;	694 register type nRegs=1
;;; /home/sdcc-builder/build/sdcc-build/orig/sdcc/src/pic14/gen.c:1907:assignResultValue *{*
;; ***	assignResultValue  1909
;; 	line = 1911 result -=-, size=0, left AOP_REG=r0x105C, size=1, right -=-, size=0
;; >>> /home/sdcc-builder/build/sdcc-build/orig/sdcc/src/pic14/gen.c:1423:get_returnvalue
;; ***	popRegFromIdx,1042  , rIdx=0x7f
	MOVF	STK00,W
;; >>> /home/sdcc-builder/build/sdcc-build/orig/sdcc/src/pic14/gen.c:1393:movwf
;;	1109 rIdx = r0x105C 
	MOVWF	r0x100C
;;; /home/sdcc-builder/build/sdcc-build/orig/sdcc/src/pic14/gen.c:2316:resultRemat *{*
;;; /home/sdcc-builder/build/sdcc-build/orig/sdcc/src/pic14/gen.c:2316:resultRemat *{*
;;; /home/sdcc-builder/build/sdcc-build/orig/sdcc/src/pic14/gen.c:2878:genMult *{*
;; ***	genMult  2880
;;	694 register type nRegs=1
;;	694 register type nRegs=2
;; 	line = 2886 result AOP_REG=r0x105D, size=2, left AOP_REG=r0x105B, size=1, right AOP_LIT=0x02, size=1
;;; /home/sdcc-builder/build/sdcc-build/orig/sdcc/src/pic14/gen.c:2816:genMultOneByte *{*
;; ***	genMultOneByte  2818
;; 	line = 2819 result AOP_REG=r0x105D, size=2, left AOP_REG=r0x105B, size=1, right AOP_LIT=0x02, size=1
;; 	line = 2820, signs: result AOP_REG=u, left AOP_REG=u, right AOP_LIT=u
;; ***	mov2w  1381  offset=0
;; >>> /home/sdcc-builder/build/sdcc-build/orig/sdcc/src/pic14/gen.c:1384:mov2w
	.line	85; "SSD.c"	SSD_IN_SYSTEM[ssd].DssdSymbol = ssdSymbol ;
	MOVLW	0x02
;; >>> /home/sdcc-builder/build/sdcc-build/orig/sdcc/src/pic14/gen.c:2840:genMultOneByte
;; ***	popRegFromIdx,1042  , rIdx=0x7f
	MOVWF	STK00
;; ***	mov2w  1381  offset=0
;; >>> /home/sdcc-builder/build/sdcc-build/orig/sdcc/src/pic14/gen.c:1386:mov2w
;;	1109 rIdx = r0x105B 
	MOVF	r0x100B,W
;; >>> /home/sdcc-builder/build/sdcc-build/orig/sdcc/src/pic14/gen.c:1433:call_libraryfunc
	PAGESEL	__mulchar
;; >>> /home/sdcc-builder/build/sdcc-build/orig/sdcc/src/pic14/gen.c:1435:call_libraryfunc
	CALL	__mulchar
;; >>> /home/sdcc-builder/build/sdcc-build/orig/sdcc/src/pic14/gen.c:1437:call_libraryfunc
	PAGESEL	$
;; >>> /home/sdcc-builder/build/sdcc-build/orig/sdcc/src/pic14/gen.c:1393:movwf
;;	1109 rIdx = r0x105D 
	BANKSEL	r0x100D
	MOVWF	r0x100D
;; ***	addSign  861
;;; /home/sdcc-builder/build/sdcc-build/orig/sdcc/src/pic14/genarith.c:862:addSign *{*
;; >>> /home/sdcc-builder/build/sdcc-build/orig/sdcc/src/pic14/genarith.c:881:addSign
;;	1109 rIdx = r0x105E 
	CLRF	r0x100E
;;; /home/sdcc-builder/build/sdcc-build/orig/sdcc/src/pic14/gen.c:2316:resultRemat *{*
;; ***	genPlus  611
;;; /home/sdcc-builder/build/sdcc-build/orig/sdcc/src/pic14/genarith.c:612:genPlus *{*
;;	613
;;	aopForRemat 392
;;	418: rname _SSD_IN_SYSTEM, val 0, const = 0
;;	694 register type nRegs=2
;;	694 register type nRegs=2
;;	833: aopGet AOP_PCODE type PO_IMMEDIATE
;;	_SSD_IN_SYSTEM
;; 	line = 618 result AOP_REG=r0x105B, size=2, left AOP_PCODE=_SSD_IN_SYSTEM, size=2, right AOP_REG=r0x105D, size=2
;;; /home/sdcc-builder/build/sdcc-build/orig/sdcc/src/pic14/genarith.c:142:genPlusIncr *{*
;; ***	genPlusIncr  144
;; 	result AOP_REG, left AOP_PCODE, right AOP_REG
;; ***	genPlus  717
;;	833: aopGet AOP_PCODE type PO_IMMEDIATE
;;	_SSD_IN_SYSTEM
;; >>> /home/sdcc-builder/build/sdcc-build/orig/sdcc/src/pic14/genarith.c:726:genPlus
;;	1109 rIdx = r0x105D 
	MOVF	r0x100D,W
;; >>> /home/sdcc-builder/build/sdcc-build/orig/sdcc/src/pic14/genarith.c:735:genPlus
	ADDLW	(_SSD_IN_SYSTEM + 0)
;; >>> /home/sdcc-builder/build/sdcc-build/orig/sdcc/src/pic14/genarith.c:736:genPlus
;;	1109 rIdx = r0x105B 
	MOVWF	r0x100B
;; >>> /home/sdcc-builder/build/sdcc-build/orig/sdcc/src/pic14/genarith.c:771:genPlus
	MOVLW	high (_SSD_IN_SYSTEM + 0)
;; >>> /home/sdcc-builder/build/sdcc-build/orig/sdcc/src/pic14/genarith.c:772:genPlus
;;	1109 rIdx = r0x105F 
	MOVWF	r0x100F
;; >>> /home/sdcc-builder/build/sdcc-build/orig/sdcc/src/pic14/genarith.c:774:genPlus
;;	1109 rIdx = r0x105E 
	MOVLW	0x00
;; >>> /home/sdcc-builder/build/sdcc-build/orig/sdcc/src/pic14/genarith.c:775:genPlus
	BTFSC	STATUS,0
;; >>> /home/sdcc-builder/build/sdcc-build/orig/sdcc/src/pic14/genarith.c:776:genPlus
;;	1109 rIdx = r0x105E 
	INCFSZ	r0x100E,W
;; >>> /home/sdcc-builder/build/sdcc-build/orig/sdcc/src/pic14/genarith.c:777:genPlus
;;	1109 rIdx = r0x105F 
	ADDWF	r0x100F,F
;;; /home/sdcc-builder/build/sdcc-build/orig/sdcc/src/pic14/gen.c:2316:resultRemat *{*
;; ***	genPlus  611
;;; /home/sdcc-builder/build/sdcc-build/orig/sdcc/src/pic14/genarith.c:612:genPlus *{*
;;	694 register type nRegs=2
;;	694 register type nRegs=2
;; 	line = 618 result AOP_REG=r0x105B, size=2, left AOP_REG=r0x105B, size=2, right AOP_LIT=0x01, size=1
;;; /home/sdcc-builder/build/sdcc-build/orig/sdcc/src/pic14/genarith.c:142:genPlusIncr *{*
;; ***	genPlusIncr  144
;; 	result AOP_REG, left AOP_REG, right AOP_LIT
;; 	genPlusIncr  156
;; >>> /home/sdcc-builder/build/sdcc-build/orig/sdcc/src/pic14/genarith.c:168:genPlusIncr
;;	1109 rIdx = r0x105B 
	INCF	r0x100B,F
;; >>> /home/sdcc-builder/build/sdcc-build/orig/sdcc/src/pic14/genarith.c:172:genPlusIncr
	BTFSC	STATUS,2
;; >>> /home/sdcc-builder/build/sdcc-build/orig/sdcc/src/pic14/genarith.c:173:genPlusIncr
;;	1109 rIdx = r0x105F 
	INCF	r0x100F,F
;;; /home/sdcc-builder/build/sdcc-build/orig/sdcc/src/pic14/gen.c:2316:resultRemat *{*
;;; /home/sdcc-builder/build/sdcc-build/orig/sdcc/src/pic14/gen.c:6686:genPointerSet *{*
;; ***	genPointerSet  6687
;;; /home/sdcc-builder/build/sdcc-build/orig/sdcc/src/pic14/gen.c:6505:genNearPointerSet *{*
;; ***	genNearPointerSet  6506
;;	694 register type nRegs=2
;; ***	genNearPointerSet  6521
;;	694 register type nRegs=1
;; 	line = 6523 result AOP_REG=r0x105B, size=2, left -=-, size=0, right AOP_REG=r0x105C, size=1
;;; /home/sdcc-builder/build/sdcc-build/orig/sdcc/src/pic14/gen.c:1343:mov2w_op *{*
;; ***	mov2w  1381  offset=0
;; >>> /home/sdcc-builder/build/sdcc-build/orig/sdcc/src/pic14/gen.c:1386:mov2w
;;	1109 rIdx = r0x105B 
	MOVF	r0x100B,W
;; >>> /home/sdcc-builder/build/sdcc-build/orig/sdcc/src/pic14/gen.c:5602:setup_fsr
	BANKSEL	FSR
	MOVWF	FSR
;;; /home/sdcc-builder/build/sdcc-build/orig/sdcc/src/pic14/gen.c:5553:SetIrp *{*
;; >>> /home/sdcc-builder/build/sdcc-build/orig/sdcc/src/pic14/gen.c:5580:SetIrp
	BCF	STATUS,7
;; >>> /home/sdcc-builder/build/sdcc-build/orig/sdcc/src/pic14/gen.c:5583:SetIrp
	BANKSEL	r0x100F
	BTFSC	r0x100F,0
;; >>> /home/sdcc-builder/build/sdcc-build/orig/sdcc/src/pic14/gen.c:5584:SetIrp
	BSF	STATUS,7
;; ***	genNearPointerSet  6548
;; >>> /home/sdcc-builder/build/sdcc-build/orig/sdcc/src/pic14/gen.c:6564:genNearPointerSet
;;	1109 rIdx = r0x105C 
	MOVF	r0x100C,W
;; >>> /home/sdcc-builder/build/sdcc-build/orig/sdcc/src/pic14/gen.c:6569:genNearPointerSet
	BANKSEL	INDF
	MOVWF	INDF
;; ***	genNearPointerSet  6577
;; ***	genNearPointerSet  6603
;;; /home/sdcc-builder/build/sdcc-build/orig/sdcc/src/pic14/gen.c:2316:resultRemat *{*
;;; /home/sdcc-builder/build/sdcc-build/orig/sdcc/src/pic14/gen.c:2760:genLabel *{*
;; ***	genLabel  2763
;;; /home/sdcc-builder/build/sdcc-build/orig/sdcc/src/pic14/gen.c:2316:resultRemat *{*
;;; /home/sdcc-builder/build/sdcc-build/orig/sdcc/src/pic14/gen.c:2528:genEndFunction *{*
;; ***	genEndFunction  2530
	RETURN	
; exit point of _SSD_SetSymbol
;;; /home/sdcc-builder/build/sdcc-build/orig/sdcc/src/pic14/gen.c:7426:genpic14Code *{*

;***
;  pBlock Stats: dbName = C
;***
;entry:  _SSD_SetState	;Function start
; 2 exit points
;has an exit
;functions called:
;   __mulchar
;   __mulchar
;6 compiler assigned registers:
;   r0x1010
;   STK00
;   r0x1011
;   r0x1012
;   r0x1013
;   r0x1014
;; Starting pCode block
;;; /home/sdcc-builder/build/sdcc-build/orig/sdcc/src/pic14/gen.c:2316:resultRemat *{*
;;; /home/sdcc-builder/build/sdcc-build/orig/sdcc/src/pic14/gen.c:2760:genLabel *{*
;; ***	genLabel  2763
;;; /home/sdcc-builder/build/sdcc-build/orig/sdcc/src/pic14/gen.c:2316:resultRemat *{*
;;; /home/sdcc-builder/build/sdcc-build/orig/sdcc/src/pic14/gen.c:2340:genFunction *{*
;; ***	genFunction  2342 curr label offset=20previous max_key=24 
_SSD_SetState	;Function start
; 2 exit points
;;; /home/sdcc-builder/build/sdcc-build/orig/sdcc/src/pic14/gen.c:2316:resultRemat *{*
;;; /home/sdcc-builder/build/sdcc-build/orig/sdcc/src/pic14/gen.c:7358:genReceive *{*
;; ***	genReceive  7359
;;	694 register type nRegs=1
;;; /home/sdcc-builder/build/sdcc-build/orig/sdcc/src/pic14/gen.c:1907:assignResultValue *{*
;; ***	assignResultValue  1909
;; 	line = 1911 result -=-, size=0, left AOP_REG=r0x1056, size=1, right -=-, size=0
;; >>> /home/sdcc-builder/build/sdcc-build/orig/sdcc/src/pic14/gen.c:1393:movwf
;;	1109 rIdx = r0x1056 
	.line	79; "SSD.c"	void SSD_SetState(tSSD ssd,tSSD_State ssdState)
	BANKSEL	r0x1010
	MOVWF	r0x1010
;;; /home/sdcc-builder/build/sdcc-build/orig/sdcc/src/pic14/gen.c:2316:resultRemat *{*
;;; /home/sdcc-builder/build/sdcc-build/orig/sdcc/src/pic14/gen.c:7358:genReceive *{*
;; ***	genReceive  7359
;;	694 register type nRegs=1
;;; /home/sdcc-builder/build/sdcc-build/orig/sdcc/src/pic14/gen.c:1907:assignResultValue *{*
;; ***	assignResultValue  1909
;; 	line = 1911 result -=-, size=0, left AOP_REG=r0x1057, size=1, right -=-, size=0
;; >>> /home/sdcc-builder/build/sdcc-build/orig/sdcc/src/pic14/gen.c:1423:get_returnvalue
;; ***	popRegFromIdx,1042  , rIdx=0x7f
	MOVF	STK00,W
;; >>> /home/sdcc-builder/build/sdcc-build/orig/sdcc/src/pic14/gen.c:1393:movwf
;;	1109 rIdx = r0x1057 
	MOVWF	r0x1011
;;; /home/sdcc-builder/build/sdcc-build/orig/sdcc/src/pic14/gen.c:2316:resultRemat *{*
;;; /home/sdcc-builder/build/sdcc-build/orig/sdcc/src/pic14/gen.c:2316:resultRemat *{*
;;; /home/sdcc-builder/build/sdcc-build/orig/sdcc/src/pic14/gen.c:2878:genMult *{*
;; ***	genMult  2880
;;	694 register type nRegs=1
;;	694 register type nRegs=2
;; 	line = 2886 result AOP_REG=r0x1058, size=2, left AOP_REG=r0x1056, size=1, right AOP_LIT=0x02, size=1
;;; /home/sdcc-builder/build/sdcc-build/orig/sdcc/src/pic14/gen.c:2816:genMultOneByte *{*
;; ***	genMultOneByte  2818
;; 	line = 2819 result AOP_REG=r0x1058, size=2, left AOP_REG=r0x1056, size=1, right AOP_LIT=0x02, size=1
;; 	line = 2820, signs: result AOP_REG=u, left AOP_REG=u, right AOP_LIT=u
;; ***	mov2w  1381  offset=0
;; >>> /home/sdcc-builder/build/sdcc-build/orig/sdcc/src/pic14/gen.c:1384:mov2w
	.line	81; "SSD.c"	SSD_IN_SYSTEM[ssd].DssdState = ssdState ;
	MOVLW	0x02
;; >>> /home/sdcc-builder/build/sdcc-build/orig/sdcc/src/pic14/gen.c:2840:genMultOneByte
;; ***	popRegFromIdx,1042  , rIdx=0x7f
	MOVWF	STK00
;; ***	mov2w  1381  offset=0
;; >>> /home/sdcc-builder/build/sdcc-build/orig/sdcc/src/pic14/gen.c:1386:mov2w
;;	1109 rIdx = r0x1056 
	MOVF	r0x1010,W
;; >>> /home/sdcc-builder/build/sdcc-build/orig/sdcc/src/pic14/gen.c:1433:call_libraryfunc
	PAGESEL	__mulchar
;; >>> /home/sdcc-builder/build/sdcc-build/orig/sdcc/src/pic14/gen.c:1435:call_libraryfunc
	CALL	__mulchar
;; >>> /home/sdcc-builder/build/sdcc-build/orig/sdcc/src/pic14/gen.c:1437:call_libraryfunc
	PAGESEL	$
;; >>> /home/sdcc-builder/build/sdcc-build/orig/sdcc/src/pic14/gen.c:1393:movwf
;;	1109 rIdx = r0x1058 
	BANKSEL	r0x1012
	MOVWF	r0x1012
;; ***	addSign  861
;;; /home/sdcc-builder/build/sdcc-build/orig/sdcc/src/pic14/genarith.c:862:addSign *{*
;; >>> /home/sdcc-builder/build/sdcc-build/orig/sdcc/src/pic14/genarith.c:881:addSign
;;	1109 rIdx = r0x1059 
	CLRF	r0x1013
;;; /home/sdcc-builder/build/sdcc-build/orig/sdcc/src/pic14/gen.c:2316:resultRemat *{*
;; ***	genPlus  611
;;; /home/sdcc-builder/build/sdcc-build/orig/sdcc/src/pic14/genarith.c:612:genPlus *{*
;;	613
;;	aopForRemat 392
;;	418: rname _SSD_IN_SYSTEM, val 0, const = 0
;;	694 register type nRegs=2
;;	694 register type nRegs=2
;;	833: aopGet AOP_PCODE type PO_IMMEDIATE
;;	_SSD_IN_SYSTEM
;; 	line = 618 result AOP_REG=r0x1056, size=2, left AOP_PCODE=_SSD_IN_SYSTEM, size=2, right AOP_REG=r0x1058, size=2
;;; /home/sdcc-builder/build/sdcc-build/orig/sdcc/src/pic14/genarith.c:142:genPlusIncr *{*
;; ***	genPlusIncr  144
;; 	result AOP_REG, left AOP_PCODE, right AOP_REG
;; ***	genPlus  717
;;	833: aopGet AOP_PCODE type PO_IMMEDIATE
;;	_SSD_IN_SYSTEM
;; >>> /home/sdcc-builder/build/sdcc-build/orig/sdcc/src/pic14/genarith.c:726:genPlus
;;	1109 rIdx = r0x1058 
	MOVF	r0x1012,W
;; >>> /home/sdcc-builder/build/sdcc-build/orig/sdcc/src/pic14/genarith.c:735:genPlus
	ADDLW	(_SSD_IN_SYSTEM + 0)
;; >>> /home/sdcc-builder/build/sdcc-build/orig/sdcc/src/pic14/genarith.c:736:genPlus
;;	1109 rIdx = r0x1056 
	MOVWF	r0x1010
;; >>> /home/sdcc-builder/build/sdcc-build/orig/sdcc/src/pic14/genarith.c:771:genPlus
	MOVLW	high (_SSD_IN_SYSTEM + 0)
;; >>> /home/sdcc-builder/build/sdcc-build/orig/sdcc/src/pic14/genarith.c:772:genPlus
;;	1109 rIdx = r0x105A 
	MOVWF	r0x1014
;; >>> /home/sdcc-builder/build/sdcc-build/orig/sdcc/src/pic14/genarith.c:774:genPlus
;;	1109 rIdx = r0x1059 
	MOVLW	0x00
;; >>> /home/sdcc-builder/build/sdcc-build/orig/sdcc/src/pic14/genarith.c:775:genPlus
	BTFSC	STATUS,0
;; >>> /home/sdcc-builder/build/sdcc-build/orig/sdcc/src/pic14/genarith.c:776:genPlus
;;	1109 rIdx = r0x1059 
	INCFSZ	r0x1013,W
;; >>> /home/sdcc-builder/build/sdcc-build/orig/sdcc/src/pic14/genarith.c:777:genPlus
;;	1109 rIdx = r0x105A 
	ADDWF	r0x1014,F
;;; /home/sdcc-builder/build/sdcc-build/orig/sdcc/src/pic14/gen.c:2316:resultRemat *{*
;;; /home/sdcc-builder/build/sdcc-build/orig/sdcc/src/pic14/gen.c:6686:genPointerSet *{*
;; ***	genPointerSet  6687
;;; /home/sdcc-builder/build/sdcc-build/orig/sdcc/src/pic14/gen.c:6505:genNearPointerSet *{*
;; ***	genNearPointerSet  6506
;;	694 register type nRegs=2
;; ***	genNearPointerSet  6521
;;	694 register type nRegs=1
;; 	line = 6523 result AOP_REG=r0x1056, size=2, left -=-, size=0, right AOP_REG=r0x1057, size=1
;;; /home/sdcc-builder/build/sdcc-build/orig/sdcc/src/pic14/gen.c:1343:mov2w_op *{*
;; ***	mov2w  1381  offset=0
;; >>> /home/sdcc-builder/build/sdcc-build/orig/sdcc/src/pic14/gen.c:1386:mov2w
;;	1109 rIdx = r0x1056 
	MOVF	r0x1010,W
;; >>> /home/sdcc-builder/build/sdcc-build/orig/sdcc/src/pic14/gen.c:5602:setup_fsr
	BANKSEL	FSR
	MOVWF	FSR
;;; /home/sdcc-builder/build/sdcc-build/orig/sdcc/src/pic14/gen.c:5553:SetIrp *{*
;; >>> /home/sdcc-builder/build/sdcc-build/orig/sdcc/src/pic14/gen.c:5580:SetIrp
	BCF	STATUS,7
;; >>> /home/sdcc-builder/build/sdcc-build/orig/sdcc/src/pic14/gen.c:5583:SetIrp
	BANKSEL	r0x1014
	BTFSC	r0x1014,0
;; >>> /home/sdcc-builder/build/sdcc-build/orig/sdcc/src/pic14/gen.c:5584:SetIrp
	BSF	STATUS,7
;; ***	genNearPointerSet  6548
;; >>> /home/sdcc-builder/build/sdcc-build/orig/sdcc/src/pic14/gen.c:6564:genNearPointerSet
;;	1109 rIdx = r0x1057 
	MOVF	r0x1011,W
;; >>> /home/sdcc-builder/build/sdcc-build/orig/sdcc/src/pic14/gen.c:6569:genNearPointerSet
	BANKSEL	INDF
	MOVWF	INDF
;; ***	genNearPointerSet  6577
;; ***	genNearPointerSet  6603
;;; /home/sdcc-builder/build/sdcc-build/orig/sdcc/src/pic14/gen.c:2316:resultRemat *{*
;;; /home/sdcc-builder/build/sdcc-build/orig/sdcc/src/pic14/gen.c:2760:genLabel *{*
;; ***	genLabel  2763
;;; /home/sdcc-builder/build/sdcc-build/orig/sdcc/src/pic14/gen.c:2316:resultRemat *{*
;;; /home/sdcc-builder/build/sdcc-build/orig/sdcc/src/pic14/gen.c:2528:genEndFunction *{*
;; ***	genEndFunction  2530
	RETURN	
; exit point of _SSD_SetState
;;; /home/sdcc-builder/build/sdcc-build/orig/sdcc/src/pic14/gen.c:7426:genpic14Code *{*

;***
;  pBlock Stats: dbName = C
;***
;entry:  _SSD_Update	;Function start
; 2 exit points
;has an exit
;functions called:
;   _TurnAllOff
;   __mulchar
;   _GPIO_SetPortState
;   _GPIO_SetPinState
;   _GPIO_SetPinState
;   _GPIO_SetPinState
;   _GPIO_SetPinState
;   _Delay_ms
;   _TurnAllOff
;   __mulchar
;   _GPIO_SetPortState
;   _GPIO_SetPinState
;   _GPIO_SetPinState
;   _GPIO_SetPinState
;   _GPIO_SetPinState
;   _Delay_ms
;8 compiler assigned registers:
;   r0x1015
;   STK00
;   r0x1016
;   r0x1017
;   r0x1018
;   r0x1019
;   r0x101A
;   STK01
;; Starting pCode block
;;; /home/sdcc-builder/build/sdcc-build/orig/sdcc/src/pic14/gen.c:2316:resultRemat *{*
;;; /home/sdcc-builder/build/sdcc-build/orig/sdcc/src/pic14/gen.c:2760:genLabel *{*
;; ***	genLabel  2763
;;; /home/sdcc-builder/build/sdcc-build/orig/sdcc/src/pic14/gen.c:2316:resultRemat *{*
;;; /home/sdcc-builder/build/sdcc-build/orig/sdcc/src/pic14/gen.c:2340:genFunction *{*
;; ***	genFunction  2342 curr label offset=4previous max_key=12 
_SSD_Update	;Function start
; 2 exit points
;;; /home/sdcc-builder/build/sdcc-build/orig/sdcc/src/pic14/gen.c:2316:resultRemat *{*
;;; /home/sdcc-builder/build/sdcc-build/orig/sdcc/src/pic14/gen.c:2316:resultRemat *{*
;;; /home/sdcc-builder/build/sdcc-build/orig/sdcc/src/pic14/gen.c:2316:resultRemat *{*
;;; /home/sdcc-builder/build/sdcc-build/orig/sdcc/src/pic14/gen.c:6927:genAssign *{*
;; ***	genAssign  6928
;;	694 register type nRegs=1
;; 	line = 6937 result AOP_REG=r0x104F, size=1, left -=-, size=0, right AOP_LIT=0x00, size=1
;; ***	genAssign  7023
;; >>> /home/sdcc-builder/build/sdcc-build/orig/sdcc/src/pic14/gen.c:7035:genAssign
;;	1109 rIdx = r0x104F 
	.line	54; "SSD.c"	for(ssdIterator = SSD_L ;ssdIterator <= SSD_R ;ssdIterator ++ )
	BANKSEL	r0x1015
	CLRF	r0x1015
;;; /home/sdcc-builder/build/sdcc-build/orig/sdcc/src/pic14/gen.c:2316:resultRemat *{*
;;; /home/sdcc-builder/build/sdcc-build/orig/sdcc/src/pic14/gen.c:2760:genLabel *{*
;; ***	genLabel  2763
;;; /home/sdcc-builder/build/sdcc-build/orig/sdcc/src/pic14/gen.c:2316:resultRemat *{*
;;; /home/sdcc-builder/build/sdcc-build/orig/sdcc/src/pic14/gen.c:2086:genCall *{*
;; ***	genCall  2088
;;; /home/sdcc-builder/build/sdcc-build/orig/sdcc/src/pic14/gen.c:1801:saveRegisters *{*
;; ***	saveRegisters  1803
;; >>> /home/sdcc-builder/build/sdcc-build/orig/sdcc/src/pic14/gen.c:2175:genCall
_00129_DS_
	.line	56; "SSD.c"	TurnAllOff() ;
	CALL	_TurnAllOff
;;; /home/sdcc-builder/build/sdcc-build/orig/sdcc/src/pic14/gen.c:1845:unsaveRegisters *{*
;; ***	unsaveRegisters  1847
;;; /home/sdcc-builder/build/sdcc-build/orig/sdcc/src/pic14/gen.c:2316:resultRemat *{*
;;; /home/sdcc-builder/build/sdcc-build/orig/sdcc/src/pic14/gen.c:2878:genMult *{*
;; ***	genMult  2880
;;	694 register type nRegs=1
;;	694 register type nRegs=2
;; 	line = 2886 result AOP_REG=r0x1050, size=2, left AOP_REG=r0x104F, size=1, right AOP_LIT=0x02, size=1
;;; /home/sdcc-builder/build/sdcc-build/orig/sdcc/src/pic14/gen.c:2816:genMultOneByte *{*
;; ***	genMultOneByte  2818
;; 	line = 2819 result AOP_REG=r0x1050, size=2, left AOP_REG=r0x104F, size=1, right AOP_LIT=0x02, size=1
;; 	line = 2820, signs: result AOP_REG=u, left AOP_REG=u, right AOP_LIT=u
;; ***	mov2w  1381  offset=0
;; >>> /home/sdcc-builder/build/sdcc-build/orig/sdcc/src/pic14/gen.c:1384:mov2w
	.line	57; "SSD.c"	if(SSD_IN_SYSTEM[ssdIterator].DssdState == SSD_ON)
	MOVLW	0x02
;; >>> /home/sdcc-builder/build/sdcc-build/orig/sdcc/src/pic14/gen.c:2840:genMultOneByte
;; ***	popRegFromIdx,1042  , rIdx=0x7f
	MOVWF	STK00
;; ***	mov2w  1381  offset=0
;; >>> /home/sdcc-builder/build/sdcc-build/orig/sdcc/src/pic14/gen.c:1386:mov2w
;;	1109 rIdx = r0x104F 
	BANKSEL	r0x1015
	MOVF	r0x1015,W
;; >>> /home/sdcc-builder/build/sdcc-build/orig/sdcc/src/pic14/gen.c:1433:call_libraryfunc
	PAGESEL	__mulchar
;; >>> /home/sdcc-builder/build/sdcc-build/orig/sdcc/src/pic14/gen.c:1435:call_libraryfunc
	CALL	__mulchar
;; >>> /home/sdcc-builder/build/sdcc-build/orig/sdcc/src/pic14/gen.c:1437:call_libraryfunc
	PAGESEL	$
;; >>> /home/sdcc-builder/build/sdcc-build/orig/sdcc/src/pic14/gen.c:1393:movwf
;;	1109 rIdx = r0x1050 
	BANKSEL	r0x1016
	MOVWF	r0x1016
;; ***	addSign  861
;;; /home/sdcc-builder/build/sdcc-build/orig/sdcc/src/pic14/genarith.c:862:addSign *{*
;; >>> /home/sdcc-builder/build/sdcc-build/orig/sdcc/src/pic14/genarith.c:881:addSign
;;	1109 rIdx = r0x1051 
	CLRF	r0x1017
;;; /home/sdcc-builder/build/sdcc-build/orig/sdcc/src/pic14/gen.c:2316:resultRemat *{*
;; ***	genPlus  611
;;; /home/sdcc-builder/build/sdcc-build/orig/sdcc/src/pic14/genarith.c:612:genPlus *{*
;;	613
;;	aopForRemat 392
;;	418: rname _SSD_IN_SYSTEM, val 0, const = 0
;;	694 register type nRegs=2
;;	694 register type nRegs=2
;;	833: aopGet AOP_PCODE type PO_IMMEDIATE
;;	_SSD_IN_SYSTEM
;; 	line = 618 result AOP_REG=r0x1052, size=2, left AOP_PCODE=_SSD_IN_SYSTEM, size=2, right AOP_REG=r0x1050, size=2
;;; /home/sdcc-builder/build/sdcc-build/orig/sdcc/src/pic14/genarith.c:142:genPlusIncr *{*
;; ***	genPlusIncr  144
;; 	result AOP_REG, left AOP_PCODE, right AOP_REG
;; ***	genPlus  717
;;	833: aopGet AOP_PCODE type PO_IMMEDIATE
;;	_SSD_IN_SYSTEM
;; >>> /home/sdcc-builder/build/sdcc-build/orig/sdcc/src/pic14/genarith.c:726:genPlus
;;	1109 rIdx = r0x1050 
	MOVF	r0x1016,W
;; >>> /home/sdcc-builder/build/sdcc-build/orig/sdcc/src/pic14/genarith.c:735:genPlus
	ADDLW	(_SSD_IN_SYSTEM + 0)
;; >>> /home/sdcc-builder/build/sdcc-build/orig/sdcc/src/pic14/genarith.c:736:genPlus
;;	1109 rIdx = r0x1052 
	MOVWF	r0x1018
;; >>> /home/sdcc-builder/build/sdcc-build/orig/sdcc/src/pic14/genarith.c:771:genPlus
	MOVLW	high (_SSD_IN_SYSTEM + 0)
;; >>> /home/sdcc-builder/build/sdcc-build/orig/sdcc/src/pic14/genarith.c:772:genPlus
;;	1109 rIdx = r0x1053 
	MOVWF	r0x1019
;; >>> /home/sdcc-builder/build/sdcc-build/orig/sdcc/src/pic14/genarith.c:774:genPlus
;;	1109 rIdx = r0x1051 
	MOVLW	0x00
;; >>> /home/sdcc-builder/build/sdcc-build/orig/sdcc/src/pic14/genarith.c:775:genPlus
	BTFSC	STATUS,0
;; >>> /home/sdcc-builder/build/sdcc-build/orig/sdcc/src/pic14/genarith.c:776:genPlus
;;	1109 rIdx = r0x1051 
	INCFSZ	r0x1017,W
;; >>> /home/sdcc-builder/build/sdcc-build/orig/sdcc/src/pic14/genarith.c:777:genPlus
;;	1109 rIdx = r0x1053 
	ADDWF	r0x1019,F
;;; /home/sdcc-builder/build/sdcc-build/orig/sdcc/src/pic14/gen.c:2316:resultRemat *{*
;;; /home/sdcc-builder/build/sdcc-build/orig/sdcc/src/pic14/gen.c:6162:genPointerGet *{*
;; ***	genPointerGet  6163
;;; /home/sdcc-builder/build/sdcc-build/orig/sdcc/src/pic14/gen.c:5944:genNearPointerGet *{*
;; ***	genNearPointerGet  5945
;;	694 register type nRegs=2
;; ***	genNearPointerGet  5961
;;	694 register type nRegs=1
;;; /home/sdcc-builder/build/sdcc-build/orig/sdcc/src/pic14/gen.c:1343:mov2w_op *{*
;; ***	mov2w  1381  offset=0
;; >>> /home/sdcc-builder/build/sdcc-build/orig/sdcc/src/pic14/gen.c:1386:mov2w
;;	1109 rIdx = r0x1052 
	MOVF	r0x1018,W
;; >>> /home/sdcc-builder/build/sdcc-build/orig/sdcc/src/pic14/gen.c:5602:setup_fsr
	BANKSEL	FSR
	MOVWF	FSR
;;; /home/sdcc-builder/build/sdcc-build/orig/sdcc/src/pic14/gen.c:5553:SetIrp *{*
;; >>> /home/sdcc-builder/build/sdcc-build/orig/sdcc/src/pic14/gen.c:5580:SetIrp
	BCF	STATUS,7
;; >>> /home/sdcc-builder/build/sdcc-build/orig/sdcc/src/pic14/gen.c:5583:SetIrp
	BANKSEL	r0x1019
	BTFSC	r0x1019,0
;; >>> /home/sdcc-builder/build/sdcc-build/orig/sdcc/src/pic14/gen.c:5584:SetIrp
	BSF	STATUS,7
;; ***	genNearPointerGet  5988
;; >>> /home/sdcc-builder/build/sdcc-build/orig/sdcc/src/pic14/gen.c:5995:genNearPointerGet
	BANKSEL	INDF
	MOVF	INDF,W
;; >>> /home/sdcc-builder/build/sdcc-build/orig/sdcc/src/pic14/gen.c:6002:genNearPointerGet
;;	1109 rIdx = r0x1054 
;;1	MOVWF	r0x101A
	XORLW	0x01
;; >>> /home/sdcc-builder/build/sdcc-build/orig/sdcc/src/pic14/gen.c:3687:genCmpEq
	BTFSS	STATUS,2
;; >>> /home/sdcc-builder/build/sdcc-build/orig/sdcc/src/pic14/gen.c:3690:genCmpEq
;; ***	popGetLabel  key=10, label offset 20
	GOTO	_00130_DS_
;;; /home/sdcc-builder/build/sdcc-build/orig/sdcc/src/pic14/gen.c:2316:resultRemat *{*
;;; /home/sdcc-builder/build/sdcc-build/orig/sdcc/src/pic14/gen.c:2316:resultRemat *{*
;; ***	genPlus  611
;;; /home/sdcc-builder/build/sdcc-build/orig/sdcc/src/pic14/genarith.c:612:genPlus *{*
;;	613
;;	aopForRemat 392
;;	418: rname _SSD_IN_SYSTEM, val 0, const = 0
;;	694 register type nRegs=2
;;	694 register type nRegs=2
;;	833: aopGet AOP_PCODE type PO_IMMEDIATE
;;	_SSD_IN_SYSTEM
;; 	line = 618 result AOP_REG=r0x1050, size=2, left AOP_PCODE=_SSD_IN_SYSTEM, size=2, right AOP_REG=r0x1050, size=2
;;; /home/sdcc-builder/build/sdcc-build/orig/sdcc/src/pic14/genarith.c:142:genPlusIncr *{*
;; ***	genPlusIncr  144
;; 	result AOP_REG, left AOP_PCODE, right AOP_REG
;; ***	genPlus  717
;;	833: aopGet AOP_PCODE type PO_IMMEDIATE
;;	_SSD_IN_SYSTEM
;; >>> /home/sdcc-builder/build/sdcc-build/orig/sdcc/src/pic14/genarith.c:726:genPlus
;;	1109 rIdx = r0x1050 
	.line	59; "SSD.c"	GPIO_SetPortState(PORT_D, ssd_data[SSD_IN_SYSTEM[ssdIterator].DssdSymbol]) ;
	BANKSEL	r0x1016
	MOVF	r0x1016,W
;; >>> /home/sdcc-builder/build/sdcc-build/orig/sdcc/src/pic14/genarith.c:735:genPlus
	ADDLW	(_SSD_IN_SYSTEM + 0)
;; >>> /home/sdcc-builder/build/sdcc-build/orig/sdcc/src/pic14/genarith.c:736:genPlus
;;	1109 rIdx = r0x1050 
	MOVWF	r0x1016
;; >>> /home/sdcc-builder/build/sdcc-build/orig/sdcc/src/pic14/genarith.c:749:genPlus
;;	1109 rIdx = r0x1051 
	MOVF	r0x1017,W
;; >>> /home/sdcc-builder/build/sdcc-build/orig/sdcc/src/pic14/genarith.c:750:genPlus
	BTFSC	STATUS,0
;; >>> /home/sdcc-builder/build/sdcc-build/orig/sdcc/src/pic14/genarith.c:751:genPlus
;;	1109 rIdx = r0x1051 
	INCFSZ	r0x1017,W
;; >>> /home/sdcc-builder/build/sdcc-build/orig/sdcc/src/pic14/genarith.c:752:genPlus
	ADDLW	high (_SSD_IN_SYSTEM + 0)
;; >>> /home/sdcc-builder/build/sdcc-build/orig/sdcc/src/pic14/genarith.c:753:genPlus
;;	1109 rIdx = r0x1051 
	MOVWF	r0x1017
;;; /home/sdcc-builder/build/sdcc-build/orig/sdcc/src/pic14/gen.c:2316:resultRemat *{*
;; ***	genPlus  611
;;; /home/sdcc-builder/build/sdcc-build/orig/sdcc/src/pic14/genarith.c:612:genPlus *{*
;;	694 register type nRegs=2
;;	694 register type nRegs=2
;; 	line = 618 result AOP_REG=r0x1050, size=2, left AOP_REG=r0x1050, size=2, right AOP_LIT=0x01, size=1
;;; /home/sdcc-builder/build/sdcc-build/orig/sdcc/src/pic14/genarith.c:142:genPlusIncr *{*
;; ***	genPlusIncr  144
;; 	result AOP_REG, left AOP_REG, right AOP_LIT
;; 	genPlusIncr  156
;; >>> /home/sdcc-builder/build/sdcc-build/orig/sdcc/src/pic14/genarith.c:168:genPlusIncr
;;	1109 rIdx = r0x1050 
	INCF	r0x1016,F
;; >>> /home/sdcc-builder/build/sdcc-build/orig/sdcc/src/pic14/genarith.c:172:genPlusIncr
	BTFSC	STATUS,2
;; >>> /home/sdcc-builder/build/sdcc-build/orig/sdcc/src/pic14/genarith.c:173:genPlusIncr
;;	1109 rIdx = r0x1051 
	INCF	r0x1017,F
;;; /home/sdcc-builder/build/sdcc-build/orig/sdcc/src/pic14/gen.c:2316:resultRemat *{*
;;; /home/sdcc-builder/build/sdcc-build/orig/sdcc/src/pic14/gen.c:6162:genPointerGet *{*
;; ***	genPointerGet  6163
;;; /home/sdcc-builder/build/sdcc-build/orig/sdcc/src/pic14/gen.c:5944:genNearPointerGet *{*
;; ***	genNearPointerGet  5945
;;	694 register type nRegs=2
;; ***	genNearPointerGet  5961
;;	694 register type nRegs=1
;;; /home/sdcc-builder/build/sdcc-build/orig/sdcc/src/pic14/gen.c:1343:mov2w_op *{*
;; ***	mov2w  1381  offset=0
;; >>> /home/sdcc-builder/build/sdcc-build/orig/sdcc/src/pic14/gen.c:1386:mov2w
;;	1109 rIdx = r0x1050 
	MOVF	r0x1016,W
;; >>> /home/sdcc-builder/build/sdcc-build/orig/sdcc/src/pic14/gen.c:5602:setup_fsr
	BANKSEL	FSR
	MOVWF	FSR
;;; /home/sdcc-builder/build/sdcc-build/orig/sdcc/src/pic14/gen.c:5553:SetIrp *{*
;; >>> /home/sdcc-builder/build/sdcc-build/orig/sdcc/src/pic14/gen.c:5580:SetIrp
	BCF	STATUS,7
;; >>> /home/sdcc-builder/build/sdcc-build/orig/sdcc/src/pic14/gen.c:5583:SetIrp
	BANKSEL	r0x1017
	BTFSC	r0x1017,0
;; >>> /home/sdcc-builder/build/sdcc-build/orig/sdcc/src/pic14/gen.c:5584:SetIrp
	BSF	STATUS,7
;; ***	genNearPointerGet  5988
;; >>> /home/sdcc-builder/build/sdcc-build/orig/sdcc/src/pic14/gen.c:5995:genNearPointerGet
	BANKSEL	INDF
	MOVF	INDF,W
;; >>> /home/sdcc-builder/build/sdcc-build/orig/sdcc/src/pic14/gen.c:6002:genNearPointerGet
;;	1109 rIdx = r0x1052 
	BANKSEL	r0x1018
	MOVWF	r0x1018
	ADDLW	(_ssd_data + 0)
;; >>> /home/sdcc-builder/build/sdcc-build/orig/sdcc/src/pic14/genarith.c:736:genPlus
;;	1109 rIdx = r0x1050 
	MOVWF	r0x1016
;; >>> /home/sdcc-builder/build/sdcc-build/orig/sdcc/src/pic14/genarith.c:799:genPlus
	MOVLW	high (_ssd_data + 0)
;; >>> /home/sdcc-builder/build/sdcc-build/orig/sdcc/src/pic14/genarith.c:800:genPlus
	BTFSC	STATUS,0
;; >>> /home/sdcc-builder/build/sdcc-build/orig/sdcc/src/pic14/genarith.c:801:genPlus
	ADDLW	0x01
;; >>> /home/sdcc-builder/build/sdcc-build/orig/sdcc/src/pic14/genarith.c:802:genPlus
;;	1109 rIdx = r0x1051 
	MOVWF	r0x1017
;;; /home/sdcc-builder/build/sdcc-build/orig/sdcc/src/pic14/gen.c:2316:resultRemat *{*
;;; /home/sdcc-builder/build/sdcc-build/orig/sdcc/src/pic14/gen.c:6162:genPointerGet *{*
;; ***	genPointerGet  6163
;;; /home/sdcc-builder/build/sdcc-build/orig/sdcc/src/pic14/gen.c:5944:genNearPointerGet *{*
;; ***	genNearPointerGet  5945
;;	694 register type nRegs=2
;; ***	genNearPointerGet  5961
;;	694 register type nRegs=1
;;; /home/sdcc-builder/build/sdcc-build/orig/sdcc/src/pic14/gen.c:1343:mov2w_op *{*
;; ***	mov2w  1381  offset=0
;; >>> /home/sdcc-builder/build/sdcc-build/orig/sdcc/src/pic14/gen.c:1386:mov2w
;;	1109 rIdx = r0x1050 
	MOVF	r0x1016,W
;; >>> /home/sdcc-builder/build/sdcc-build/orig/sdcc/src/pic14/gen.c:5602:setup_fsr
	BANKSEL	FSR
	MOVWF	FSR
;;; /home/sdcc-builder/build/sdcc-build/orig/sdcc/src/pic14/gen.c:5553:SetIrp *{*
;; >>> /home/sdcc-builder/build/sdcc-build/orig/sdcc/src/pic14/gen.c:5580:SetIrp
	BCF	STATUS,7
;; >>> /home/sdcc-builder/build/sdcc-build/orig/sdcc/src/pic14/gen.c:5583:SetIrp
	BANKSEL	r0x1017
	BTFSC	r0x1017,0
;; >>> /home/sdcc-builder/build/sdcc-build/orig/sdcc/src/pic14/gen.c:5584:SetIrp
	BSF	STATUS,7
;; ***	genNearPointerGet  5988
;; >>> /home/sdcc-builder/build/sdcc-build/orig/sdcc/src/pic14/gen.c:5995:genNearPointerGet
	BANKSEL	INDF
	MOVF	INDF,W
;; >>> /home/sdcc-builder/build/sdcc-build/orig/sdcc/src/pic14/gen.c:6002:genNearPointerGet
;;	1109 rIdx = r0x1052 
	BANKSEL	r0x1018
	MOVWF	r0x1018
	MOVWF	STK00
;;; /home/sdcc-builder/build/sdcc-build/orig/sdcc/src/pic14/gen.c:1343:mov2w_op *{*
;; >>> /home/sdcc-builder/build/sdcc-build/orig/sdcc/src/pic14/gen.c:1361:mov2w_op
	MOVLW	0x03
;; >>> /home/sdcc-builder/build/sdcc-build/orig/sdcc/src/pic14/gen.c:2173:genCall
	PAGESEL	_GPIO_SetPortState
;; >>> /home/sdcc-builder/build/sdcc-build/orig/sdcc/src/pic14/gen.c:2175:genCall
	CALL	_GPIO_SetPortState
;; >>> /home/sdcc-builder/build/sdcc-build/orig/sdcc/src/pic14/gen.c:2181:genCall
	PAGESEL	$
;;; /home/sdcc-builder/build/sdcc-build/orig/sdcc/src/pic14/gen.c:1845:unsaveRegisters *{*
;; ***	unsaveRegisters  1847
;;; /home/sdcc-builder/build/sdcc-build/orig/sdcc/src/pic14/gen.c:2316:resultRemat *{*
;;; /home/sdcc-builder/build/sdcc-build/orig/sdcc/src/pic14/gen.c:3547:genCmpGt *{*
;; ***	genCmpGt  3548
;;	694 register type nRegs=1
;;; /home/sdcc-builder/build/sdcc-build/orig/sdcc/src/pic14/gen.c:3294:genCmp *{*
;;swapping arguments (AOP_TYPEs 1/2)
;;unsigned compare: left >= lit(0x4=4), size=1
;; >>> /home/sdcc-builder/build/sdcc-build/orig/sdcc/src/pic14/gen.c:3265:pic14_mov2w_regOrLit
	.line	60; "SSD.c"	switch(ssdIterator)
	MOVLW	0x04
;; >>> /home/sdcc-builder/build/sdcc-build/orig/sdcc/src/pic14/gen.c:3432:genCmp
;;	1109 rIdx = r0x104F 
	BANKSEL	r0x1015
	SUBWF	r0x1015,W
;;; /home/sdcc-builder/build/sdcc-build/orig/sdcc/src/pic14/gen.c:3237:genSkipc *{*
;; >>> /home/sdcc-builder/build/sdcc-build/orig/sdcc/src/pic14/gen.c:3242:genSkipc
	BTFSC	STATUS,0
;; >>> /home/sdcc-builder/build/sdcc-build/orig/sdcc/src/pic14/gen.c:3246:genSkipc
;; ***	popGetLabel  key=5, label offset 20
	GOTO	_00125_DS_
;;genSkipc:3247: created from rifx:027A5DF4
;;; /home/sdcc-builder/build/sdcc-build/orig/sdcc/src/pic14/gen.c:2316:resultRemat *{*
;;; /home/sdcc-builder/build/sdcc-build/orig/sdcc/src/pic14/gen.c:2316:resultRemat *{*
;;; /home/sdcc-builder/build/sdcc-build/orig/sdcc/src/pic14/gen.c:7071:genJumpTab *{*
;; ***	genJumpTab  7072
;;	694 register type nRegs=1
;; >>> /home/sdcc-builder/build/sdcc-build/orig/sdcc/src/pic14/gen.c:7087:genJumpTab
;; ***	popGetLabel  key=24, label offset 20
	MOVLW	HIGH(_00144_DS_)
;; >>> /home/sdcc-builder/build/sdcc-build/orig/sdcc/src/pic14/gen.c:7088:genJumpTab
	BANKSEL	PCLATH
	MOVWF	PCLATH
;; >>> /home/sdcc-builder/build/sdcc-build/orig/sdcc/src/pic14/gen.c:7089:genJumpTab
;; ***	popGetLabel  key=24, label offset 20
	MOVLW	_00144_DS_
;; >>> /home/sdcc-builder/build/sdcc-build/orig/sdcc/src/pic14/gen.c:7090:genJumpTab
;;	1109 rIdx = r0x104F 
	BANKSEL	r0x1015
	ADDWF	r0x1015,W
;; >>> /home/sdcc-builder/build/sdcc-build/orig/sdcc/src/pic14/gen.c:7091:genJumpTab
	BTFSS	STATUS,0
	GOTO	_00001_DS_
;; >>> /home/sdcc-builder/build/sdcc-build/orig/sdcc/src/pic14/gen.c:7092:genJumpTab
	BANKSEL	PCLATH
	INCF	PCLATH,F
;; >>> /home/sdcc-builder/build/sdcc-build/orig/sdcc/src/pic14/gen.c:7093:genJumpTab
_00001_DS_
	MOVWF	PCL
;; >>> /home/sdcc-builder/build/sdcc-build/orig/sdcc/src/pic14/gen.c:7102:genJumpTab
;; ***	popGetLabel  key=1, label offset 20
_00144_DS_
	GOTO	_00121_DS_
;; >>> /home/sdcc-builder/build/sdcc-build/orig/sdcc/src/pic14/gen.c:7102:genJumpTab
;; ***	popGetLabel  key=2, label offset 20
	GOTO	_00122_DS_
;; >>> /home/sdcc-builder/build/sdcc-build/orig/sdcc/src/pic14/gen.c:7102:genJumpTab
;; ***	popGetLabel  key=3, label offset 20
	GOTO	_00123_DS_
;; >>> /home/sdcc-builder/build/sdcc-build/orig/sdcc/src/pic14/gen.c:7102:genJumpTab
;; ***	popGetLabel  key=4, label offset 20
	GOTO	_00124_DS_
;;; /home/sdcc-builder/build/sdcc-build/orig/sdcc/src/pic14/gen.c:2316:resultRemat *{*
;;; /home/sdcc-builder/build/sdcc-build/orig/sdcc/src/pic14/gen.c:2760:genLabel *{*
;; ***	genLabel  2763
;;; /home/sdcc-builder/build/sdcc-build/orig/sdcc/src/pic14/gen.c:2316:resultRemat *{*
;;; /home/sdcc-builder/build/sdcc-build/orig/sdcc/src/pic14/gen.c:2316:resultRemat *{*
;;; /home/sdcc-builder/build/sdcc-build/orig/sdcc/src/pic14/gen.c:2316:resultRemat *{*
;;; /home/sdcc-builder/build/sdcc-build/orig/sdcc/src/pic14/gen.c:2316:resultRemat *{*
;;; /home/sdcc-builder/build/sdcc-build/orig/sdcc/src/pic14/gen.c:2086:genCall *{*
;; ***	genCall  2088
;;; /home/sdcc-builder/build/sdcc-build/orig/sdcc/src/pic14/gen.c:1801:saveRegisters *{*
;; ***	saveRegisters  1803
;; 	2135 left AOP_LIT
;;; /home/sdcc-builder/build/sdcc-build/orig/sdcc/src/pic14/gen.c:1343:mov2w_op *{*
;; >>> /home/sdcc-builder/build/sdcc-build/orig/sdcc/src/pic14/gen.c:1361:mov2w_op
_00121_DS_
	.line	63; "SSD.c"	GPIO_SetPinState(PORT_B,7,1) ;
	MOVLW	0x01
;; 	2135 left AOP_LIT
;; >>> /home/sdcc-builder/build/sdcc-build/orig/sdcc/src/pic14/gen.c:2143:genCall
;; ***	popRegFromIdx,1042  , rIdx=0x7e
	MOVWF	STK01
;;; /home/sdcc-builder/build/sdcc-build/orig/sdcc/src/pic14/gen.c:1343:mov2w_op *{*
;; >>> /home/sdcc-builder/build/sdcc-build/orig/sdcc/src/pic14/gen.c:1361:mov2w_op
	MOVLW	0x07
;; 	2135 left AOP_LIT
;; >>> /home/sdcc-builder/build/sdcc-build/orig/sdcc/src/pic14/gen.c:2143:genCall
;; ***	popRegFromIdx,1042  , rIdx=0x7f
	MOVWF	STK00
;;; /home/sdcc-builder/build/sdcc-build/orig/sdcc/src/pic14/gen.c:1343:mov2w_op *{*
;; >>> /home/sdcc-builder/build/sdcc-build/orig/sdcc/src/pic14/gen.c:1361:mov2w_op
	MOVLW	0x01
;; >>> /home/sdcc-builder/build/sdcc-build/orig/sdcc/src/pic14/gen.c:2173:genCall
	PAGESEL	_GPIO_SetPinState
;; >>> /home/sdcc-builder/build/sdcc-build/orig/sdcc/src/pic14/gen.c:2175:genCall
	CALL	_GPIO_SetPinState
;; >>> /home/sdcc-builder/build/sdcc-build/orig/sdcc/src/pic14/gen.c:2181:genCall
	PAGESEL	$
;;; /home/sdcc-builder/build/sdcc-build/orig/sdcc/src/pic14/gen.c:1845:unsaveRegisters *{*
;; ***	unsaveRegisters  1847
;;; /home/sdcc-builder/build/sdcc-build/orig/sdcc/src/pic14/gen.c:2316:resultRemat *{*
;;; /home/sdcc-builder/build/sdcc-build/orig/sdcc/src/pic14/gen.c:2778:genGoto *{*
;; >>> /home/sdcc-builder/build/sdcc-build/orig/sdcc/src/pic14/gen.c:2780:genGoto
;; ***	popGetLabel  key=5, label offset 20
	.line	64; "SSD.c"	break ;
	GOTO	_00125_DS_
;;; /home/sdcc-builder/build/sdcc-build/orig/sdcc/src/pic14/gen.c:2316:resultRemat *{*
;;; /home/sdcc-builder/build/sdcc-build/orig/sdcc/src/pic14/gen.c:2760:genLabel *{*
;; ***	genLabel  2763
;;; /home/sdcc-builder/build/sdcc-build/orig/sdcc/src/pic14/gen.c:2316:resultRemat *{*
;;; /home/sdcc-builder/build/sdcc-build/orig/sdcc/src/pic14/gen.c:2316:resultRemat *{*
;;; /home/sdcc-builder/build/sdcc-build/orig/sdcc/src/pic14/gen.c:2316:resultRemat *{*
;;; /home/sdcc-builder/build/sdcc-build/orig/sdcc/src/pic14/gen.c:2316:resultRemat *{*
;;; /home/sdcc-builder/build/sdcc-build/orig/sdcc/src/pic14/gen.c:2086:genCall *{*
;; ***	genCall  2088
;;; /home/sdcc-builder/build/sdcc-build/orig/sdcc/src/pic14/gen.c:1801:saveRegisters *{*
;; ***	saveRegisters  1803
;; 	2135 left AOP_LIT
;;; /home/sdcc-builder/build/sdcc-build/orig/sdcc/src/pic14/gen.c:1343:mov2w_op *{*
;; >>> /home/sdcc-builder/build/sdcc-build/orig/sdcc/src/pic14/gen.c:1361:mov2w_op
_00122_DS_
	.line	66; "SSD.c"	GPIO_SetPinState(PORT_B,6,1) ;
	MOVLW	0x01
;; 	2135 left AOP_LIT
;; >>> /home/sdcc-builder/build/sdcc-build/orig/sdcc/src/pic14/gen.c:2143:genCall
;; ***	popRegFromIdx,1042  , rIdx=0x7e
	MOVWF	STK01
;;; /home/sdcc-builder/build/sdcc-build/orig/sdcc/src/pic14/gen.c:1343:mov2w_op *{*
;; >>> /home/sdcc-builder/build/sdcc-build/orig/sdcc/src/pic14/gen.c:1361:mov2w_op
	MOVLW	0x06
;; 	2135 left AOP_LIT
;; >>> /home/sdcc-builder/build/sdcc-build/orig/sdcc/src/pic14/gen.c:2143:genCall
;; ***	popRegFromIdx,1042  , rIdx=0x7f
	MOVWF	STK00
;;; /home/sdcc-builder/build/sdcc-build/orig/sdcc/src/pic14/gen.c:1343:mov2w_op *{*
;; >>> /home/sdcc-builder/build/sdcc-build/orig/sdcc/src/pic14/gen.c:1361:mov2w_op
	MOVLW	0x01
;; >>> /home/sdcc-builder/build/sdcc-build/orig/sdcc/src/pic14/gen.c:2173:genCall
	PAGESEL	_GPIO_SetPinState
;; >>> /home/sdcc-builder/build/sdcc-build/orig/sdcc/src/pic14/gen.c:2175:genCall
	CALL	_GPIO_SetPinState
;; >>> /home/sdcc-builder/build/sdcc-build/orig/sdcc/src/pic14/gen.c:2181:genCall
	PAGESEL	$
;;; /home/sdcc-builder/build/sdcc-build/orig/sdcc/src/pic14/gen.c:1845:unsaveRegisters *{*
;; ***	unsaveRegisters  1847
;;; /home/sdcc-builder/build/sdcc-build/orig/sdcc/src/pic14/gen.c:2316:resultRemat *{*
;;; /home/sdcc-builder/build/sdcc-build/orig/sdcc/src/pic14/gen.c:2778:genGoto *{*
;; >>> /home/sdcc-builder/build/sdcc-build/orig/sdcc/src/pic14/gen.c:2780:genGoto
;; ***	popGetLabel  key=5, label offset 20
	.line	67; "SSD.c"	break ;
	GOTO	_00125_DS_
;;; /home/sdcc-builder/build/sdcc-build/orig/sdcc/src/pic14/gen.c:2316:resultRemat *{*
;;; /home/sdcc-builder/build/sdcc-build/orig/sdcc/src/pic14/gen.c:2760:genLabel *{*
;; ***	genLabel  2763
;;; /home/sdcc-builder/build/sdcc-build/orig/sdcc/src/pic14/gen.c:2316:resultRemat *{*
;;; /home/sdcc-builder/build/sdcc-build/orig/sdcc/src/pic14/gen.c:2316:resultRemat *{*
;;; /home/sdcc-builder/build/sdcc-build/orig/sdcc/src/pic14/gen.c:2316:resultRemat *{*
;;; /home/sdcc-builder/build/sdcc-build/orig/sdcc/src/pic14/gen.c:2316:resultRemat *{*
;;; /home/sdcc-builder/build/sdcc-build/orig/sdcc/src/pic14/gen.c:2086:genCall *{*
;; ***	genCall  2088
;;; /home/sdcc-builder/build/sdcc-build/orig/sdcc/src/pic14/gen.c:1801:saveRegisters *{*
;; ***	saveRegisters  1803
;; 	2135 left AOP_LIT
;;; /home/sdcc-builder/build/sdcc-build/orig/sdcc/src/pic14/gen.c:1343:mov2w_op *{*
;; >>> /home/sdcc-builder/build/sdcc-build/orig/sdcc/src/pic14/gen.c:1361:mov2w_op
_00123_DS_
	.line	69; "SSD.c"	GPIO_SetPinState(PORT_B,5,1) ;
	MOVLW	0x01
;; 	2135 left AOP_LIT
;; >>> /home/sdcc-builder/build/sdcc-build/orig/sdcc/src/pic14/gen.c:2143:genCall
;; ***	popRegFromIdx,1042  , rIdx=0x7e
	MOVWF	STK01
;;; /home/sdcc-builder/build/sdcc-build/orig/sdcc/src/pic14/gen.c:1343:mov2w_op *{*
;; >>> /home/sdcc-builder/build/sdcc-build/orig/sdcc/src/pic14/gen.c:1361:mov2w_op
	MOVLW	0x05
;; 	2135 left AOP_LIT
;; >>> /home/sdcc-builder/build/sdcc-build/orig/sdcc/src/pic14/gen.c:2143:genCall
;; ***	popRegFromIdx,1042  , rIdx=0x7f
	MOVWF	STK00
;;; /home/sdcc-builder/build/sdcc-build/orig/sdcc/src/pic14/gen.c:1343:mov2w_op *{*
;; >>> /home/sdcc-builder/build/sdcc-build/orig/sdcc/src/pic14/gen.c:1361:mov2w_op
	MOVLW	0x01
;; >>> /home/sdcc-builder/build/sdcc-build/orig/sdcc/src/pic14/gen.c:2173:genCall
	PAGESEL	_GPIO_SetPinState
;; >>> /home/sdcc-builder/build/sdcc-build/orig/sdcc/src/pic14/gen.c:2175:genCall
	CALL	_GPIO_SetPinState
;; >>> /home/sdcc-builder/build/sdcc-build/orig/sdcc/src/pic14/gen.c:2181:genCall
	PAGESEL	$
;;; /home/sdcc-builder/build/sdcc-build/orig/sdcc/src/pic14/gen.c:1845:unsaveRegisters *{*
;; ***	unsaveRegisters  1847
;;; /home/sdcc-builder/build/sdcc-build/orig/sdcc/src/pic14/gen.c:2316:resultRemat *{*
;;; /home/sdcc-builder/build/sdcc-build/orig/sdcc/src/pic14/gen.c:2778:genGoto *{*
;; >>> /home/sdcc-builder/build/sdcc-build/orig/sdcc/src/pic14/gen.c:2780:genGoto
;; ***	popGetLabel  key=5, label offset 20
	.line	70; "SSD.c"	break ;
	GOTO	_00125_DS_
;;; /home/sdcc-builder/build/sdcc-build/orig/sdcc/src/pic14/gen.c:2316:resultRemat *{*
;;; /home/sdcc-builder/build/sdcc-build/orig/sdcc/src/pic14/gen.c:2760:genLabel *{*
;; ***	genLabel  2763
;;; /home/sdcc-builder/build/sdcc-build/orig/sdcc/src/pic14/gen.c:2316:resultRemat *{*
;;; /home/sdcc-builder/build/sdcc-build/orig/sdcc/src/pic14/gen.c:2316:resultRemat *{*
;;; /home/sdcc-builder/build/sdcc-build/orig/sdcc/src/pic14/gen.c:2316:resultRemat *{*
;;; /home/sdcc-builder/build/sdcc-build/orig/sdcc/src/pic14/gen.c:2316:resultRemat *{*
;;; /home/sdcc-builder/build/sdcc-build/orig/sdcc/src/pic14/gen.c:2086:genCall *{*
;; ***	genCall  2088
;;; /home/sdcc-builder/build/sdcc-build/orig/sdcc/src/pic14/gen.c:1801:saveRegisters *{*
;; ***	saveRegisters  1803
;; 	2135 left AOP_LIT
;;; /home/sdcc-builder/build/sdcc-build/orig/sdcc/src/pic14/gen.c:1343:mov2w_op *{*
;; >>> /home/sdcc-builder/build/sdcc-build/orig/sdcc/src/pic14/gen.c:1361:mov2w_op
_00124_DS_
	.line	72; "SSD.c"	GPIO_SetPinState(PORT_B,4,1) ;
	MOVLW	0x01
;; 	2135 left AOP_LIT
;; >>> /home/sdcc-builder/build/sdcc-build/orig/sdcc/src/pic14/gen.c:2143:genCall
;; ***	popRegFromIdx,1042  , rIdx=0x7e
	MOVWF	STK01
;;; /home/sdcc-builder/build/sdcc-build/orig/sdcc/src/pic14/gen.c:1343:mov2w_op *{*
;; >>> /home/sdcc-builder/build/sdcc-build/orig/sdcc/src/pic14/gen.c:1361:mov2w_op
	MOVLW	0x04
;; 	2135 left AOP_LIT
;; >>> /home/sdcc-builder/build/sdcc-build/orig/sdcc/src/pic14/gen.c:2143:genCall
;; ***	popRegFromIdx,1042  , rIdx=0x7f
	MOVWF	STK00
;;; /home/sdcc-builder/build/sdcc-build/orig/sdcc/src/pic14/gen.c:1343:mov2w_op *{*
;; >>> /home/sdcc-builder/build/sdcc-build/orig/sdcc/src/pic14/gen.c:1361:mov2w_op
	MOVLW	0x01
;; >>> /home/sdcc-builder/build/sdcc-build/orig/sdcc/src/pic14/gen.c:2173:genCall
	PAGESEL	_GPIO_SetPinState
;; >>> /home/sdcc-builder/build/sdcc-build/orig/sdcc/src/pic14/gen.c:2175:genCall
	CALL	_GPIO_SetPinState
;; >>> /home/sdcc-builder/build/sdcc-build/orig/sdcc/src/pic14/gen.c:2181:genCall
	PAGESEL	$
;;; /home/sdcc-builder/build/sdcc-build/orig/sdcc/src/pic14/gen.c:1845:unsaveRegisters *{*
;; ***	unsaveRegisters  1847
;;; /home/sdcc-builder/build/sdcc-build/orig/sdcc/src/pic14/gen.c:2316:resultRemat *{*
;;; /home/sdcc-builder/build/sdcc-build/orig/sdcc/src/pic14/gen.c:2760:genLabel *{*
;; ***	genLabel  2763
;;; /home/sdcc-builder/build/sdcc-build/orig/sdcc/src/pic14/gen.c:2316:resultRemat *{*
;;; /home/sdcc-builder/build/sdcc-build/orig/sdcc/src/pic14/gen.c:2316:resultRemat *{*
;;; /home/sdcc-builder/build/sdcc-build/orig/sdcc/src/pic14/gen.c:2086:genCall *{*
;; ***	genCall  2088
;;; /home/sdcc-builder/build/sdcc-build/orig/sdcc/src/pic14/gen.c:1801:saveRegisters *{*
;; ***	saveRegisters  1803
;; 	2135 left AOP_LIT
;;; /home/sdcc-builder/build/sdcc-build/orig/sdcc/src/pic14/gen.c:1343:mov2w_op *{*
;; >>> /home/sdcc-builder/build/sdcc-build/orig/sdcc/src/pic14/gen.c:1361:mov2w_op
_00125_DS_
	.line	75; "SSD.c"	Delay_ms(SSD_TIME) ;
	MOVLW	0x01
;; 	2135 left AOP_LIT
;; >>> /home/sdcc-builder/build/sdcc-build/orig/sdcc/src/pic14/gen.c:2143:genCall
;; ***	popRegFromIdx,1042  , rIdx=0x7f
	MOVWF	STK00
;;; /home/sdcc-builder/build/sdcc-build/orig/sdcc/src/pic14/gen.c:1343:mov2w_op *{*
;; >>> /home/sdcc-builder/build/sdcc-build/orig/sdcc/src/pic14/gen.c:1361:mov2w_op
	MOVLW	0x00
;; >>> /home/sdcc-builder/build/sdcc-build/orig/sdcc/src/pic14/gen.c:2173:genCall
	PAGESEL	_Delay_ms
;; >>> /home/sdcc-builder/build/sdcc-build/orig/sdcc/src/pic14/gen.c:2175:genCall
	CALL	_Delay_ms
;; >>> /home/sdcc-builder/build/sdcc-build/orig/sdcc/src/pic14/gen.c:2181:genCall
	PAGESEL	$
;;; /home/sdcc-builder/build/sdcc-build/orig/sdcc/src/pic14/gen.c:1845:unsaveRegisters *{*
;; ***	unsaveRegisters  1847
;;; /home/sdcc-builder/build/sdcc-build/orig/sdcc/src/pic14/gen.c:2316:resultRemat *{*
;;; /home/sdcc-builder/build/sdcc-build/orig/sdcc/src/pic14/gen.c:2760:genLabel *{*
;; ***	genLabel  2763
;;; /home/sdcc-builder/build/sdcc-build/orig/sdcc/src/pic14/gen.c:2316:resultRemat *{*
;; ***	genPlus  611
;;; /home/sdcc-builder/build/sdcc-build/orig/sdcc/src/pic14/genarith.c:612:genPlus *{*
;;	694 register type nRegs=1
;;	575
;; 	line = 618 result AOP_REG=r0x104F, size=1, left AOP_REG=r0x104F, size=1, right AOP_LIT=0x01, size=1
;;; /home/sdcc-builder/build/sdcc-build/orig/sdcc/src/pic14/genarith.c:142:genPlusIncr *{*
;; ***	genPlusIncr  144
;; 	result AOP_REG, left AOP_REG, right AOP_LIT
;; 	genPlusIncr  156
;; >>> /home/sdcc-builder/build/sdcc-build/orig/sdcc/src/pic14/genarith.c:168:genPlusIncr
;;	1109 rIdx = r0x104F 
_00130_DS_
	.line	54; "SSD.c"	for(ssdIterator = SSD_L ;ssdIterator <= SSD_R ;ssdIterator ++ )
	BANKSEL	r0x1015
	INCF	r0x1015,F
;;; /home/sdcc-builder/build/sdcc-build/orig/sdcc/src/pic14/gen.c:2316:resultRemat *{*
;;; /home/sdcc-builder/build/sdcc-build/orig/sdcc/src/pic14/gen.c:3547:genCmpGt *{*
;; ***	genCmpGt  3548
;;	694 register type nRegs=1
;;; /home/sdcc-builder/build/sdcc-build/orig/sdcc/src/pic14/gen.c:3294:genCmp *{*
;;swapping arguments (AOP_TYPEs 1/2)
;;unsigned compare: left >= lit(0x4=4), size=1
;; >>> /home/sdcc-builder/build/sdcc-build/orig/sdcc/src/pic14/gen.c:3265:pic14_mov2w_regOrLit
	MOVLW	0x04
;; >>> /home/sdcc-builder/build/sdcc-build/orig/sdcc/src/pic14/gen.c:3432:genCmp
;;	1109 rIdx = r0x104F 
	SUBWF	r0x1015,W
;;; /home/sdcc-builder/build/sdcc-build/orig/sdcc/src/pic14/gen.c:3237:genSkipc *{*
;; >>> /home/sdcc-builder/build/sdcc-build/orig/sdcc/src/pic14/gen.c:3244:genSkipc
	BTFSS	STATUS,0
;; >>> /home/sdcc-builder/build/sdcc-build/orig/sdcc/src/pic14/gen.c:3246:genSkipc
;; ***	popGetLabel  key=9, label offset 20
	GOTO	_00129_DS_
;;genSkipc:3247: created from rifx:027A5DF4
;;; /home/sdcc-builder/build/sdcc-build/orig/sdcc/src/pic14/gen.c:2316:resultRemat *{*
;;; /home/sdcc-builder/build/sdcc-build/orig/sdcc/src/pic14/gen.c:2316:resultRemat *{*
;;; /home/sdcc-builder/build/sdcc-build/orig/sdcc/src/pic14/gen.c:2760:genLabel *{*
;; ***	genLabel  2763
;;; /home/sdcc-builder/build/sdcc-build/orig/sdcc/src/pic14/gen.c:2316:resultRemat *{*
;;; /home/sdcc-builder/build/sdcc-build/orig/sdcc/src/pic14/gen.c:2528:genEndFunction *{*
;; ***	genEndFunction  2530
	RETURN	
; exit point of _SSD_Update
;;; /home/sdcc-builder/build/sdcc-build/orig/sdcc/src/pic14/gen.c:7426:genpic14Code *{*

;***
;  pBlock Stats: dbName = C
;***
;entry:  _SSD_Init	;Function start
; 2 exit points
;has an exit
;functions called:
;   _GPIO_InitPort
;   _GPIO_InitPin
;   _GPIO_InitPin
;   _GPIO_InitPin
;   _GPIO_InitPin
;   __mulchar
;   _GPIO_InitPort
;   _GPIO_InitPin
;   _GPIO_InitPin
;   _GPIO_InitPin
;   _GPIO_InitPin
;   __mulchar
;8 compiler assigned registers:
;   r0x101B
;   STK00
;   r0x101C
;   STK01
;   r0x101D
;   r0x101E
;   r0x101F
;   r0x1020
;; Starting pCode block
;;; /home/sdcc-builder/build/sdcc-build/orig/sdcc/src/pic14/gen.c:2316:resultRemat *{*
;;; /home/sdcc-builder/build/sdcc-build/orig/sdcc/src/pic14/gen.c:2760:genLabel *{*
;; ***	genLabel  2763
;;; /home/sdcc-builder/build/sdcc-build/orig/sdcc/src/pic14/gen.c:2316:resultRemat *{*
;;; /home/sdcc-builder/build/sdcc-build/orig/sdcc/src/pic14/gen.c:2340:genFunction *{*
;; ***	genFunction  2342 curr label offset=0previous max_key=0 
_SSD_Init	;Function start
; 2 exit points
;;; /home/sdcc-builder/build/sdcc-build/orig/sdcc/src/pic14/gen.c:2316:resultRemat *{*
;;; /home/sdcc-builder/build/sdcc-build/orig/sdcc/src/pic14/gen.c:7358:genReceive *{*
;; ***	genReceive  7359
;;	694 register type nRegs=1
;;; /home/sdcc-builder/build/sdcc-build/orig/sdcc/src/pic14/gen.c:1907:assignResultValue *{*
;; ***	assignResultValue  1909
;; 	line = 1911 result -=-, size=0, left AOP_REG=r0x1048, size=1, right -=-, size=0
;; >>> /home/sdcc-builder/build/sdcc-build/orig/sdcc/src/pic14/gen.c:1393:movwf
;;	1109 rIdx = r0x1048 
	.line	27; "SSD.c"	void SSD_Init(tSSD ssd,tSSD_State ssdState,tSSD_Symbol ssdSymbol)
	BANKSEL	r0x101B
	MOVWF	r0x101B
;;; /home/sdcc-builder/build/sdcc-build/orig/sdcc/src/pic14/gen.c:2316:resultRemat *{*
;;; /home/sdcc-builder/build/sdcc-build/orig/sdcc/src/pic14/gen.c:7358:genReceive *{*
;; ***	genReceive  7359
;;	694 register type nRegs=1
;;; /home/sdcc-builder/build/sdcc-build/orig/sdcc/src/pic14/gen.c:1907:assignResultValue *{*
;; ***	assignResultValue  1909
;; 	line = 1911 result -=-, size=0, left AOP_REG=r0x1049, size=1, right -=-, size=0
;; >>> /home/sdcc-builder/build/sdcc-build/orig/sdcc/src/pic14/gen.c:1423:get_returnvalue
;; ***	popRegFromIdx,1042  , rIdx=0x7f
	MOVF	STK00,W
;; >>> /home/sdcc-builder/build/sdcc-build/orig/sdcc/src/pic14/gen.c:1393:movwf
;;	1109 rIdx = r0x1049 
	MOVWF	r0x101C
;;; /home/sdcc-builder/build/sdcc-build/orig/sdcc/src/pic14/gen.c:2316:resultRemat *{*
;;; /home/sdcc-builder/build/sdcc-build/orig/sdcc/src/pic14/gen.c:7358:genReceive *{*
;; ***	genReceive  7359
;;	694 register type nRegs=1
;;; /home/sdcc-builder/build/sdcc-build/orig/sdcc/src/pic14/gen.c:1907:assignResultValue *{*
;; ***	assignResultValue  1909
;; 	line = 1911 result -=-, size=0, left AOP_REG=r0x104A, size=1, right -=-, size=0
;; >>> /home/sdcc-builder/build/sdcc-build/orig/sdcc/src/pic14/gen.c:1423:get_returnvalue
;; ***	popRegFromIdx,1042  , rIdx=0x7e
	MOVF	STK01,W
;; >>> /home/sdcc-builder/build/sdcc-build/orig/sdcc/src/pic14/gen.c:1393:movwf
;;	1109 rIdx = r0x104A 
	MOVWF	r0x101D
;;; /home/sdcc-builder/build/sdcc-build/orig/sdcc/src/pic14/gen.c:2316:resultRemat *{*
;;; /home/sdcc-builder/build/sdcc-build/orig/sdcc/src/pic14/gen.c:2316:resultRemat *{*
;;; /home/sdcc-builder/build/sdcc-build/orig/sdcc/src/pic14/gen.c:2316:resultRemat *{*
;;; /home/sdcc-builder/build/sdcc-build/orig/sdcc/src/pic14/gen.c:2086:genCall *{*
;; ***	genCall  2088
;;; /home/sdcc-builder/build/sdcc-build/orig/sdcc/src/pic14/gen.c:1801:saveRegisters *{*
;; ***	saveRegisters  1803
;; 	2135 left AOP_LIT
;;; /home/sdcc-builder/build/sdcc-build/orig/sdcc/src/pic14/gen.c:1343:mov2w_op *{*
;; >>> /home/sdcc-builder/build/sdcc-build/orig/sdcc/src/pic14/gen.c:1361:mov2w_op
	.line	30; "SSD.c"	GPIO_InitPort(PORT_D,0X00 ) ;
	MOVLW	0x00
;; 	2135 left AOP_LIT
;; >>> /home/sdcc-builder/build/sdcc-build/orig/sdcc/src/pic14/gen.c:2143:genCall
;; ***	popRegFromIdx,1042  , rIdx=0x7f
	MOVWF	STK00
;;; /home/sdcc-builder/build/sdcc-build/orig/sdcc/src/pic14/gen.c:1343:mov2w_op *{*
;; >>> /home/sdcc-builder/build/sdcc-build/orig/sdcc/src/pic14/gen.c:1361:mov2w_op
	MOVLW	0x03
;; >>> /home/sdcc-builder/build/sdcc-build/orig/sdcc/src/pic14/gen.c:2173:genCall
	PAGESEL	_GPIO_InitPort
;; >>> /home/sdcc-builder/build/sdcc-build/orig/sdcc/src/pic14/gen.c:2175:genCall
	CALL	_GPIO_InitPort
;; >>> /home/sdcc-builder/build/sdcc-build/orig/sdcc/src/pic14/gen.c:2181:genCall
	PAGESEL	$
;;; /home/sdcc-builder/build/sdcc-build/orig/sdcc/src/pic14/gen.c:1845:unsaveRegisters *{*
;; ***	unsaveRegisters  1847
;;; /home/sdcc-builder/build/sdcc-build/orig/sdcc/src/pic14/gen.c:2316:resultRemat *{*
;;; /home/sdcc-builder/build/sdcc-build/orig/sdcc/src/pic14/gen.c:3547:genCmpGt *{*
;; ***	genCmpGt  3548
;;	694 register type nRegs=1
;;; /home/sdcc-builder/build/sdcc-build/orig/sdcc/src/pic14/gen.c:3294:genCmp *{*
;;swapping arguments (AOP_TYPEs 1/2)
;;unsigned compare: left >= lit(0x4=4), size=1
;; >>> /home/sdcc-builder/build/sdcc-build/orig/sdcc/src/pic14/gen.c:3265:pic14_mov2w_regOrLit
	.line	32; "SSD.c"	switch(ssd)
	MOVLW	0x04
;; >>> /home/sdcc-builder/build/sdcc-build/orig/sdcc/src/pic14/gen.c:3432:genCmp
;;	1109 rIdx = r0x1048 
	BANKSEL	r0x101B
	SUBWF	r0x101B,W
;;; /home/sdcc-builder/build/sdcc-build/orig/sdcc/src/pic14/gen.c:3237:genSkipc *{*
;; >>> /home/sdcc-builder/build/sdcc-build/orig/sdcc/src/pic14/gen.c:3242:genSkipc
	BTFSC	STATUS,0
;; >>> /home/sdcc-builder/build/sdcc-build/orig/sdcc/src/pic14/gen.c:3246:genSkipc
;; ***	popGetLabel  key=5, label offset 4
	GOTO	_00109_DS_
;;genSkipc:3247: created from rifx:027A5DF4
;;; /home/sdcc-builder/build/sdcc-build/orig/sdcc/src/pic14/gen.c:2316:resultRemat *{*
;;; /home/sdcc-builder/build/sdcc-build/orig/sdcc/src/pic14/gen.c:2316:resultRemat *{*
;;; /home/sdcc-builder/build/sdcc-build/orig/sdcc/src/pic14/gen.c:7071:genJumpTab *{*
;; ***	genJumpTab  7072
;;	694 register type nRegs=1
;; >>> /home/sdcc-builder/build/sdcc-build/orig/sdcc/src/pic14/gen.c:7087:genJumpTab
;; ***	popGetLabel  key=12, label offset 4
	MOVLW	HIGH(_00116_DS_)
;; >>> /home/sdcc-builder/build/sdcc-build/orig/sdcc/src/pic14/gen.c:7088:genJumpTab
	BANKSEL	PCLATH
	MOVWF	PCLATH
;; >>> /home/sdcc-builder/build/sdcc-build/orig/sdcc/src/pic14/gen.c:7089:genJumpTab
;; ***	popGetLabel  key=12, label offset 4
	MOVLW	_00116_DS_
;; >>> /home/sdcc-builder/build/sdcc-build/orig/sdcc/src/pic14/gen.c:7090:genJumpTab
;;	1109 rIdx = r0x1048 
	BANKSEL	r0x101B
	ADDWF	r0x101B,W
;; >>> /home/sdcc-builder/build/sdcc-build/orig/sdcc/src/pic14/gen.c:7091:genJumpTab
	BTFSS	STATUS,0
	GOTO	_00002_DS_
;; >>> /home/sdcc-builder/build/sdcc-build/orig/sdcc/src/pic14/gen.c:7092:genJumpTab
	BANKSEL	PCLATH
	INCF	PCLATH,F
;; >>> /home/sdcc-builder/build/sdcc-build/orig/sdcc/src/pic14/gen.c:7093:genJumpTab
_00002_DS_
	MOVWF	PCL
;; >>> /home/sdcc-builder/build/sdcc-build/orig/sdcc/src/pic14/gen.c:7102:genJumpTab
;; ***	popGetLabel  key=1, label offset 4
_00116_DS_
	GOTO	_00105_DS_
;; >>> /home/sdcc-builder/build/sdcc-build/orig/sdcc/src/pic14/gen.c:7102:genJumpTab
;; ***	popGetLabel  key=2, label offset 4
	GOTO	_00106_DS_
;; >>> /home/sdcc-builder/build/sdcc-build/orig/sdcc/src/pic14/gen.c:7102:genJumpTab
;; ***	popGetLabel  key=3, label offset 4
	GOTO	_00107_DS_
;; >>> /home/sdcc-builder/build/sdcc-build/orig/sdcc/src/pic14/gen.c:7102:genJumpTab
;; ***	popGetLabel  key=4, label offset 4
	GOTO	_00108_DS_
;;; /home/sdcc-builder/build/sdcc-build/orig/sdcc/src/pic14/gen.c:2316:resultRemat *{*
;;; /home/sdcc-builder/build/sdcc-build/orig/sdcc/src/pic14/gen.c:2760:genLabel *{*
;; ***	genLabel  2763
;;; /home/sdcc-builder/build/sdcc-build/orig/sdcc/src/pic14/gen.c:2316:resultRemat *{*
;;; /home/sdcc-builder/build/sdcc-build/orig/sdcc/src/pic14/gen.c:2316:resultRemat *{*
;;; /home/sdcc-builder/build/sdcc-build/orig/sdcc/src/pic14/gen.c:2316:resultRemat *{*
;;; /home/sdcc-builder/build/sdcc-build/orig/sdcc/src/pic14/gen.c:2316:resultRemat *{*
;;; /home/sdcc-builder/build/sdcc-build/orig/sdcc/src/pic14/gen.c:2086:genCall *{*
;; ***	genCall  2088
;;; /home/sdcc-builder/build/sdcc-build/orig/sdcc/src/pic14/gen.c:1801:saveRegisters *{*
;; ***	saveRegisters  1803
;; 	2135 left AOP_LIT
;;; /home/sdcc-builder/build/sdcc-build/orig/sdcc/src/pic14/gen.c:1343:mov2w_op *{*
;; >>> /home/sdcc-builder/build/sdcc-build/orig/sdcc/src/pic14/gen.c:1361:mov2w_op
_00105_DS_
	.line	35; "SSD.c"	GPIO_InitPin(PORT_B,7,PIN_OUT) ;
	MOVLW	0x00
;; 	2135 left AOP_LIT
;; >>> /home/sdcc-builder/build/sdcc-build/orig/sdcc/src/pic14/gen.c:2143:genCall
;; ***	popRegFromIdx,1042  , rIdx=0x7e
	MOVWF	STK01
;;; /home/sdcc-builder/build/sdcc-build/orig/sdcc/src/pic14/gen.c:1343:mov2w_op *{*
;; >>> /home/sdcc-builder/build/sdcc-build/orig/sdcc/src/pic14/gen.c:1361:mov2w_op
	MOVLW	0x07
;; 	2135 left AOP_LIT
;; >>> /home/sdcc-builder/build/sdcc-build/orig/sdcc/src/pic14/gen.c:2143:genCall
;; ***	popRegFromIdx,1042  , rIdx=0x7f
	MOVWF	STK00
;;; /home/sdcc-builder/build/sdcc-build/orig/sdcc/src/pic14/gen.c:1343:mov2w_op *{*
;; >>> /home/sdcc-builder/build/sdcc-build/orig/sdcc/src/pic14/gen.c:1361:mov2w_op
	MOVLW	0x01
;; >>> /home/sdcc-builder/build/sdcc-build/orig/sdcc/src/pic14/gen.c:2173:genCall
	PAGESEL	_GPIO_InitPin
;; >>> /home/sdcc-builder/build/sdcc-build/orig/sdcc/src/pic14/gen.c:2175:genCall
	CALL	_GPIO_InitPin
;; >>> /home/sdcc-builder/build/sdcc-build/orig/sdcc/src/pic14/gen.c:2181:genCall
	PAGESEL	$
;;; /home/sdcc-builder/build/sdcc-build/orig/sdcc/src/pic14/gen.c:1845:unsaveRegisters *{*
;; ***	unsaveRegisters  1847
;;; /home/sdcc-builder/build/sdcc-build/orig/sdcc/src/pic14/gen.c:2316:resultRemat *{*
;;; /home/sdcc-builder/build/sdcc-build/orig/sdcc/src/pic14/gen.c:2778:genGoto *{*
;; >>> /home/sdcc-builder/build/sdcc-build/orig/sdcc/src/pic14/gen.c:2780:genGoto
;; ***	popGetLabel  key=5, label offset 4
	.line	36; "SSD.c"	break ;
	GOTO	_00109_DS_
;;; /home/sdcc-builder/build/sdcc-build/orig/sdcc/src/pic14/gen.c:2316:resultRemat *{*
;;; /home/sdcc-builder/build/sdcc-build/orig/sdcc/src/pic14/gen.c:2760:genLabel *{*
;; ***	genLabel  2763
;;; /home/sdcc-builder/build/sdcc-build/orig/sdcc/src/pic14/gen.c:2316:resultRemat *{*
;;; /home/sdcc-builder/build/sdcc-build/orig/sdcc/src/pic14/gen.c:2316:resultRemat *{*
;;; /home/sdcc-builder/build/sdcc-build/orig/sdcc/src/pic14/gen.c:2316:resultRemat *{*
;;; /home/sdcc-builder/build/sdcc-build/orig/sdcc/src/pic14/gen.c:2316:resultRemat *{*
;;; /home/sdcc-builder/build/sdcc-build/orig/sdcc/src/pic14/gen.c:2086:genCall *{*
;; ***	genCall  2088
;;; /home/sdcc-builder/build/sdcc-build/orig/sdcc/src/pic14/gen.c:1801:saveRegisters *{*
;; ***	saveRegisters  1803
;; 	2135 left AOP_LIT
;;; /home/sdcc-builder/build/sdcc-build/orig/sdcc/src/pic14/gen.c:1343:mov2w_op *{*
;; >>> /home/sdcc-builder/build/sdcc-build/orig/sdcc/src/pic14/gen.c:1361:mov2w_op
_00106_DS_
	.line	38; "SSD.c"	GPIO_InitPin(PORT_B,6,PIN_OUT) ;
	MOVLW	0x00
;; 	2135 left AOP_LIT
;; >>> /home/sdcc-builder/build/sdcc-build/orig/sdcc/src/pic14/gen.c:2143:genCall
;; ***	popRegFromIdx,1042  , rIdx=0x7e
	MOVWF	STK01
;;; /home/sdcc-builder/build/sdcc-build/orig/sdcc/src/pic14/gen.c:1343:mov2w_op *{*
;; >>> /home/sdcc-builder/build/sdcc-build/orig/sdcc/src/pic14/gen.c:1361:mov2w_op
	MOVLW	0x06
;; 	2135 left AOP_LIT
;; >>> /home/sdcc-builder/build/sdcc-build/orig/sdcc/src/pic14/gen.c:2143:genCall
;; ***	popRegFromIdx,1042  , rIdx=0x7f
	MOVWF	STK00
;;; /home/sdcc-builder/build/sdcc-build/orig/sdcc/src/pic14/gen.c:1343:mov2w_op *{*
;; >>> /home/sdcc-builder/build/sdcc-build/orig/sdcc/src/pic14/gen.c:1361:mov2w_op
	MOVLW	0x01
;; >>> /home/sdcc-builder/build/sdcc-build/orig/sdcc/src/pic14/gen.c:2173:genCall
	PAGESEL	_GPIO_InitPin
;; >>> /home/sdcc-builder/build/sdcc-build/orig/sdcc/src/pic14/gen.c:2175:genCall
	CALL	_GPIO_InitPin
;; >>> /home/sdcc-builder/build/sdcc-build/orig/sdcc/src/pic14/gen.c:2181:genCall
	PAGESEL	$
;;; /home/sdcc-builder/build/sdcc-build/orig/sdcc/src/pic14/gen.c:1845:unsaveRegisters *{*
;; ***	unsaveRegisters  1847
;;; /home/sdcc-builder/build/sdcc-build/orig/sdcc/src/pic14/gen.c:2316:resultRemat *{*
;;; /home/sdcc-builder/build/sdcc-build/orig/sdcc/src/pic14/gen.c:2778:genGoto *{*
;; >>> /home/sdcc-builder/build/sdcc-build/orig/sdcc/src/pic14/gen.c:2780:genGoto
;; ***	popGetLabel  key=5, label offset 4
	.line	39; "SSD.c"	break ;
	GOTO	_00109_DS_
;;; /home/sdcc-builder/build/sdcc-build/orig/sdcc/src/pic14/gen.c:2316:resultRemat *{*
;;; /home/sdcc-builder/build/sdcc-build/orig/sdcc/src/pic14/gen.c:2760:genLabel *{*
;; ***	genLabel  2763
;;; /home/sdcc-builder/build/sdcc-build/orig/sdcc/src/pic14/gen.c:2316:resultRemat *{*
;;; /home/sdcc-builder/build/sdcc-build/orig/sdcc/src/pic14/gen.c:2316:resultRemat *{*
;;; /home/sdcc-builder/build/sdcc-build/orig/sdcc/src/pic14/gen.c:2316:resultRemat *{*
;;; /home/sdcc-builder/build/sdcc-build/orig/sdcc/src/pic14/gen.c:2316:resultRemat *{*
;;; /home/sdcc-builder/build/sdcc-build/orig/sdcc/src/pic14/gen.c:2086:genCall *{*
;; ***	genCall  2088
;;; /home/sdcc-builder/build/sdcc-build/orig/sdcc/src/pic14/gen.c:1801:saveRegisters *{*
;; ***	saveRegisters  1803
;; 	2135 left AOP_LIT
;;; /home/sdcc-builder/build/sdcc-build/orig/sdcc/src/pic14/gen.c:1343:mov2w_op *{*
;; >>> /home/sdcc-builder/build/sdcc-build/orig/sdcc/src/pic14/gen.c:1361:mov2w_op
_00107_DS_
	.line	41; "SSD.c"	GPIO_InitPin(PORT_B,5,PIN_OUT) ;
	MOVLW	0x00
;; 	2135 left AOP_LIT
;; >>> /home/sdcc-builder/build/sdcc-build/orig/sdcc/src/pic14/gen.c:2143:genCall
;; ***	popRegFromIdx,1042  , rIdx=0x7e
	MOVWF	STK01
;;; /home/sdcc-builder/build/sdcc-build/orig/sdcc/src/pic14/gen.c:1343:mov2w_op *{*
;; >>> /home/sdcc-builder/build/sdcc-build/orig/sdcc/src/pic14/gen.c:1361:mov2w_op
	MOVLW	0x05
;; 	2135 left AOP_LIT
;; >>> /home/sdcc-builder/build/sdcc-build/orig/sdcc/src/pic14/gen.c:2143:genCall
;; ***	popRegFromIdx,1042  , rIdx=0x7f
	MOVWF	STK00
;;; /home/sdcc-builder/build/sdcc-build/orig/sdcc/src/pic14/gen.c:1343:mov2w_op *{*
;; >>> /home/sdcc-builder/build/sdcc-build/orig/sdcc/src/pic14/gen.c:1361:mov2w_op
	MOVLW	0x01
;; >>> /home/sdcc-builder/build/sdcc-build/orig/sdcc/src/pic14/gen.c:2173:genCall
	PAGESEL	_GPIO_InitPin
;; >>> /home/sdcc-builder/build/sdcc-build/orig/sdcc/src/pic14/gen.c:2175:genCall
	CALL	_GPIO_InitPin
;; >>> /home/sdcc-builder/build/sdcc-build/orig/sdcc/src/pic14/gen.c:2181:genCall
	PAGESEL	$
;;; /home/sdcc-builder/build/sdcc-build/orig/sdcc/src/pic14/gen.c:1845:unsaveRegisters *{*
;; ***	unsaveRegisters  1847
;;; /home/sdcc-builder/build/sdcc-build/orig/sdcc/src/pic14/gen.c:2316:resultRemat *{*
;;; /home/sdcc-builder/build/sdcc-build/orig/sdcc/src/pic14/gen.c:2778:genGoto *{*
;; >>> /home/sdcc-builder/build/sdcc-build/orig/sdcc/src/pic14/gen.c:2780:genGoto
;; ***	popGetLabel  key=5, label offset 4
	.line	42; "SSD.c"	break ;
	GOTO	_00109_DS_
;;; /home/sdcc-builder/build/sdcc-build/orig/sdcc/src/pic14/gen.c:2316:resultRemat *{*
;;; /home/sdcc-builder/build/sdcc-build/orig/sdcc/src/pic14/gen.c:2760:genLabel *{*
;; ***	genLabel  2763
;;; /home/sdcc-builder/build/sdcc-build/orig/sdcc/src/pic14/gen.c:2316:resultRemat *{*
;;; /home/sdcc-builder/build/sdcc-build/orig/sdcc/src/pic14/gen.c:2316:resultRemat *{*
;;; /home/sdcc-builder/build/sdcc-build/orig/sdcc/src/pic14/gen.c:2316:resultRemat *{*
;;; /home/sdcc-builder/build/sdcc-build/orig/sdcc/src/pic14/gen.c:2316:resultRemat *{*
;;; /home/sdcc-builder/build/sdcc-build/orig/sdcc/src/pic14/gen.c:2086:genCall *{*
;; ***	genCall  2088
;;; /home/sdcc-builder/build/sdcc-build/orig/sdcc/src/pic14/gen.c:1801:saveRegisters *{*
;; ***	saveRegisters  1803
;; 	2135 left AOP_LIT
;;; /home/sdcc-builder/build/sdcc-build/orig/sdcc/src/pic14/gen.c:1343:mov2w_op *{*
;; >>> /home/sdcc-builder/build/sdcc-build/orig/sdcc/src/pic14/gen.c:1361:mov2w_op
_00108_DS_
	.line	44; "SSD.c"	GPIO_InitPin(PORT_B,4,PIN_OUT) ;
	MOVLW	0x00
;; 	2135 left AOP_LIT
;; >>> /home/sdcc-builder/build/sdcc-build/orig/sdcc/src/pic14/gen.c:2143:genCall
;; ***	popRegFromIdx,1042  , rIdx=0x7e
	MOVWF	STK01
;;; /home/sdcc-builder/build/sdcc-build/orig/sdcc/src/pic14/gen.c:1343:mov2w_op *{*
;; >>> /home/sdcc-builder/build/sdcc-build/orig/sdcc/src/pic14/gen.c:1361:mov2w_op
	MOVLW	0x04
;; 	2135 left AOP_LIT
;; >>> /home/sdcc-builder/build/sdcc-build/orig/sdcc/src/pic14/gen.c:2143:genCall
;; ***	popRegFromIdx,1042  , rIdx=0x7f
	MOVWF	STK00
;;; /home/sdcc-builder/build/sdcc-build/orig/sdcc/src/pic14/gen.c:1343:mov2w_op *{*
;; >>> /home/sdcc-builder/build/sdcc-build/orig/sdcc/src/pic14/gen.c:1361:mov2w_op
	MOVLW	0x01
;; >>> /home/sdcc-builder/build/sdcc-build/orig/sdcc/src/pic14/gen.c:2173:genCall
	PAGESEL	_GPIO_InitPin
;; >>> /home/sdcc-builder/build/sdcc-build/orig/sdcc/src/pic14/gen.c:2175:genCall
	CALL	_GPIO_InitPin
;; >>> /home/sdcc-builder/build/sdcc-build/orig/sdcc/src/pic14/gen.c:2181:genCall
	PAGESEL	$
;;; /home/sdcc-builder/build/sdcc-build/orig/sdcc/src/pic14/gen.c:1845:unsaveRegisters *{*
;; ***	unsaveRegisters  1847
;;; /home/sdcc-builder/build/sdcc-build/orig/sdcc/src/pic14/gen.c:2316:resultRemat *{*
;;; /home/sdcc-builder/build/sdcc-build/orig/sdcc/src/pic14/gen.c:2760:genLabel *{*
;; ***	genLabel  2763
;;; /home/sdcc-builder/build/sdcc-build/orig/sdcc/src/pic14/gen.c:2316:resultRemat *{*
;;; /home/sdcc-builder/build/sdcc-build/orig/sdcc/src/pic14/gen.c:2316:resultRemat *{*
;;; /home/sdcc-builder/build/sdcc-build/orig/sdcc/src/pic14/gen.c:2878:genMult *{*
;; ***	genMult  2880
;;	694 register type nRegs=1
;;	694 register type nRegs=2
;; 	line = 2886 result AOP_REG=r0x104B, size=2, left AOP_REG=r0x1048, size=1, right AOP_LIT=0x02, size=1
;;; /home/sdcc-builder/build/sdcc-build/orig/sdcc/src/pic14/gen.c:2816:genMultOneByte *{*
;; ***	genMultOneByte  2818
;; 	line = 2819 result AOP_REG=r0x104B, size=2, left AOP_REG=r0x1048, size=1, right AOP_LIT=0x02, size=1
;; 	line = 2820, signs: result AOP_REG=u, left AOP_REG=u, right AOP_LIT=u
;; ***	mov2w  1381  offset=0
;; >>> /home/sdcc-builder/build/sdcc-build/orig/sdcc/src/pic14/gen.c:1384:mov2w
_00109_DS_
	.line	48; "SSD.c"	SSD_IN_SYSTEM[ssd].DssdState = ssdState ;
	MOVLW	0x02
;; >>> /home/sdcc-builder/build/sdcc-build/orig/sdcc/src/pic14/gen.c:2840:genMultOneByte
;; ***	popRegFromIdx,1042  , rIdx=0x7f
	MOVWF	STK00
;; ***	mov2w  1381  offset=0
;; >>> /home/sdcc-builder/build/sdcc-build/orig/sdcc/src/pic14/gen.c:1386:mov2w
;;	1109 rIdx = r0x1048 
	BANKSEL	r0x101B
	MOVF	r0x101B,W
;; >>> /home/sdcc-builder/build/sdcc-build/orig/sdcc/src/pic14/gen.c:1433:call_libraryfunc
	PAGESEL	__mulchar
;; >>> /home/sdcc-builder/build/sdcc-build/orig/sdcc/src/pic14/gen.c:1435:call_libraryfunc
	CALL	__mulchar
;; >>> /home/sdcc-builder/build/sdcc-build/orig/sdcc/src/pic14/gen.c:1437:call_libraryfunc
	PAGESEL	$
;; >>> /home/sdcc-builder/build/sdcc-build/orig/sdcc/src/pic14/gen.c:1393:movwf
;;	1109 rIdx = r0x104B 
	BANKSEL	r0x101E
	MOVWF	r0x101E
;; ***	addSign  861
;;; /home/sdcc-builder/build/sdcc-build/orig/sdcc/src/pic14/genarith.c:862:addSign *{*
;; >>> /home/sdcc-builder/build/sdcc-build/orig/sdcc/src/pic14/genarith.c:881:addSign
;;	1109 rIdx = r0x104C 
	CLRF	r0x101F
;;; /home/sdcc-builder/build/sdcc-build/orig/sdcc/src/pic14/gen.c:2316:resultRemat *{*
;; ***	genPlus  611
;;; /home/sdcc-builder/build/sdcc-build/orig/sdcc/src/pic14/genarith.c:612:genPlus *{*
;;	613
;;	aopForRemat 392
;;	418: rname _SSD_IN_SYSTEM, val 0, const = 0
;;	694 register type nRegs=2
;;	694 register type nRegs=2
;;	833: aopGet AOP_PCODE type PO_IMMEDIATE
;;	_SSD_IN_SYSTEM
;; 	line = 618 result AOP_REG=r0x1048, size=2, left AOP_PCODE=_SSD_IN_SYSTEM, size=2, right AOP_REG=r0x104B, size=2
;;; /home/sdcc-builder/build/sdcc-build/orig/sdcc/src/pic14/genarith.c:142:genPlusIncr *{*
;; ***	genPlusIncr  144
;; 	result AOP_REG, left AOP_PCODE, right AOP_REG
;; ***	genPlus  717
;;	833: aopGet AOP_PCODE type PO_IMMEDIATE
;;	_SSD_IN_SYSTEM
;; >>> /home/sdcc-builder/build/sdcc-build/orig/sdcc/src/pic14/genarith.c:726:genPlus
;;	1109 rIdx = r0x104B 
	MOVF	r0x101E,W
;; >>> /home/sdcc-builder/build/sdcc-build/orig/sdcc/src/pic14/genarith.c:735:genPlus
	ADDLW	(_SSD_IN_SYSTEM + 0)
;; >>> /home/sdcc-builder/build/sdcc-build/orig/sdcc/src/pic14/genarith.c:736:genPlus
;;	1109 rIdx = r0x1048 
	MOVWF	r0x101B
;; >>> /home/sdcc-builder/build/sdcc-build/orig/sdcc/src/pic14/genarith.c:771:genPlus
	MOVLW	high (_SSD_IN_SYSTEM + 0)
;; >>> /home/sdcc-builder/build/sdcc-build/orig/sdcc/src/pic14/genarith.c:772:genPlus
;;	1109 rIdx = r0x104D 
	MOVWF	r0x1020
;; >>> /home/sdcc-builder/build/sdcc-build/orig/sdcc/src/pic14/genarith.c:774:genPlus
;;	1109 rIdx = r0x104C 
	MOVLW	0x00
;; >>> /home/sdcc-builder/build/sdcc-build/orig/sdcc/src/pic14/genarith.c:775:genPlus
	BTFSC	STATUS,0
;; >>> /home/sdcc-builder/build/sdcc-build/orig/sdcc/src/pic14/genarith.c:776:genPlus
;;	1109 rIdx = r0x104C 
	INCFSZ	r0x101F,W
;; >>> /home/sdcc-builder/build/sdcc-build/orig/sdcc/src/pic14/genarith.c:777:genPlus
;;	1109 rIdx = r0x104D 
	ADDWF	r0x1020,F
;;; /home/sdcc-builder/build/sdcc-build/orig/sdcc/src/pic14/gen.c:2316:resultRemat *{*
;;; /home/sdcc-builder/build/sdcc-build/orig/sdcc/src/pic14/gen.c:6686:genPointerSet *{*
;; ***	genPointerSet  6687
;;; /home/sdcc-builder/build/sdcc-build/orig/sdcc/src/pic14/gen.c:6505:genNearPointerSet *{*
;; ***	genNearPointerSet  6506
;;	694 register type nRegs=2
;; ***	genNearPointerSet  6521
;;	694 register type nRegs=1
;; 	line = 6523 result AOP_REG=r0x1048, size=2, left -=-, size=0, right AOP_REG=r0x1049, size=1
;;; /home/sdcc-builder/build/sdcc-build/orig/sdcc/src/pic14/gen.c:1343:mov2w_op *{*
;; ***	mov2w  1381  offset=0
;; >>> /home/sdcc-builder/build/sdcc-build/orig/sdcc/src/pic14/gen.c:1386:mov2w
;;	1109 rIdx = r0x1048 
	MOVF	r0x101B,W
;; >>> /home/sdcc-builder/build/sdcc-build/orig/sdcc/src/pic14/gen.c:5602:setup_fsr
	BANKSEL	FSR
	MOVWF	FSR
;;; /home/sdcc-builder/build/sdcc-build/orig/sdcc/src/pic14/gen.c:5553:SetIrp *{*
;; >>> /home/sdcc-builder/build/sdcc-build/orig/sdcc/src/pic14/gen.c:5580:SetIrp
	BCF	STATUS,7
;; >>> /home/sdcc-builder/build/sdcc-build/orig/sdcc/src/pic14/gen.c:5583:SetIrp
	BANKSEL	r0x1020
	BTFSC	r0x1020,0
;; >>> /home/sdcc-builder/build/sdcc-build/orig/sdcc/src/pic14/gen.c:5584:SetIrp
	BSF	STATUS,7
;; ***	genNearPointerSet  6548
;; >>> /home/sdcc-builder/build/sdcc-build/orig/sdcc/src/pic14/gen.c:6564:genNearPointerSet
;;	1109 rIdx = r0x1049 
	MOVF	r0x101C,W
;; >>> /home/sdcc-builder/build/sdcc-build/orig/sdcc/src/pic14/gen.c:6569:genNearPointerSet
	BANKSEL	INDF
	MOVWF	INDF
;; ***	genNearPointerSet  6577
;; ***	genNearPointerSet  6603
;;; /home/sdcc-builder/build/sdcc-build/orig/sdcc/src/pic14/gen.c:2316:resultRemat *{*
;; ***	genPlus  611
;;; /home/sdcc-builder/build/sdcc-build/orig/sdcc/src/pic14/genarith.c:612:genPlus *{*
;;	613
;;	aopForRemat 392
;;	418: rname _SSD_IN_SYSTEM, val 0, const = 0
;;	694 register type nRegs=2
;;	694 register type nRegs=2
;;	833: aopGet AOP_PCODE type PO_IMMEDIATE
;;	_SSD_IN_SYSTEM
;; 	line = 618 result AOP_REG=r0x104B, size=2, left AOP_PCODE=_SSD_IN_SYSTEM, size=2, right AOP_REG=r0x104B, size=2
;;; /home/sdcc-builder/build/sdcc-build/orig/sdcc/src/pic14/genarith.c:142:genPlusIncr *{*
;; ***	genPlusIncr  144
;; 	result AOP_REG, left AOP_PCODE, right AOP_REG
;; ***	genPlus  717
;;	833: aopGet AOP_PCODE type PO_IMMEDIATE
;;	_SSD_IN_SYSTEM
;; >>> /home/sdcc-builder/build/sdcc-build/orig/sdcc/src/pic14/genarith.c:726:genPlus
;;	1109 rIdx = r0x104B 
	.line	49; "SSD.c"	SSD_IN_SYSTEM[ssd].DssdSymbol = ssdSymbol ;
	BANKSEL	r0x101E
	MOVF	r0x101E,W
;; >>> /home/sdcc-builder/build/sdcc-build/orig/sdcc/src/pic14/genarith.c:735:genPlus
	ADDLW	(_SSD_IN_SYSTEM + 0)
;; >>> /home/sdcc-builder/build/sdcc-build/orig/sdcc/src/pic14/genarith.c:736:genPlus
;;	1109 rIdx = r0x104B 
	MOVWF	r0x101E
;; >>> /home/sdcc-builder/build/sdcc-build/orig/sdcc/src/pic14/genarith.c:749:genPlus
;;	1109 rIdx = r0x104C 
	MOVF	r0x101F,W
;; >>> /home/sdcc-builder/build/sdcc-build/orig/sdcc/src/pic14/genarith.c:750:genPlus
	BTFSC	STATUS,0
;; >>> /home/sdcc-builder/build/sdcc-build/orig/sdcc/src/pic14/genarith.c:751:genPlus
;;	1109 rIdx = r0x104C 
	INCFSZ	r0x101F,W
;; >>> /home/sdcc-builder/build/sdcc-build/orig/sdcc/src/pic14/genarith.c:752:genPlus
	ADDLW	high (_SSD_IN_SYSTEM + 0)
;; >>> /home/sdcc-builder/build/sdcc-build/orig/sdcc/src/pic14/genarith.c:753:genPlus
;;	1109 rIdx = r0x104C 
	MOVWF	r0x101F
;;; /home/sdcc-builder/build/sdcc-build/orig/sdcc/src/pic14/gen.c:2316:resultRemat *{*
;; ***	genPlus  611
;;; /home/sdcc-builder/build/sdcc-build/orig/sdcc/src/pic14/genarith.c:612:genPlus *{*
;;	694 register type nRegs=2
;;	694 register type nRegs=2
;; 	line = 618 result AOP_REG=r0x104B, size=2, left AOP_REG=r0x104B, size=2, right AOP_LIT=0x01, size=1
;;; /home/sdcc-builder/build/sdcc-build/orig/sdcc/src/pic14/genarith.c:142:genPlusIncr *{*
;; ***	genPlusIncr  144
;; 	result AOP_REG, left AOP_REG, right AOP_LIT
;; 	genPlusIncr  156
;; >>> /home/sdcc-builder/build/sdcc-build/orig/sdcc/src/pic14/genarith.c:168:genPlusIncr
;;	1109 rIdx = r0x104B 
	INCF	r0x101E,F
;; >>> /home/sdcc-builder/build/sdcc-build/orig/sdcc/src/pic14/genarith.c:172:genPlusIncr
	BTFSC	STATUS,2
;; >>> /home/sdcc-builder/build/sdcc-build/orig/sdcc/src/pic14/genarith.c:173:genPlusIncr
;;	1109 rIdx = r0x104C 
	INCF	r0x101F,F
;;; /home/sdcc-builder/build/sdcc-build/orig/sdcc/src/pic14/gen.c:2316:resultRemat *{*
;;; /home/sdcc-builder/build/sdcc-build/orig/sdcc/src/pic14/gen.c:6686:genPointerSet *{*
;; ***	genPointerSet  6687
;;; /home/sdcc-builder/build/sdcc-build/orig/sdcc/src/pic14/gen.c:6505:genNearPointerSet *{*
;; ***	genNearPointerSet  6506
;;	694 register type nRegs=2
;; ***	genNearPointerSet  6521
;;	694 register type nRegs=1
;; 	line = 6523 result AOP_REG=r0x104B, size=2, left -=-, size=0, right AOP_REG=r0x104A, size=1
;;; /home/sdcc-builder/build/sdcc-build/orig/sdcc/src/pic14/gen.c:1343:mov2w_op *{*
;; ***	mov2w  1381  offset=0
;; >>> /home/sdcc-builder/build/sdcc-build/orig/sdcc/src/pic14/gen.c:1386:mov2w
;;	1109 rIdx = r0x104B 
	MOVF	r0x101E,W
;; >>> /home/sdcc-builder/build/sdcc-build/orig/sdcc/src/pic14/gen.c:5602:setup_fsr
	BANKSEL	FSR
	MOVWF	FSR
;;; /home/sdcc-builder/build/sdcc-build/orig/sdcc/src/pic14/gen.c:5553:SetIrp *{*
;; >>> /home/sdcc-builder/build/sdcc-build/orig/sdcc/src/pic14/gen.c:5580:SetIrp
	BCF	STATUS,7
;; >>> /home/sdcc-builder/build/sdcc-build/orig/sdcc/src/pic14/gen.c:5583:SetIrp
	BANKSEL	r0x101F
	BTFSC	r0x101F,0
;; >>> /home/sdcc-builder/build/sdcc-build/orig/sdcc/src/pic14/gen.c:5584:SetIrp
	BSF	STATUS,7
;; ***	genNearPointerSet  6548
;; >>> /home/sdcc-builder/build/sdcc-build/orig/sdcc/src/pic14/gen.c:6564:genNearPointerSet
;;	1109 rIdx = r0x104A 
	MOVF	r0x101D,W
;; >>> /home/sdcc-builder/build/sdcc-build/orig/sdcc/src/pic14/gen.c:6569:genNearPointerSet
	BANKSEL	INDF
	MOVWF	INDF
;; ***	genNearPointerSet  6577
;; ***	genNearPointerSet  6603
;;; /home/sdcc-builder/build/sdcc-build/orig/sdcc/src/pic14/gen.c:2316:resultRemat *{*
;;; /home/sdcc-builder/build/sdcc-build/orig/sdcc/src/pic14/gen.c:2760:genLabel *{*
;; ***	genLabel  2763
;;; /home/sdcc-builder/build/sdcc-build/orig/sdcc/src/pic14/gen.c:2316:resultRemat *{*
;;; /home/sdcc-builder/build/sdcc-build/orig/sdcc/src/pic14/gen.c:2528:genEndFunction *{*
;; ***	genEndFunction  2530
	RETURN	
; exit point of _SSD_Init
;;; /home/sdcc-builder/build/sdcc-build/orig/sdcc/src/pic14/gen.c:7426:genpic14Code *{*


;	code size estimation:
;	  286+   82 =   368 instructions (  900 byte)

	end
