gpasm-1.4.0 #1106 (Oct  6 2014) obj\Debug\gpi   5-11-2022  02:00:26         PAGE  1


LOC    OBJECT CODE    LINE  SOURCE TEXT
  VALUE

                      00001 ;--------------------------------------------------------
                      00002 ; File Created by SDCC : free open source ANSI-C Compiler
                      00003 ; Version 3.5.0 #9253 (Jun 20 2015) (MINGW32)
                      00004 ; This file was generated Wed May 11 02:00:26 2022
                      00005 ;--------------------------------------------------------
                      00006 ; PIC port for the 14-bit core
                      00007 ;--------------------------------------------------------
                      00008         .file   "gpio.c"
                      00009         list    p=16f877a
                      00010         radix dec
                      00011         include "p16f877a.inc"
                      00001         LIST
                      00002 
                      00003 ;==========================================================================
                      00004 ; Build date : Aug 07 2014
                      00005 ;  MPASM PIC16F877A processor include
                      00006 ; 
                      00007 ;  (c) Copyright 1999-2014 Microchip Technology, All rights reserved
                      00008 ;==========================================================================
                      00009 
                      00567         LIST
                      00012 ;--------------------------------------------------------
                      00013 ; external declarations
                      00014 ;--------------------------------------------------------
  0000                00015         extern  _Delay_ms
  0000                00016         extern  _STATUSbits
  0000                00017         extern  _PORTAbits
  0000                00018         extern  _PORTBbits
  0000                00019         extern  _PORTCbits
  0000                00020         extern  _PORTDbits
  0000                00021         extern  _PORTEbits
  0000                00022         extern  _INTCONbits
  0000                00023         extern  _PIR1bits
  0000                00024         extern  _PIR2bits
  0000                00025         extern  _T1CONbits
  0000                00026         extern  _T2CONbits
  0000                00027         extern  _SSPCONbits
  0000                00028         extern  _CCP1CONbits
  0000                00029         extern  _RCSTAbits
  0000                00030         extern  _CCP2CONbits
  0000                00031         extern  _ADCON0bits
  0000                00032         extern  _OPTION_REGbits
  0000                00033         extern  _TRISAbits
  0000                00034         extern  _TRISBbits
  0000                00035         extern  _TRISCbits
  0000                00036         extern  _TRISDbits
  0000                00037         extern  _TRISEbits
  0000                00038         extern  _PIE1bits
  0000                00039         extern  _PIE2bits
  0000                00040         extern  _PCONbits
  0000                00041         extern  _SSPCON2bits
  0000                00042         extern  _SSPSTATbits
  0000                00043         extern  _TXSTAbits
gpasm-1.4.0 #1106 (Oct  6 2014) obj\Debug\gpi   5-11-2022  02:00:26         PAGE  2


LOC    OBJECT CODE    LINE  SOURCE TEXT
  VALUE

  0000                00044         extern  _CMCONbits
  0000                00045         extern  _CVRCONbits
  0000                00046         extern  _ADCON1bits
  0000                00047         extern  _EECON1bits
  0000                00048         extern  _INDF
  0000                00049         extern  _TMR0
  0000                00050         extern  _PCL
  0000                00051         extern  _STATUS
  0000                00052         extern  _FSR
  0000                00053         extern  _PORTA
  0000                00054         extern  _PORTB
  0000                00055         extern  _PORTC
  0000                00056         extern  _PORTD
  0000                00057         extern  _PORTE
  0000                00058         extern  _PCLATH
  0000                00059         extern  _INTCON
  0000                00060         extern  _PIR1
  0000                00061         extern  _PIR2
  0000                00062         extern  _TMR1
  0000                00063         extern  _TMR1L
  0000                00064         extern  _TMR1H
  0000                00065         extern  _T1CON
  0000                00066         extern  _TMR2
  0000                00067         extern  _T2CON
  0000                00068         extern  _SSPBUF
  0000                00069         extern  _SSPCON
  0000                00070         extern  _CCPR1
  0000                00071         extern  _CCPR1L
  0000                00072         extern  _CCPR1H
  0000                00073         extern  _CCP1CON
  0000                00074         extern  _RCSTA
  0000                00075         extern  _TXREG
  0000                00076         extern  _RCREG
  0000                00077         extern  _CCPR2
  0000                00078         extern  _CCPR2L
  0000                00079         extern  _CCPR2H
  0000                00080         extern  _CCP2CON
  0000                00081         extern  _ADRESH
  0000                00082         extern  _ADCON0
  0000                00083         extern  _OPTION_REG
  0000                00084         extern  _TRISA
  0000                00085         extern  _TRISB
  0000                00086         extern  _TRISC
  0000                00087         extern  _TRISD
  0000                00088         extern  _TRISE
  0000                00089         extern  _PIE1
  0000                00090         extern  _PIE2
  0000                00091         extern  _PCON
  0000                00092         extern  _SSPCON2
  0000                00093         extern  _PR2
  0000                00094         extern  _SSPADD
  0000                00095         extern  _SSPSTAT
  0000                00096         extern  _TXSTA
gpasm-1.4.0 #1106 (Oct  6 2014) obj\Debug\gpi   5-11-2022  02:00:26         PAGE  3


LOC    OBJECT CODE    LINE  SOURCE TEXT
  VALUE

  0000                00097         extern  _SPBRG
  0000                00098         extern  _CMCON
  0000                00099         extern  _CVRCON
  0000                00100         extern  _ADRESL
  0000                00101         extern  _ADCON1
  0000                00102         extern  _EEDATA
  0000                00103         extern  _EEADR
  0000                00104         extern  _EEDATH
  0000                00105         extern  _EEADRH
  0000                00106         extern  _EECON1
  0000                00107         extern  _EECON2
                      00108 
  0000                00109         extern PSAVE
  0000                00110         extern SSAVE
  0000                00111         extern WSAVE
  0000                00112         extern STK12
  0000                00113         extern STK11
  0000                00114         extern STK10
  0000                00115         extern STK09
  0000                00116         extern STK08
  0000                00117         extern STK07
  0000                00118         extern STK06
  0000                00119         extern STK05
  0000                00120         extern STK04
  0000                00121         extern STK03
  0000                00122         extern STK02
  0000                00123         extern STK01
  0000                00124         extern STK00
                      00125 ;--------------------------------------------------------
                      00126 ; global declarations
                      00127 ;--------------------------------------------------------
  0000                00128         global  _GPIO_PortToggle
  0000                00129         global  _GPIO_BitToggle
  0000                00130         global  _GPIO_GetPortState
  0000                00131         global  _GPIO_GetPinState
  0000                00132         global  _GPIO_SetPortState
  0000                00133         global  _GPIO_SetPinState
  0000                00134         global  _GPIO_InitPort
  0000                00135         global  _GPIO_InitPin
                      00136 
                      00137 ;--------------------------------------------------------
                      00138 ; global definitions
                      00139 ;--------------------------------------------------------
                      00140 ;--------------------------------------------------------
                      00141 ; absolute symbol definitions
                      00142 ;--------------------------------------------------------
                      00143 ;--------------------------------------------------------
                      00144 ; compiler-defined variables
                      00145 ;--------------------------------------------------------
                      00146 UDL_gpio_0      udata
0000                  00147 r0x101B res     1
0001                  00148 r0x101C res     1
0002                  00149 r0x101D res     1
gpasm-1.4.0 #1106 (Oct  6 2014) obj\Debug\gpi   5-11-2022  02:00:26         PAGE  4


LOC    OBJECT CODE    LINE  SOURCE TEXT
  VALUE

0003                  00150 r0x101E res     1
0004                  00151 r0x1019 res     1
0005                  00152 r0x101A res     1
0006                  00153 r0x1015 res     1
0007                  00154 r0x1016 res     1
0008                  00155 r0x1017 res     1
0009                  00156 r0x1018 res     1
000A                  00157 r0x1013 res     1
000B                  00158 r0x1014 res     1
000C                  00159 r0x100D res     1
000D                  00160 r0x100E res     1
000E                  00161 r0x100F res     1
000F                  00162 r0x1010 res     1
0010                  00163 r0x1011 res     1
0011                  00164 r0x1012 res     1
0012                  00165 r0x100B res     1
0013                  00166 r0x100C res     1
0014                  00167 r0x1001 res     1
0015                  00168 r0x1002 res     1
0016                  00169 r0x1003 res     1
0017                  00170 r0x1004 res     1
0018                  00171 r0x1005 res     1
0019                  00172 r0x1006 res     1
001A                  00173 r0x1007 res     1
001B                  00174 r0x1008 res     1
001C                  00175 r0x1009 res     1
001D                  00176 r0x100A res     1
001E                  00177 r0x1000 res     1
                      00178 ;--------------------------------------------------------
                      00179 ; initialized data
                      00180 ;--------------------------------------------------------
                      00181 ;--------------------------------------------------------
                      00182 ; overlayable items in internal ram 
                      00183 ;--------------------------------------------------------
                      00184 ;       udata_ovr
                      00185 ;--------------------------------------------------------
                      00186 ; code
                      00187 ;--------------------------------------------------------
                      00188 code_gpio       code
                      00189 ;***
                      00190 ;  pBlock Stats: dbName = C
                      00191 ;***
                      00192 ;entry:  _GPIO_PortToggle       ;Function start
                      00193 ; 2 exit points
                      00194 ;has an exit
                      00195 ;1 compiler assigned register :
                      00196 ;   r0x1000
                      00197 ;; Starting pCode block
                      00198 ;;; /home/sdcc-builder/build/sdcc-build/orig/sdcc/src/pic14/gen.c:2316:resultRemat *{*
                      00199 ;;; /home/sdcc-builder/build/sdcc-build/orig/sdcc/src/pic14/gen.c:2760:genLabel *{*
                      00200 ;; ***  genLabel  2763
                      00201 ;;; /home/sdcc-builder/build/sdcc-build/orig/sdcc/src/pic14/gen.c:2316:resultRemat *{*
                      00202 ;;; /home/sdcc-builder/build/sdcc-build/orig/sdcc/src/pic14/gen.c:2340:genFunction *{*
gpasm-1.4.0 #1106 (Oct  6 2014) obj\Debug\gpi   5-11-2022  02:00:26         PAGE  5


LOC    OBJECT CODE    LINE  SOURCE TEXT
  VALUE

                      00203 ;; ***  genFunction  2342 curr label offset=166previous max_key=53 
0000                  00204 _GPIO_PortToggle        ;Function start
                      00205 ; 2 exit points
                      00206 ;;; /home/sdcc-builder/build/sdcc-build/orig/sdcc/src/pic14/gen.c:2316:resultRemat *{*
                      00207 ;;; /home/sdcc-builder/build/sdcc-build/orig/sdcc/src/pic14/gen.c:7358:genReceive *{*
                      00208 ;; ***  genReceive  7359
                      00209 ;;      694 register type nRegs=1
                      00210 ;;; /home/sdcc-builder/build/sdcc-build/orig/sdcc/src/pic14/gen.c:1907:assignResultValue *{*
                      00211 ;; ***  assignResultValue  1909
                      00212 ;;      line = 1911 result -=-, size=0, left AOP_REG=r0x1067, size=1, right -=-, size=0
                      00213 ;; >>> /home/sdcc-builder/build/sdcc-build/orig/sdcc/src/pic14/gen.c:1393:movwf
                      00214 ;;      1109 rIdx = r0x1067 
                      00215         .line   161; "gpio.c"   void GPIO_PortToggle(tPORT port)
0000   ???? ????      00216         BANKSEL r0x1000
0002   00??           00217         MOVWF   r0x1000
                      00218 ;;; /home/sdcc-builder/build/sdcc-build/orig/sdcc/src/pic14/gen.c:2316:resultRemat *{*
                      00219 ;;; /home/sdcc-builder/build/sdcc-build/orig/sdcc/src/pic14/gen.c:3547:genCmpGt *{*
                      00220 ;; ***  genCmpGt  3548
                      00221 ;;      694 register type nRegs=1
                      00222 ;;; /home/sdcc-builder/build/sdcc-build/orig/sdcc/src/pic14/gen.c:3294:genCmp *{*
                      00223 ;;swapping arguments (AOP_TYPEs 1/2)
                      00224 ;;unsigned compare: left >= lit(0x5=5), size=1
                      00225 ;; >>> /home/sdcc-builder/build/sdcc-build/orig/sdcc/src/pic14/gen.c:3265:pic14_mov2w_regOrLit
                      00226         .line   163; "gpio.c"   switch(port)
0003   3005           00227         MOVLW   0x05
                      00228 ;; >>> /home/sdcc-builder/build/sdcc-build/orig/sdcc/src/pic14/gen.c:3432:genCmp
                      00229 ;;      1109 rIdx = r0x1067 
0004   02??           00230         SUBWF   r0x1000,W
                      00231 ;;; /home/sdcc-builder/build/sdcc-build/orig/sdcc/src/pic14/gen.c:3237:genSkipc *{*
                      00232 ;; >>> /home/sdcc-builder/build/sdcc-build/orig/sdcc/src/pic14/gen.c:3242:genSkipc
0005   1803           00233         BTFSC   STATUS,0
                      00234 ;; >>> /home/sdcc-builder/build/sdcc-build/orig/sdcc/src/pic14/gen.c:3246:genSkipc
                      00235 ;; ***  popGetLabel  key=7, label offset 223
0006   2???           00236         GOTO    _00330_DS_
                      00237 ;;genSkipc:3247: created from rifx:027A5DF4
                      00238 ;;; /home/sdcc-builder/build/sdcc-build/orig/sdcc/src/pic14/gen.c:2316:resultRemat *{*
                      00239 ;;; /home/sdcc-builder/build/sdcc-build/orig/sdcc/src/pic14/gen.c:2316:resultRemat *{*
                      00240 ;;; /home/sdcc-builder/build/sdcc-build/orig/sdcc/src/pic14/gen.c:7071:genJumpTab *{*
                      00241 ;; ***  genJumpTab  7072
                      00242 ;;      694 register type nRegs=1
                      00243 ;; >>> /home/sdcc-builder/build/sdcc-build/orig/sdcc/src/pic14/gen.c:7087:genJumpTab
                      00244 ;; ***  popGetLabel  key=13, label offset 223
0007   30??           00245         MOVLW   HIGH(_00336_DS_)
                      00246 ;; >>> /home/sdcc-builder/build/sdcc-build/orig/sdcc/src/pic14/gen.c:7088:genJumpTab
0008   1283 1303      00247         BANKSEL PCLATH
000A   008A           00248         MOVWF   PCLATH
                      00249 ;; >>> /home/sdcc-builder/build/sdcc-build/orig/sdcc/src/pic14/gen.c:7089:genJumpTab
                      00250 ;; ***  popGetLabel  key=13, label offset 223
000B   30??           00251         MOVLW   _00336_DS_
                      00252 ;; >>> /home/sdcc-builder/build/sdcc-build/orig/sdcc/src/pic14/gen.c:7090:genJumpTab
                      00253 ;;      1109 rIdx = r0x1067 
000C   ???? ????      00254         BANKSEL r0x1000
000E   07??           00255         ADDWF   r0x1000,W
gpasm-1.4.0 #1106 (Oct  6 2014) obj\Debug\gpi   5-11-2022  02:00:26         PAGE  6


LOC    OBJECT CODE    LINE  SOURCE TEXT
  VALUE

                      00256 ;; >>> /home/sdcc-builder/build/sdcc-build/orig/sdcc/src/pic14/gen.c:7091:genJumpTab
000F   1C03           00257         BTFSS   STATUS,0
0010   2???           00258         GOTO    _00001_DS_
                      00259 ;; >>> /home/sdcc-builder/build/sdcc-build/orig/sdcc/src/pic14/gen.c:7092:genJumpTab
0011   1283 1303      00260         BANKSEL PCLATH
0013   0A8A           00261         INCF    PCLATH,F
                      00262 ;; >>> /home/sdcc-builder/build/sdcc-build/orig/sdcc/src/pic14/gen.c:7093:genJumpTab
0014                  00263 _00001_DS_
0014   0082           00264         MOVWF   PCL
                      00265 ;; >>> /home/sdcc-builder/build/sdcc-build/orig/sdcc/src/pic14/gen.c:7102:genJumpTab
                      00266 ;; ***  popGetLabel  key=1, label offset 223
0015                  00267 _00336_DS_
0015   2???           00268         GOTO    _00324_DS_
                      00269 ;; >>> /home/sdcc-builder/build/sdcc-build/orig/sdcc/src/pic14/gen.c:7102:genJumpTab
                      00270 ;; ***  popGetLabel  key=2, label offset 223
0016   2???           00271         GOTO    _00325_DS_
                      00272 ;; >>> /home/sdcc-builder/build/sdcc-build/orig/sdcc/src/pic14/gen.c:7102:genJumpTab
                      00273 ;; ***  popGetLabel  key=3, label offset 223
0017   2???           00274         GOTO    _00326_DS_
                      00275 ;; >>> /home/sdcc-builder/build/sdcc-build/orig/sdcc/src/pic14/gen.c:7102:genJumpTab
                      00276 ;; ***  popGetLabel  key=4, label offset 223
0018   2???           00277         GOTO    _00327_DS_
                      00278 ;; >>> /home/sdcc-builder/build/sdcc-build/orig/sdcc/src/pic14/gen.c:7102:genJumpTab
                      00279 ;; ***  popGetLabel  key=5, label offset 223
0019   2???           00280         GOTO    _00328_DS_
                      00281 ;;; /home/sdcc-builder/build/sdcc-build/orig/sdcc/src/pic14/gen.c:2316:resultRemat *{*
                      00282 ;;; /home/sdcc-builder/build/sdcc-build/orig/sdcc/src/pic14/gen.c:2760:genLabel *{*
                      00283 ;; ***  genLabel  2763
                      00284 ;;; /home/sdcc-builder/build/sdcc-build/orig/sdcc/src/pic14/gen.c:2316:resultRemat *{*
                      00285 ;;; /home/sdcc-builder/build/sdcc-build/orig/sdcc/src/pic14/gen.c:1609:genCpl *{*
                      00286 ;; ***  genCpl  1611
                      00287 ;; ***  aopForSym 315
                      00288 ;;      327 sym->rname = _PORTA, size = 1
                      00289 ;;      575
                      00290 ;; >>> /home/sdcc-builder/build/sdcc-build/orig/sdcc/src/pic14/gen.c:1631:genCpl
                      00291 ;;      1009
                      00292 ;;      1028  _PORTA   offset=0
001A                  00293 _00324_DS_
                      00294         .line   166; "gpio.c"   PORTA = (~PORTA) ;
001A   ???? ????      00295         BANKSEL _PORTA
001C   09??           00296         COMF    _PORTA,W
                      00297 ;; >>> /home/sdcc-builder/build/sdcc-build/orig/sdcc/src/pic14/gen.c:1632:genCpl
                      00298 ;;      1009
                      00299 ;;      1028  _PORTA   offset=0
001D   00??           00300         MOVWF   _PORTA
                      00301 ;; ***  addSign  861
                      00302 ;;; /home/sdcc-builder/build/sdcc-build/orig/sdcc/src/pic14/genarith.c:862:addSign *{*
                      00303 ;;; /home/sdcc-builder/build/sdcc-build/orig/sdcc/src/pic14/gen.c:2316:resultRemat *{*
                      00304 ;;; /home/sdcc-builder/build/sdcc-build/orig/sdcc/src/pic14/gen.c:2778:genGoto *{*
                      00305 ;; >>> /home/sdcc-builder/build/sdcc-build/orig/sdcc/src/pic14/gen.c:2780:genGoto
                      00306 ;; ***  popGetLabel  key=7, label offset 223
                      00307         .line   167; "gpio.c"   break ;
001E   2???           00308         GOTO    _00330_DS_
gpasm-1.4.0 #1106 (Oct  6 2014) obj\Debug\gpi   5-11-2022  02:00:26         PAGE  7


LOC    OBJECT CODE    LINE  SOURCE TEXT
  VALUE

                      00309 ;;; /home/sdcc-builder/build/sdcc-build/orig/sdcc/src/pic14/gen.c:2316:resultRemat *{*
                      00310 ;;; /home/sdcc-builder/build/sdcc-build/orig/sdcc/src/pic14/gen.c:2760:genLabel *{*
                      00311 ;; ***  genLabel  2763
                      00312 ;;; /home/sdcc-builder/build/sdcc-build/orig/sdcc/src/pic14/gen.c:2316:resultRemat *{*
                      00313 ;;; /home/sdcc-builder/build/sdcc-build/orig/sdcc/src/pic14/gen.c:1609:genCpl *{*
                      00314 ;; ***  genCpl  1611
                      00315 ;; ***  aopForSym 315
                      00316 ;;      327 sym->rname = _PORTB, size = 1
                      00317 ;;      575
                      00318 ;; >>> /home/sdcc-builder/build/sdcc-build/orig/sdcc/src/pic14/gen.c:1631:genCpl
                      00319 ;;      1009
                      00320 ;;      1028  _PORTB   offset=0
001F                  00321 _00325_DS_
                      00322         .line   169; "gpio.c"   PORTB = (~PORTB) ;
001F   ???? ????      00323         BANKSEL _PORTB
0021   09??           00324         COMF    _PORTB,W
                      00325 ;; >>> /home/sdcc-builder/build/sdcc-build/orig/sdcc/src/pic14/gen.c:1632:genCpl
                      00326 ;;      1009
                      00327 ;;      1028  _PORTB   offset=0
0022   00??           00328         MOVWF   _PORTB
                      00329 ;; ***  addSign  861
                      00330 ;;; /home/sdcc-builder/build/sdcc-build/orig/sdcc/src/pic14/genarith.c:862:addSign *{*
                      00331 ;;; /home/sdcc-builder/build/sdcc-build/orig/sdcc/src/pic14/gen.c:2316:resultRemat *{*
                      00332 ;;; /home/sdcc-builder/build/sdcc-build/orig/sdcc/src/pic14/gen.c:2778:genGoto *{*
                      00333 ;; >>> /home/sdcc-builder/build/sdcc-build/orig/sdcc/src/pic14/gen.c:2780:genGoto
                      00334 ;; ***  popGetLabel  key=7, label offset 223
                      00335         .line   170; "gpio.c"   break ;
0023   2???           00336         GOTO    _00330_DS_
                      00337 ;;; /home/sdcc-builder/build/sdcc-build/orig/sdcc/src/pic14/gen.c:2316:resultRemat *{*
                      00338 ;;; /home/sdcc-builder/build/sdcc-build/orig/sdcc/src/pic14/gen.c:2760:genLabel *{*
                      00339 ;; ***  genLabel  2763
                      00340 ;;; /home/sdcc-builder/build/sdcc-build/orig/sdcc/src/pic14/gen.c:2316:resultRemat *{*
                      00341 ;;; /home/sdcc-builder/build/sdcc-build/orig/sdcc/src/pic14/gen.c:1609:genCpl *{*
                      00342 ;; ***  genCpl  1611
                      00343 ;; ***  aopForSym 315
                      00344 ;;      327 sym->rname = _PORTC, size = 1
                      00345 ;;      575
                      00346 ;; >>> /home/sdcc-builder/build/sdcc-build/orig/sdcc/src/pic14/gen.c:1631:genCpl
                      00347 ;;      1009
                      00348 ;;      1028  _PORTC   offset=0
0024                  00349 _00326_DS_
                      00350         .line   172; "gpio.c"   PORTC = (~PORTC) ;
0024   ???? ????      00351         BANKSEL _PORTC
0026   09??           00352         COMF    _PORTC,W
                      00353 ;; >>> /home/sdcc-builder/build/sdcc-build/orig/sdcc/src/pic14/gen.c:1632:genCpl
                      00354 ;;      1009
                      00355 ;;      1028  _PORTC   offset=0
0027   00??           00356         MOVWF   _PORTC
                      00357 ;; ***  addSign  861
                      00358 ;;; /home/sdcc-builder/build/sdcc-build/orig/sdcc/src/pic14/genarith.c:862:addSign *{*
                      00359 ;;; /home/sdcc-builder/build/sdcc-build/orig/sdcc/src/pic14/gen.c:2316:resultRemat *{*
                      00360 ;;; /home/sdcc-builder/build/sdcc-build/orig/sdcc/src/pic14/gen.c:2778:genGoto *{*
                      00361 ;; >>> /home/sdcc-builder/build/sdcc-build/orig/sdcc/src/pic14/gen.c:2780:genGoto
gpasm-1.4.0 #1106 (Oct  6 2014) obj\Debug\gpi   5-11-2022  02:00:26         PAGE  8


LOC    OBJECT CODE    LINE  SOURCE TEXT
  VALUE

                      00362 ;; ***  popGetLabel  key=7, label offset 223
                      00363         .line   173; "gpio.c"   break ;
0028   2???           00364         GOTO    _00330_DS_
                      00365 ;;; /home/sdcc-builder/build/sdcc-build/orig/sdcc/src/pic14/gen.c:2316:resultRemat *{*
                      00366 ;;; /home/sdcc-builder/build/sdcc-build/orig/sdcc/src/pic14/gen.c:2760:genLabel *{*
                      00367 ;; ***  genLabel  2763
                      00368 ;;; /home/sdcc-builder/build/sdcc-build/orig/sdcc/src/pic14/gen.c:2316:resultRemat *{*
                      00369 ;;; /home/sdcc-builder/build/sdcc-build/orig/sdcc/src/pic14/gen.c:1609:genCpl *{*
                      00370 ;; ***  genCpl  1611
                      00371 ;; ***  aopForSym 315
                      00372 ;;      327 sym->rname = _PORTD, size = 1
                      00373 ;;      575
                      00374 ;; >>> /home/sdcc-builder/build/sdcc-build/orig/sdcc/src/pic14/gen.c:1631:genCpl
                      00375 ;;      1009
                      00376 ;;      1028  _PORTD   offset=0
0029                  00377 _00327_DS_
                      00378         .line   175; "gpio.c"   PORTD = (~PORTD) ;
0029   ???? ????      00379         BANKSEL _PORTD
002B   09??           00380         COMF    _PORTD,W
                      00381 ;; >>> /home/sdcc-builder/build/sdcc-build/orig/sdcc/src/pic14/gen.c:1632:genCpl
                      00382 ;;      1009
                      00383 ;;      1028  _PORTD   offset=0
002C   00??           00384         MOVWF   _PORTD
                      00385 ;; ***  addSign  861
                      00386 ;;; /home/sdcc-builder/build/sdcc-build/orig/sdcc/src/pic14/genarith.c:862:addSign *{*
                      00387 ;;; /home/sdcc-builder/build/sdcc-build/orig/sdcc/src/pic14/gen.c:2316:resultRemat *{*
                      00388 ;;; /home/sdcc-builder/build/sdcc-build/orig/sdcc/src/pic14/gen.c:2778:genGoto *{*
                      00389 ;; >>> /home/sdcc-builder/build/sdcc-build/orig/sdcc/src/pic14/gen.c:2780:genGoto
                      00390 ;; ***  popGetLabel  key=7, label offset 223
                      00391         .line   176; "gpio.c"   break ;
002D   2???           00392         GOTO    _00330_DS_
                      00393 ;;; /home/sdcc-builder/build/sdcc-build/orig/sdcc/src/pic14/gen.c:2316:resultRemat *{*
                      00394 ;;; /home/sdcc-builder/build/sdcc-build/orig/sdcc/src/pic14/gen.c:2760:genLabel *{*
                      00395 ;; ***  genLabel  2763
                      00396 ;;; /home/sdcc-builder/build/sdcc-build/orig/sdcc/src/pic14/gen.c:2316:resultRemat *{*
                      00397 ;;; /home/sdcc-builder/build/sdcc-build/orig/sdcc/src/pic14/gen.c:1609:genCpl *{*
                      00398 ;; ***  genCpl  1611
                      00399 ;; ***  aopForSym 315
                      00400 ;;      327 sym->rname = _PORTE, size = 1
                      00401 ;;      575
                      00402 ;; >>> /home/sdcc-builder/build/sdcc-build/orig/sdcc/src/pic14/gen.c:1631:genCpl
                      00403 ;;      1009
                      00404 ;;      1028  _PORTE   offset=0
002E                  00405 _00328_DS_
                      00406         .line   178; "gpio.c"   PORTE = (~PORTE) ;
002E   ???? ????      00407         BANKSEL _PORTE
0030   09??           00408         COMF    _PORTE,W
                      00409 ;; >>> /home/sdcc-builder/build/sdcc-build/orig/sdcc/src/pic14/gen.c:1632:genCpl
                      00410 ;;      1009
                      00411 ;;      1028  _PORTE   offset=0
0031   00??           00412         MOVWF   _PORTE
                      00413 ;; ***  addSign  861
                      00414 ;;; /home/sdcc-builder/build/sdcc-build/orig/sdcc/src/pic14/genarith.c:862:addSign *{*
gpasm-1.4.0 #1106 (Oct  6 2014) obj\Debug\gpi   5-11-2022  02:00:26         PAGE  9


LOC    OBJECT CODE    LINE  SOURCE TEXT
  VALUE

                      00415 ;;; /home/sdcc-builder/build/sdcc-build/orig/sdcc/src/pic14/gen.c:2316:resultRemat *{*
                      00416 ;;; /home/sdcc-builder/build/sdcc-build/orig/sdcc/src/pic14/gen.c:2760:genLabel *{*
                      00417 ;; ***  genLabel  2763
                      00418 ;;; /home/sdcc-builder/build/sdcc-build/orig/sdcc/src/pic14/gen.c:2316:resultRemat *{*
                      00419 ;;; /home/sdcc-builder/build/sdcc-build/orig/sdcc/src/pic14/gen.c:2528:genEndFunction *{*
                      00420 ;; ***  genEndFunction  2530
0032                  00421 _00330_DS_
                      00422         .line   180; "gpio.c"   }
0032   0008           00423         RETURN  
                      00424 ; exit point of _GPIO_PortToggle
                      00425 
                      00426 ;***
                      00427 ;  pBlock Stats: dbName = C
                      00428 ;***
                      00429 ;entry:  _GPIO_BitToggle        ;Function start
                      00430 ; 2 exit points
                      00431 ;has an exit
                      00432 ;11 compiler assigned registers:
                      00433 ;   r0x1001
                      00434 ;   STK00
                      00435 ;   r0x1002
                      00436 ;   r0x1003
                      00437 ;   r0x1004
                      00438 ;   r0x1005
                      00439 ;   r0x1006
                      00440 ;   r0x1007
                      00441 ;   r0x1008
                      00442 ;   r0x1009
                      00443 ;   r0x100A
                      00444 ;; Starting pCode block
                      00445 ;;; /home/sdcc-builder/build/sdcc-build/orig/sdcc/src/pic14/gen.c:2316:resultRemat *{*
                      00446 ;;; /home/sdcc-builder/build/sdcc-build/orig/sdcc/src/pic14/gen.c:2760:genLabel *{*
                      00447 ;; ***  genLabel  2763
                      00448 ;;; /home/sdcc-builder/build/sdcc-build/orig/sdcc/src/pic14/gen.c:2316:resultRemat *{*
                      00449 ;;; /home/sdcc-builder/build/sdcc-build/orig/sdcc/src/pic14/gen.c:2340:genFunction *{*
                      00450 ;; ***  genFunction  2342 curr label offset=149previous max_key=13 
0033                  00451 _GPIO_BitToggle ;Function start
                      00452 ; 2 exit points
                      00453 ;;; /home/sdcc-builder/build/sdcc-build/orig/sdcc/src/pic14/gen.c:2316:resultRemat *{*
                      00454 ;;; /home/sdcc-builder/build/sdcc-build/orig/sdcc/src/pic14/gen.c:7358:genReceive *{*
                      00455 ;; ***  genReceive  7359
                      00456 ;;      694 register type nRegs=1
                      00457 ;;; /home/sdcc-builder/build/sdcc-build/orig/sdcc/src/pic14/gen.c:1907:assignResultValue *{*
                      00458 ;; ***  assignResultValue  1909
                      00459 ;;      line = 1911 result -=-, size=0, left AOP_REG=r0x105D, size=1, right -=-, size=0
                      00460 ;; >>> /home/sdcc-builder/build/sdcc-build/orig/sdcc/src/pic14/gen.c:1393:movwf
                      00461 ;;      1109 rIdx = r0x105D 
                      00462         .line   134; "gpio.c"   void GPIO_BitToggle(tPORT port,unsigned char pin)
0033   ???? ????      00463         BANKSEL r0x1001
0035   00??           00464         MOVWF   r0x1001
                      00465 ;;; /home/sdcc-builder/build/sdcc-build/orig/sdcc/src/pic14/gen.c:2316:resultRemat *{*
                      00466 ;;; /home/sdcc-builder/build/sdcc-build/orig/sdcc/src/pic14/gen.c:7358:genReceive *{*
                      00467 ;; ***  genReceive  7359
gpasm-1.4.0 #1106 (Oct  6 2014) obj\Debug\gpi   5-11-2022  02:00:26         PAGE 10


LOC    OBJECT CODE    LINE  SOURCE TEXT
  VALUE

                      00468 ;;      694 register type nRegs=1
                      00469 ;;; /home/sdcc-builder/build/sdcc-build/orig/sdcc/src/pic14/gen.c:1907:assignResultValue *{*
                      00470 ;; ***  assignResultValue  1909
                      00471 ;;      line = 1911 result -=-, size=0, left AOP_REG=r0x105E, size=1, right -=-, size=0
                      00472 ;; >>> /home/sdcc-builder/build/sdcc-build/orig/sdcc/src/pic14/gen.c:1423:get_returnvalue
                      00473 ;; ***  popRegFromIdx,1042  , rIdx=0x7f
0036   08??           00474         MOVF    STK00,W
                      00475 ;; >>> /home/sdcc-builder/build/sdcc-build/orig/sdcc/src/pic14/gen.c:1393:movwf
                      00476 ;;      1109 rIdx = r0x105E 
0037   00??           00477         MOVWF   r0x1002
                      00478 ;;; /home/sdcc-builder/build/sdcc-build/orig/sdcc/src/pic14/gen.c:2316:resultRemat *{*
                      00479 ;;; /home/sdcc-builder/build/sdcc-build/orig/sdcc/src/pic14/gen.c:3547:genCmpGt *{*
                      00480 ;; ***  genCmpGt  3548
                      00481 ;;      694 register type nRegs=1
                      00482 ;;; /home/sdcc-builder/build/sdcc-build/orig/sdcc/src/pic14/gen.c:3294:genCmp *{*
                      00483 ;;swapping arguments (AOP_TYPEs 1/2)
                      00484 ;;unsigned compare: left >= lit(0x5=5), size=1
                      00485 ;; >>> /home/sdcc-builder/build/sdcc-build/orig/sdcc/src/pic14/gen.c:3265:pic14_mov2w_regOrLit
                      00486         .line   137; "gpio.c"   switch(port)
0038   3005           00487         MOVLW   0x05
                      00488 ;; >>> /home/sdcc-builder/build/sdcc-build/orig/sdcc/src/pic14/gen.c:3432:genCmp
                      00489 ;;      1109 rIdx = r0x105D 
0039   02??           00490         SUBWF   r0x1001,W
                      00491 ;;; /home/sdcc-builder/build/sdcc-build/orig/sdcc/src/pic14/gen.c:3237:genSkipc *{*
                      00492 ;; >>> /home/sdcc-builder/build/sdcc-build/orig/sdcc/src/pic14/gen.c:3242:genSkipc
003A   1803           00493         BTFSC   STATUS,0
                      00494 ;; >>> /home/sdcc-builder/build/sdcc-build/orig/sdcc/src/pic14/gen.c:3246:genSkipc
                      00495 ;; ***  popGetLabel  key=7, label offset 166
003B   2???           00496         GOTO    _00273_DS_
                      00497 ;;genSkipc:3247: created from rifx:027A5DF4
                      00498 ;;; /home/sdcc-builder/build/sdcc-build/orig/sdcc/src/pic14/gen.c:2316:resultRemat *{*
                      00499 ;;; /home/sdcc-builder/build/sdcc-build/orig/sdcc/src/pic14/gen.c:2316:resultRemat *{*
                      00500 ;;; /home/sdcc-builder/build/sdcc-build/orig/sdcc/src/pic14/gen.c:7071:genJumpTab *{*
                      00501 ;; ***  genJumpTab  7072
                      00502 ;;      694 register type nRegs=1
                      00503 ;; >>> /home/sdcc-builder/build/sdcc-build/orig/sdcc/src/pic14/gen.c:7087:genJumpTab
                      00504 ;; ***  popGetLabel  key=13, label offset 166
003C   30??           00505         MOVLW   HIGH(_00279_DS_)
                      00506 ;; >>> /home/sdcc-builder/build/sdcc-build/orig/sdcc/src/pic14/gen.c:7088:genJumpTab
003D   1283 1303      00507         BANKSEL PCLATH
003F   008A           00508         MOVWF   PCLATH
                      00509 ;; >>> /home/sdcc-builder/build/sdcc-build/orig/sdcc/src/pic14/gen.c:7089:genJumpTab
                      00510 ;; ***  popGetLabel  key=13, label offset 166
0040   30??           00511         MOVLW   _00279_DS_
                      00512 ;; >>> /home/sdcc-builder/build/sdcc-build/orig/sdcc/src/pic14/gen.c:7090:genJumpTab
                      00513 ;;      1109 rIdx = r0x105D 
0041   ???? ????      00514         BANKSEL r0x1001
0043   07??           00515         ADDWF   r0x1001,W
                      00516 ;; >>> /home/sdcc-builder/build/sdcc-build/orig/sdcc/src/pic14/gen.c:7091:genJumpTab
0044   1C03           00517         BTFSS   STATUS,0
0045   2???           00518         GOTO    _00002_DS_
                      00519 ;; >>> /home/sdcc-builder/build/sdcc-build/orig/sdcc/src/pic14/gen.c:7092:genJumpTab
0046   1283 1303      00520         BANKSEL PCLATH
gpasm-1.4.0 #1106 (Oct  6 2014) obj\Debug\gpi   5-11-2022  02:00:26         PAGE 11


LOC    OBJECT CODE    LINE  SOURCE TEXT
  VALUE

0048   0A8A           00521         INCF    PCLATH,F
                      00522 ;; >>> /home/sdcc-builder/build/sdcc-build/orig/sdcc/src/pic14/gen.c:7093:genJumpTab
0049                  00523 _00002_DS_
0049   0082           00524         MOVWF   PCL
                      00525 ;; >>> /home/sdcc-builder/build/sdcc-build/orig/sdcc/src/pic14/gen.c:7102:genJumpTab
                      00526 ;; ***  popGetLabel  key=1, label offset 166
004A                  00527 _00279_DS_
004A   2???           00528         GOTO    _00267_DS_
                      00529 ;; >>> /home/sdcc-builder/build/sdcc-build/orig/sdcc/src/pic14/gen.c:7102:genJumpTab
                      00530 ;; ***  popGetLabel  key=2, label offset 166
004B   2???           00531         GOTO    _00268_DS_
                      00532 ;; >>> /home/sdcc-builder/build/sdcc-build/orig/sdcc/src/pic14/gen.c:7102:genJumpTab
                      00533 ;; ***  popGetLabel  key=3, label offset 166
004C   2???           00534         GOTO    _00269_DS_
                      00535 ;; >>> /home/sdcc-builder/build/sdcc-build/orig/sdcc/src/pic14/gen.c:7102:genJumpTab
                      00536 ;; ***  popGetLabel  key=4, label offset 166
004D   2???           00537         GOTO    _00270_DS_
                      00538 ;; >>> /home/sdcc-builder/build/sdcc-build/orig/sdcc/src/pic14/gen.c:7102:genJumpTab
                      00539 ;; ***  popGetLabel  key=5, label offset 166
004E   2???           00540         GOTO    _00271_DS_
                      00541 ;;; /home/sdcc-builder/build/sdcc-build/orig/sdcc/src/pic14/gen.c:2316:resultRemat *{*
                      00542 ;;; /home/sdcc-builder/build/sdcc-build/orig/sdcc/src/pic14/gen.c:2760:genLabel *{*
                      00543 ;; ***  genLabel  2763
                      00544 ;;; /home/sdcc-builder/build/sdcc-build/orig/sdcc/src/pic14/gen.c:2316:resultRemat *{*
                      00545 ;;; /home/sdcc-builder/build/sdcc-build/orig/sdcc/src/pic14/gen.c:5418:genGenericShift *{*
                      00546 ;; ***  genGenericShift  5421
                      00547 ;;      694 register type nRegs=1
                      00548 ;;      694 register type nRegs=2
                      00549 ;; ***  mov2w  1381  offset=1
                      00550 ;; >>> /home/sdcc-builder/build/sdcc-build/orig/sdcc/src/pic14/gen.c:1384:mov2w
004F                  00551 _00267_DS_
                      00552         .line   140; "gpio.c"   currentState = GET_BIT(PORTA,pin) ;
004F   3000           00553         MOVLW   0x00
                      00554 ;; >>> /home/sdcc-builder/build/sdcc-build/orig/sdcc/src/pic14/gen.c:1393:movwf
                      00555 ;;      1109 rIdx = r0x105F 
0050   ???? ????      00556         BANKSEL r0x1003
0052   00??           00557         MOVWF   r0x1003
                      00558 ;; ***  mov2w  1381  offset=0
                      00559 ;; >>> /home/sdcc-builder/build/sdcc-build/orig/sdcc/src/pic14/gen.c:1384:mov2w
0053   3001           00560         MOVLW   0x01
                      00561 ;; >>> /home/sdcc-builder/build/sdcc-build/orig/sdcc/src/pic14/gen.c:1393:movwf
                      00562 ;;      1109 rIdx = r0x105D 
0054   00??           00563         MOVWF   r0x1001
                      00564 ;; ***  addSign  861
                      00565 ;;; /home/sdcc-builder/build/sdcc-build/orig/sdcc/src/pic14/genarith.c:862:addSign *{*
                      00566 ;; ***  mov2w  1381  offset=0
                      00567 ;; >>> /home/sdcc-builder/build/sdcc-build/orig/sdcc/src/pic14/gen.c:1386:mov2w
                      00568 ;;      1109 rIdx = r0x105E 
0055   08??           00569         MOVF    r0x1002,W
                      00570 ;; >>> /home/sdcc-builder/build/sdcc-build/orig/sdcc/src/pic14/gen.c:5492:genGenericShift
0056   3C00           00571         SUBLW   0x00
                      00572 ;; >>> /home/sdcc-builder/build/sdcc-build/orig/sdcc/src/pic14/gen.c:5494:genGenericShift
0057   1903           00573         BTFSC   STATUS,2
gpasm-1.4.0 #1106 (Oct  6 2014) obj\Debug\gpi   5-11-2022  02:00:26         PAGE 12


LOC    OBJECT CODE    LINE  SOURCE TEXT
  VALUE

                      00574 ;; >>> /home/sdcc-builder/build/sdcc-build/orig/sdcc/src/pic14/gen.c:5495:genGenericShift
                      00575 ;; ***  popGetLabel  key=15, label offset 166
0058   2???           00576         GOTO    _00281_DS_
                      00577 ;;; /home/sdcc-builder/build/sdcc-build/orig/sdcc/src/pic14/gen.c:5369:genMultiAsm *{*
                      00578 ;; ***  genMultiAsm  5370
                      00579 ;; >>> /home/sdcc-builder/build/sdcc-build/orig/sdcc/src/pic14/gen.c:5387:genMultiAsm
                      00580 ;;      1109 rIdx = r0x105D 
0059                  00581 _00280_DS_
0059   ???? ????      00582         BANKSEL r0x1001
005B   0D??           00583         RLF     r0x1001,F
                      00584 ;; >>> /home/sdcc-builder/build/sdcc-build/orig/sdcc/src/pic14/gen.c:5387:genMultiAsm
                      00585 ;;      1109 rIdx = r0x105F 
005C   0D??           00586         RLF     r0x1003,F
                      00587 ;; >>> /home/sdcc-builder/build/sdcc-build/orig/sdcc/src/pic14/gen.c:5501:genGenericShift
005D   3E01           00588         ADDLW   0x01
                      00589 ;; >>> /home/sdcc-builder/build/sdcc-build/orig/sdcc/src/pic14/gen.c:5502:genGenericShift
005E   1C03           00590         BTFSS   STATUS,0
                      00591 ;; >>> /home/sdcc-builder/build/sdcc-build/orig/sdcc/src/pic14/gen.c:5503:genGenericShift
                      00592 ;; ***  popGetLabel  key=14, label offset 166
005F   2???           00593         GOTO    _00280_DS_
                      00594 ;;; /home/sdcc-builder/build/sdcc-build/orig/sdcc/src/pic14/gen.c:2316:resultRemat *{*
                      00595 ;;; /home/sdcc-builder/build/sdcc-build/orig/sdcc/src/pic14/gen.c:7120:genCast *{*
                      00596 ;; ***  genCast  7121
                      00597 ;; ***  aopForSym 315
                      00598 ;;      327 sym->rname = _PORTA, size = 1
                      00599 ;;      694 register type nRegs=2
                      00600 ;;      line = 7129 result AOP_REG=r0x1060, size=2, left -=-, size=0, right AOP_DIR=_PORTA, size=1
                      00601 ;; >>> /home/sdcc-builder/build/sdcc-build/orig/sdcc/src/pic14/gen.c:7298:genCast
                      00602 ;;      1009
                      00603 ;;      1028  _PORTA   offset=0
0060                  00604 _00281_DS_
0060   ???? ????      00605         BANKSEL _PORTA
0062   08??           00606         MOVF    _PORTA,W
                      00607 ;; >>> /home/sdcc-builder/build/sdcc-build/orig/sdcc/src/pic14/gen.c:7299:genCast
                      00608 ;;      1109 rIdx = r0x1060 
0063   ???? ????      00609         BANKSEL r0x1004
0065   00??           00610         MOVWF   r0x1004
                      00611 ;; ***  addSign  861
                      00612 ;;; /home/sdcc-builder/build/sdcc-build/orig/sdcc/src/pic14/genarith.c:862:addSign *{*
                      00613 ;; >>> /home/sdcc-builder/build/sdcc-build/orig/sdcc/src/pic14/genarith.c:881:addSign
                      00614 ;;      1109 rIdx = r0x1061 
0066   01??           00615         CLRF    r0x1005
                      00616 ;;; /home/sdcc-builder/build/sdcc-build/orig/sdcc/src/pic14/gen.c:2316:resultRemat *{*
                      00617 ;;; /home/sdcc-builder/build/sdcc-build/orig/sdcc/src/pic14/gen.c:3919:genAnd *{*
                      00618 ;; ***  genAnd  3920
                      00619 ;;      694 register type nRegs=2
                      00620 ;;      694 register type nRegs=2
                      00621 ;;      694 register type nRegs=2
                      00622 ;;      line = 3955 result AOP_REG=r0x105D, size=2, left AOP_REG=r0x105D, size=2, right AOP_REG=r0x1060,
                             size=2
                      00623 ;; >>> /home/sdcc-builder/build/sdcc-build/orig/sdcc/src/pic14/gen.c:4137:genAnd
                      00624 ;;      1109 rIdx = r0x1060 
0067   08??           00625         MOVF    r0x1004,W
gpasm-1.4.0 #1106 (Oct  6 2014) obj\Debug\gpi   5-11-2022  02:00:26         PAGE 13


LOC    OBJECT CODE    LINE  SOURCE TEXT
  VALUE

                      00626 ;; >>> /home/sdcc-builder/build/sdcc-build/orig/sdcc/src/pic14/gen.c:4138:genAnd
                      00627 ;;      1109 rIdx = r0x105D 
0068   05??           00628         ANDWF   r0x1001,F
                      00629 ;; >>> /home/sdcc-builder/build/sdcc-build/orig/sdcc/src/pic14/gen.c:4137:genAnd
                      00630 ;;      1109 rIdx = r0x1061 
0069   3000           00631         MOVLW   0x00
                      00632 ;; >>> /home/sdcc-builder/build/sdcc-build/orig/sdcc/src/pic14/gen.c:4138:genAnd
                      00633 ;;      1109 rIdx = r0x105F 
006A   05??           00634         ANDWF   r0x1003,F
                      00635 ;;; /home/sdcc-builder/build/sdcc-build/orig/sdcc/src/pic14/gen.c:2316:resultRemat *{*
                      00636 ;;; /home/sdcc-builder/build/sdcc-build/orig/sdcc/src/pic14/gen.c:5418:genGenericShift *{*
                      00637 ;; ***  genGenericShift  5421
                      00638 ;;      694 register type nRegs=1
                      00639 ;;      694 register type nRegs=2
                      00640 ;;      694 register type nRegs=2
                      00641 ;; ***  mov2w  1381  offset=1
                      00642 ;; >>> /home/sdcc-builder/build/sdcc-build/orig/sdcc/src/pic14/gen.c:1386:mov2w
                      00643 ;;      1109 rIdx = r0x105F 
006B   08??           00644         MOVF    r0x1003,W
                      00645 ;; >>> /home/sdcc-builder/build/sdcc-build/orig/sdcc/src/pic14/gen.c:1393:movwf
                      00646 ;;      1109 rIdx = r0x1061 
006C   00??           00647         MOVWF   r0x1005
                      00648 ;; ***  mov2w  1381  offset=0
                      00649 ;; >>> /home/sdcc-builder/build/sdcc-build/orig/sdcc/src/pic14/gen.c:1386:mov2w
                      00650 ;;      1109 rIdx = r0x105D 
006D   08??           00651         MOVF    r0x1001,W
                      00652 ;; >>> /home/sdcc-builder/build/sdcc-build/orig/sdcc/src/pic14/gen.c:1393:movwf
                      00653 ;;      1109 rIdx = r0x1060 
006E   00??           00654         MOVWF   r0x1004
                      00655 ;; ***  addSign  861
                      00656 ;;; /home/sdcc-builder/build/sdcc-build/orig/sdcc/src/pic14/genarith.c:862:addSign *{*
                      00657 ;; ***  mov2w  1381  offset=0
                      00658 ;; >>> /home/sdcc-builder/build/sdcc-build/orig/sdcc/src/pic14/gen.c:1386:mov2w
                      00659 ;;      1109 rIdx = r0x105E 
006F   08??           00660         MOVF    r0x1002,W
                      00661 ;; >>> /home/sdcc-builder/build/sdcc-build/orig/sdcc/src/pic14/gen.c:5492:genGenericShift
0070   3C00           00662         SUBLW   0x00
                      00663 ;; >>> /home/sdcc-builder/build/sdcc-build/orig/sdcc/src/pic14/gen.c:5494:genGenericShift
0071   1903           00664         BTFSC   STATUS,2
                      00665 ;; >>> /home/sdcc-builder/build/sdcc-build/orig/sdcc/src/pic14/gen.c:5495:genGenericShift
                      00666 ;; ***  popGetLabel  key=17, label offset 166
0072   2???           00667         GOTO    _00283_DS_
                      00668 ;;; /home/sdcc-builder/build/sdcc-build/orig/sdcc/src/pic14/gen.c:5400:loadSignToC *{*
                      00669 ;; >>> /home/sdcc-builder/build/sdcc-build/orig/sdcc/src/pic14/gen.c:5403:loadSignToC
0073                  00670 _00282_DS_
0073   1003           00671         BCF     STATUS,0
                      00672 ;; >>> /home/sdcc-builder/build/sdcc-build/orig/sdcc/src/pic14/gen.c:5404:loadSignToC
0074   ???? ????      00673         BANKSEL r0x1005
0076   1B??           00674         BTFSC   r0x1005,7
                      00675 ;; >>> /home/sdcc-builder/build/sdcc-build/orig/sdcc/src/pic14/gen.c:5405:loadSignToC
0077   1403           00676         BSF     STATUS,0
                      00677 ;;; /home/sdcc-builder/build/sdcc-build/orig/sdcc/src/pic14/gen.c:5369:genMultiAsm *{*
                      00678 ;; ***  genMultiAsm  5370
gpasm-1.4.0 #1106 (Oct  6 2014) obj\Debug\gpi   5-11-2022  02:00:26         PAGE 14


LOC    OBJECT CODE    LINE  SOURCE TEXT
  VALUE

                      00679 ;; >>> /home/sdcc-builder/build/sdcc-build/orig/sdcc/src/pic14/gen.c:5387:genMultiAsm
                      00680 ;;      1109 rIdx = r0x1061 
0078   0C??           00681         RRF     r0x1005,F
                      00682 ;; >>> /home/sdcc-builder/build/sdcc-build/orig/sdcc/src/pic14/gen.c:5387:genMultiAsm
                      00683 ;;      1109 rIdx = r0x1060 
0079   0C??           00684         RRF     r0x1004,F
                      00685 ;; >>> /home/sdcc-builder/build/sdcc-build/orig/sdcc/src/pic14/gen.c:5501:genGenericShift
007A   3E01           00686         ADDLW   0x01
                      00687 ;; >>> /home/sdcc-builder/build/sdcc-build/orig/sdcc/src/pic14/gen.c:5502:genGenericShift
007B   1C03           00688         BTFSS   STATUS,0
                      00689 ;; >>> /home/sdcc-builder/build/sdcc-build/orig/sdcc/src/pic14/gen.c:5503:genGenericShift
                      00690 ;; ***  popGetLabel  key=16, label offset 166
007C   2???           00691         GOTO    _00282_DS_
                      00692 ;;; /home/sdcc-builder/build/sdcc-build/orig/sdcc/src/pic14/gen.c:2316:resultRemat *{*
                      00693 ;;; /home/sdcc-builder/build/sdcc-build/orig/sdcc/src/pic14/gen.c:7120:genCast *{*
                      00694 ;; ***  genCast  7121
                      00695 ;;      694 register type nRegs=2
                      00696 ;;      694 register type nRegs=1
                      00697 ;;      line = 7129 result AOP_REG=r0x105D, size=1, left -=-, size=0, right AOP_REG=r0x1060, size=2
                      00698 ;; ***  genCast  7253
                      00699 ;; >>> /home/sdcc-builder/build/sdcc-build/orig/sdcc/src/pic14/gen.c:7277:genCast
                      00700 ;;      1109 rIdx = r0x1060 
007D                  00701 _00283_DS_
007D   ???? ????      00702         BANKSEL r0x1004
007F   08??           00703         MOVF    r0x1004,W
                      00704 ;; >>> /home/sdcc-builder/build/sdcc-build/orig/sdcc/src/pic14/gen.c:7278:genCast
                      00705 ;;      1109 rIdx = r0x105D 
0080   00??           00706         MOVWF   r0x1001
                      00707 ;;; /home/sdcc-builder/build/sdcc-build/orig/sdcc/src/pic14/gen.c:2316:resultRemat *{*
                      00708 ;;; /home/sdcc-builder/build/sdcc-build/orig/sdcc/src/pic14/gen.c:5418:genGenericShift *{*
                      00709 ;; ***  genGenericShift  5421
                      00710 ;;      694 register type nRegs=1
                      00711 ;;      694 register type nRegs=1
                      00712 ;; ***  mov2w  1381  offset=0
                      00713 ;; >>> /home/sdcc-builder/build/sdcc-build/orig/sdcc/src/pic14/gen.c:1384:mov2w
                      00714         .line   141; "gpio.c"   SET_REGISTER_BIT(PORTA,pin,!currentState) ;
0081   3001           00715         MOVLW   0x01
                      00716 ;; >>> /home/sdcc-builder/build/sdcc-build/orig/sdcc/src/pic14/gen.c:1393:movwf
                      00717 ;;      1109 rIdx = r0x1060 
0082   00??           00718         MOVWF   r0x1004
                      00719 ;; ***  addSign  861
                      00720 ;;; /home/sdcc-builder/build/sdcc-build/orig/sdcc/src/pic14/genarith.c:862:addSign *{*
                      00721 ;; ***  mov2w  1381  offset=0
                      00722 ;; >>> /home/sdcc-builder/build/sdcc-build/orig/sdcc/src/pic14/gen.c:1386:mov2w
                      00723 ;;      1109 rIdx = r0x105E 
0083   08??           00724         MOVF    r0x1002,W
                      00725 ;; >>> /home/sdcc-builder/build/sdcc-build/orig/sdcc/src/pic14/gen.c:5492:genGenericShift
0084   3C00           00726         SUBLW   0x00
                      00727 ;; >>> /home/sdcc-builder/build/sdcc-build/orig/sdcc/src/pic14/gen.c:5494:genGenericShift
0085   1903           00728         BTFSC   STATUS,2
                      00729 ;; >>> /home/sdcc-builder/build/sdcc-build/orig/sdcc/src/pic14/gen.c:5495:genGenericShift
                      00730 ;; ***  popGetLabel  key=19, label offset 166
0086   2???           00731         GOTO    _00285_DS_
gpasm-1.4.0 #1106 (Oct  6 2014) obj\Debug\gpi   5-11-2022  02:00:26         PAGE 15


LOC    OBJECT CODE    LINE  SOURCE TEXT
  VALUE

                      00732 ;;; /home/sdcc-builder/build/sdcc-build/orig/sdcc/src/pic14/gen.c:5369:genMultiAsm *{*
                      00733 ;; ***  genMultiAsm  5370
                      00734 ;; >>> /home/sdcc-builder/build/sdcc-build/orig/sdcc/src/pic14/gen.c:5387:genMultiAsm
                      00735 ;;      1109 rIdx = r0x1060 
0087                  00736 _00284_DS_
0087   ???? ????      00737         BANKSEL r0x1004
0089   0D??           00738         RLF     r0x1004,F
                      00739 ;; >>> /home/sdcc-builder/build/sdcc-build/orig/sdcc/src/pic14/gen.c:5501:genGenericShift
008A   3E01           00740         ADDLW   0x01
                      00741 ;; >>> /home/sdcc-builder/build/sdcc-build/orig/sdcc/src/pic14/gen.c:5502:genGenericShift
008B   1C03           00742         BTFSS   STATUS,0
                      00743 ;; >>> /home/sdcc-builder/build/sdcc-build/orig/sdcc/src/pic14/gen.c:5503:genGenericShift
                      00744 ;; ***  popGetLabel  key=18, label offset 166
008C   2???           00745         GOTO    _00284_DS_
                      00746 ;;; /home/sdcc-builder/build/sdcc-build/orig/sdcc/src/pic14/gen.c:2316:resultRemat *{*
                      00747 ;;; /home/sdcc-builder/build/sdcc-build/orig/sdcc/src/pic14/gen.c:1609:genCpl *{*
                      00748 ;; ***  genCpl  1611
                      00749 ;;      694 register type nRegs=1
                      00750 ;;      694 register type nRegs=1
                      00751 ;; >>> /home/sdcc-builder/build/sdcc-build/orig/sdcc/src/pic14/gen.c:1631:genCpl
                      00752 ;;      1109 rIdx = r0x1060 
008D                  00753 _00285_DS_
008D   ???? ????      00754         BANKSEL r0x1004
008F   09??           00755         COMF    r0x1004,F
0090   ???? ????      00756         BANKSEL _PORTA
0092   08??           00757         MOVF    _PORTA,W
                      00758 ;; >>> /home/sdcc-builder/build/sdcc-build/orig/sdcc/src/pic14/gen.c:4138:genAnd
                      00759 ;;      1109 rIdx = r0x1060 
0093   ???? ????      00760         BANKSEL r0x1004
0095   05??           00761         ANDWF   r0x1004,F
                      00762 ;;; /home/sdcc-builder/build/sdcc-build/orig/sdcc/src/pic14/gen.c:2316:resultRemat *{*
                      00763 ;;; /home/sdcc-builder/build/sdcc-build/orig/sdcc/src/pic14/gen.c:1548:genNot *{*
                      00764 ;; ***  genNot  1550
                      00765 ;;      694 register type nRegs=1
                      00766 ;;      694 register type nRegs=1
                      00767 ;;      line = 1555 result AOP_REG=r0x105F, size=1, left AOP_REG=r0x105D, size=1, right -=-, size=0
                      00768 ;; ***  mov2w  1381  offset=0
                      00769 ;; >>> /home/sdcc-builder/build/sdcc-build/orig/sdcc/src/pic14/gen.c:1386:mov2w
                      00770 ;;      1109 rIdx = r0x105D 
0096   08??           00771         MOVF    r0x1001,W
                      00772 ;; >>> /home/sdcc-builder/build/sdcc-build/orig/sdcc/src/pic14/gen.c:1582:genNot
0097   3000           00773         MOVLW   0x00
                      00774 ;; >>> /home/sdcc-builder/build/sdcc-build/orig/sdcc/src/pic14/gen.c:1583:genNot
0098   1903           00775         BTFSC   STATUS,2
                      00776 ;; >>> /home/sdcc-builder/build/sdcc-build/orig/sdcc/src/pic14/gen.c:1584:genNot
0099   3001           00777         MOVLW   0x01
                      00778 ;; >>> /home/sdcc-builder/build/sdcc-build/orig/sdcc/src/pic14/gen.c:1393:movwf
                      00779 ;;      1109 rIdx = r0x105F 
009A   00??           00780         MOVWF   r0x1003
009B   00??           00781         MOVWF   r0x1006
                      00782 ;; ***  addSign  861
                      00783 ;;; /home/sdcc-builder/build/sdcc-build/orig/sdcc/src/pic14/genarith.c:862:addSign *{*
                      00784 ;; ***  mov2w  1381  offset=0
gpasm-1.4.0 #1106 (Oct  6 2014) obj\Debug\gpi   5-11-2022  02:00:26         PAGE 16


LOC    OBJECT CODE    LINE  SOURCE TEXT
  VALUE

                      00785 ;; >>> /home/sdcc-builder/build/sdcc-build/orig/sdcc/src/pic14/gen.c:1386:mov2w
                      00786 ;;      1109 rIdx = r0x105E 
009C   08??           00787         MOVF    r0x1002,W
                      00788 ;; >>> /home/sdcc-builder/build/sdcc-build/orig/sdcc/src/pic14/gen.c:5492:genGenericShift
009D   3C00           00789         SUBLW   0x00
                      00790 ;; >>> /home/sdcc-builder/build/sdcc-build/orig/sdcc/src/pic14/gen.c:5494:genGenericShift
009E   1903           00791         BTFSC   STATUS,2
                      00792 ;; >>> /home/sdcc-builder/build/sdcc-build/orig/sdcc/src/pic14/gen.c:5495:genGenericShift
                      00793 ;; ***  popGetLabel  key=21, label offset 166
009F   2???           00794         GOTO    _00287_DS_
                      00795 ;;; /home/sdcc-builder/build/sdcc-build/orig/sdcc/src/pic14/gen.c:5369:genMultiAsm *{*
                      00796 ;; ***  genMultiAsm  5370
                      00797 ;; >>> /home/sdcc-builder/build/sdcc-build/orig/sdcc/src/pic14/gen.c:5387:genMultiAsm
                      00798 ;;      1109 rIdx = r0x1062 
00A0                  00799 _00286_DS_
00A0   ???? ????      00800         BANKSEL r0x1006
00A2   0D??           00801         RLF     r0x1006,F
                      00802 ;; >>> /home/sdcc-builder/build/sdcc-build/orig/sdcc/src/pic14/gen.c:5501:genGenericShift
00A3   3E01           00803         ADDLW   0x01
                      00804 ;; >>> /home/sdcc-builder/build/sdcc-build/orig/sdcc/src/pic14/gen.c:5502:genGenericShift
00A4   1C03           00805         BTFSS   STATUS,0
                      00806 ;; >>> /home/sdcc-builder/build/sdcc-build/orig/sdcc/src/pic14/gen.c:5503:genGenericShift
                      00807 ;; ***  popGetLabel  key=20, label offset 166
00A5   2???           00808         GOTO    _00286_DS_
                      00809 ;;; /home/sdcc-builder/build/sdcc-build/orig/sdcc/src/pic14/gen.c:2316:resultRemat *{*
                      00810 ;;; /home/sdcc-builder/build/sdcc-build/orig/sdcc/src/pic14/gen.c:7120:genCast *{*
                      00811 ;; ***  genCast  7121
                      00812 ;;      694 register type nRegs=1
                      00813 ;;      694 register type nRegs=1
                      00814 ;;      line = 7129 result AOP_REG=r0x105F, size=1, left -=-, size=0, right AOP_REG=r0x1060, size=1
                      00815 ;; ***  genCast  7253
                      00816 ;; >>> /home/sdcc-builder/build/sdcc-build/orig/sdcc/src/pic14/gen.c:7277:genCast
                      00817 ;;      1109 rIdx = r0x1060 
00A6                  00818 _00287_DS_
00A6   ???? ????      00819         BANKSEL r0x1004
00A8   08??           00820         MOVF    r0x1004,W
                      00821 ;; >>> /home/sdcc-builder/build/sdcc-build/orig/sdcc/src/pic14/gen.c:7278:genCast
                      00822 ;;      1109 rIdx = r0x105F 
00A9   00??           00823         MOVWF   r0x1003
00AA   04??           00824         IORWF   r0x1006,W
00AB   ???? ????      00825         BANKSEL _PORTA
00AD   00??           00826         MOVWF   _PORTA
                      00827 ;;; /home/sdcc-builder/build/sdcc-build/orig/sdcc/src/pic14/gen.c:2316:resultRemat *{*
                      00828 ;;; /home/sdcc-builder/build/sdcc-build/orig/sdcc/src/pic14/gen.c:2778:genGoto *{*
                      00829 ;; >>> /home/sdcc-builder/build/sdcc-build/orig/sdcc/src/pic14/gen.c:2780:genGoto
                      00830 ;; ***  popGetLabel  key=7, label offset 166
                      00831         .line   142; "gpio.c"   break ;
00AE   2???           00832         GOTO    _00273_DS_
                      00833 ;;; /home/sdcc-builder/build/sdcc-build/orig/sdcc/src/pic14/gen.c:2316:resultRemat *{*
                      00834 ;;; /home/sdcc-builder/build/sdcc-build/orig/sdcc/src/pic14/gen.c:2760:genLabel *{*
                      00835 ;; ***  genLabel  2763
                      00836 ;;; /home/sdcc-builder/build/sdcc-build/orig/sdcc/src/pic14/gen.c:2316:resultRemat *{*
                      00837 ;;; /home/sdcc-builder/build/sdcc-build/orig/sdcc/src/pic14/gen.c:5418:genGenericShift *{*
gpasm-1.4.0 #1106 (Oct  6 2014) obj\Debug\gpi   5-11-2022  02:00:26         PAGE 17


LOC    OBJECT CODE    LINE  SOURCE TEXT
  VALUE

                      00838 ;; ***  genGenericShift  5421
                      00839 ;;      694 register type nRegs=1
                      00840 ;;      694 register type nRegs=2
                      00841 ;; ***  mov2w  1381  offset=1
                      00842 ;; >>> /home/sdcc-builder/build/sdcc-build/orig/sdcc/src/pic14/gen.c:1384:mov2w
00AF                  00843 _00268_DS_
                      00844         .line   144; "gpio.c"   currentState = GET_BIT(PORTB,pin) ;
00AF   3000           00845         MOVLW   0x00
                      00846 ;; >>> /home/sdcc-builder/build/sdcc-build/orig/sdcc/src/pic14/gen.c:1393:movwf
                      00847 ;;      1109 rIdx = r0x1060 
00B0   ???? ????      00848         BANKSEL r0x1004
00B2   00??           00849         MOVWF   r0x1004
                      00850 ;; ***  mov2w  1381  offset=0
                      00851 ;; >>> /home/sdcc-builder/build/sdcc-build/orig/sdcc/src/pic14/gen.c:1384:mov2w
00B3   3001           00852         MOVLW   0x01
                      00853 ;; >>> /home/sdcc-builder/build/sdcc-build/orig/sdcc/src/pic14/gen.c:1393:movwf
                      00854 ;;      1109 rIdx = r0x105F 
00B4   00??           00855         MOVWF   r0x1003
                      00856 ;; ***  addSign  861
                      00857 ;;; /home/sdcc-builder/build/sdcc-build/orig/sdcc/src/pic14/genarith.c:862:addSign *{*
                      00858 ;; ***  mov2w  1381  offset=0
                      00859 ;; >>> /home/sdcc-builder/build/sdcc-build/orig/sdcc/src/pic14/gen.c:1386:mov2w
                      00860 ;;      1109 rIdx = r0x105E 
00B5   08??           00861         MOVF    r0x1002,W
                      00862 ;; >>> /home/sdcc-builder/build/sdcc-build/orig/sdcc/src/pic14/gen.c:5492:genGenericShift
00B6   3C00           00863         SUBLW   0x00
                      00864 ;; >>> /home/sdcc-builder/build/sdcc-build/orig/sdcc/src/pic14/gen.c:5494:genGenericShift
00B7   1903           00865         BTFSC   STATUS,2
                      00866 ;; >>> /home/sdcc-builder/build/sdcc-build/orig/sdcc/src/pic14/gen.c:5495:genGenericShift
                      00867 ;; ***  popGetLabel  key=23, label offset 166
00B8   2???           00868         GOTO    _00289_DS_
                      00869 ;;; /home/sdcc-builder/build/sdcc-build/orig/sdcc/src/pic14/gen.c:5369:genMultiAsm *{*
                      00870 ;; ***  genMultiAsm  5370
                      00871 ;; >>> /home/sdcc-builder/build/sdcc-build/orig/sdcc/src/pic14/gen.c:5387:genMultiAsm
                      00872 ;;      1109 rIdx = r0x105F 
00B9                  00873 _00288_DS_
00B9   ???? ????      00874         BANKSEL r0x1003
00BB   0D??           00875         RLF     r0x1003,F
                      00876 ;; >>> /home/sdcc-builder/build/sdcc-build/orig/sdcc/src/pic14/gen.c:5387:genMultiAsm
                      00877 ;;      1109 rIdx = r0x1060 
00BC   0D??           00878         RLF     r0x1004,F
                      00879 ;; >>> /home/sdcc-builder/build/sdcc-build/orig/sdcc/src/pic14/gen.c:5501:genGenericShift
00BD   3E01           00880         ADDLW   0x01
                      00881 ;; >>> /home/sdcc-builder/build/sdcc-build/orig/sdcc/src/pic14/gen.c:5502:genGenericShift
00BE   1C03           00882         BTFSS   STATUS,0
                      00883 ;; >>> /home/sdcc-builder/build/sdcc-build/orig/sdcc/src/pic14/gen.c:5503:genGenericShift
                      00884 ;; ***  popGetLabel  key=22, label offset 166
00BF   2???           00885         GOTO    _00288_DS_
                      00886 ;;; /home/sdcc-builder/build/sdcc-build/orig/sdcc/src/pic14/gen.c:2316:resultRemat *{*
                      00887 ;;; /home/sdcc-builder/build/sdcc-build/orig/sdcc/src/pic14/gen.c:7120:genCast *{*
                      00888 ;; ***  genCast  7121
                      00889 ;; ***  aopForSym 315
                      00890 ;;      327 sym->rname = _PORTB, size = 1
gpasm-1.4.0 #1106 (Oct  6 2014) obj\Debug\gpi   5-11-2022  02:00:26         PAGE 18


LOC    OBJECT CODE    LINE  SOURCE TEXT
  VALUE

                      00891 ;;      694 register type nRegs=2
                      00892 ;;      line = 7129 result AOP_REG=r0x1062, size=2, left -=-, size=0, right AOP_DIR=_PORTB, size=1
                      00893 ;; >>> /home/sdcc-builder/build/sdcc-build/orig/sdcc/src/pic14/gen.c:7298:genCast
                      00894 ;;      1009
                      00895 ;;      1028  _PORTB   offset=0
00C0                  00896 _00289_DS_
00C0   ???? ????      00897         BANKSEL _PORTB
00C2   08??           00898         MOVF    _PORTB,W
                      00899 ;; >>> /home/sdcc-builder/build/sdcc-build/orig/sdcc/src/pic14/gen.c:7299:genCast
                      00900 ;;      1109 rIdx = r0x1062 
00C3   ???? ????      00901         BANKSEL r0x1006
00C5   00??           00902         MOVWF   r0x1006
                      00903 ;; ***  addSign  861
                      00904 ;;; /home/sdcc-builder/build/sdcc-build/orig/sdcc/src/pic14/genarith.c:862:addSign *{*
                      00905 ;; >>> /home/sdcc-builder/build/sdcc-build/orig/sdcc/src/pic14/genarith.c:881:addSign
                      00906 ;;      1109 rIdx = r0x1063 
00C6   01??           00907         CLRF    r0x1007
                      00908 ;;; /home/sdcc-builder/build/sdcc-build/orig/sdcc/src/pic14/gen.c:2316:resultRemat *{*
                      00909 ;;; /home/sdcc-builder/build/sdcc-build/orig/sdcc/src/pic14/gen.c:3919:genAnd *{*
                      00910 ;; ***  genAnd  3920
                      00911 ;;      694 register type nRegs=2
                      00912 ;;      694 register type nRegs=2
                      00913 ;;      694 register type nRegs=2
                      00914 ;;      line = 3955 result AOP_REG=r0x105F, size=2, left AOP_REG=r0x105F, size=2, right AOP_REG=r0x1062,
                             size=2
                      00915 ;; >>> /home/sdcc-builder/build/sdcc-build/orig/sdcc/src/pic14/gen.c:4137:genAnd
                      00916 ;;      1109 rIdx = r0x1062 
00C7   08??           00917         MOVF    r0x1006,W
                      00918 ;; >>> /home/sdcc-builder/build/sdcc-build/orig/sdcc/src/pic14/gen.c:4138:genAnd
                      00919 ;;      1109 rIdx = r0x105F 
00C8   05??           00920         ANDWF   r0x1003,F
                      00921 ;; >>> /home/sdcc-builder/build/sdcc-build/orig/sdcc/src/pic14/gen.c:4137:genAnd
                      00922 ;;      1109 rIdx = r0x1063 
00C9   3000           00923         MOVLW   0x00
                      00924 ;; >>> /home/sdcc-builder/build/sdcc-build/orig/sdcc/src/pic14/gen.c:4138:genAnd
                      00925 ;;      1109 rIdx = r0x1060 
00CA   05??           00926         ANDWF   r0x1004,F
                      00927 ;;; /home/sdcc-builder/build/sdcc-build/orig/sdcc/src/pic14/gen.c:2316:resultRemat *{*
                      00928 ;;; /home/sdcc-builder/build/sdcc-build/orig/sdcc/src/pic14/gen.c:5418:genGenericShift *{*
                      00929 ;; ***  genGenericShift  5421
                      00930 ;;      694 register type nRegs=1
                      00931 ;;      694 register type nRegs=2
                      00932 ;;      694 register type nRegs=2
                      00933 ;; ***  mov2w  1381  offset=1
                      00934 ;; >>> /home/sdcc-builder/build/sdcc-build/orig/sdcc/src/pic14/gen.c:1386:mov2w
                      00935 ;;      1109 rIdx = r0x1060 
00CB   08??           00936         MOVF    r0x1004,W
                      00937 ;; >>> /home/sdcc-builder/build/sdcc-build/orig/sdcc/src/pic14/gen.c:1393:movwf
                      00938 ;;      1109 rIdx = r0x1063 
00CC   00??           00939         MOVWF   r0x1007
                      00940 ;; ***  mov2w  1381  offset=0
                      00941 ;; >>> /home/sdcc-builder/build/sdcc-build/orig/sdcc/src/pic14/gen.c:1386:mov2w
                      00942 ;;      1109 rIdx = r0x105F 
gpasm-1.4.0 #1106 (Oct  6 2014) obj\Debug\gpi   5-11-2022  02:00:26         PAGE 19


LOC    OBJECT CODE    LINE  SOURCE TEXT
  VALUE

00CD   08??           00943         MOVF    r0x1003,W
                      00944 ;; >>> /home/sdcc-builder/build/sdcc-build/orig/sdcc/src/pic14/gen.c:1393:movwf
                      00945 ;;      1109 rIdx = r0x1062 
00CE   00??           00946         MOVWF   r0x1006
                      00947 ;; ***  addSign  861
                      00948 ;;; /home/sdcc-builder/build/sdcc-build/orig/sdcc/src/pic14/genarith.c:862:addSign *{*
                      00949 ;; ***  mov2w  1381  offset=0
                      00950 ;; >>> /home/sdcc-builder/build/sdcc-build/orig/sdcc/src/pic14/gen.c:1386:mov2w
                      00951 ;;      1109 rIdx = r0x105E 
00CF   08??           00952         MOVF    r0x1002,W
                      00953 ;; >>> /home/sdcc-builder/build/sdcc-build/orig/sdcc/src/pic14/gen.c:5492:genGenericShift
00D0   3C00           00954         SUBLW   0x00
                      00955 ;; >>> /home/sdcc-builder/build/sdcc-build/orig/sdcc/src/pic14/gen.c:5494:genGenericShift
00D1   1903           00956         BTFSC   STATUS,2
                      00957 ;; >>> /home/sdcc-builder/build/sdcc-build/orig/sdcc/src/pic14/gen.c:5495:genGenericShift
                      00958 ;; ***  popGetLabel  key=25, label offset 166
00D2   2???           00959         GOTO    _00291_DS_
                      00960 ;;; /home/sdcc-builder/build/sdcc-build/orig/sdcc/src/pic14/gen.c:5400:loadSignToC *{*
                      00961 ;; >>> /home/sdcc-builder/build/sdcc-build/orig/sdcc/src/pic14/gen.c:5403:loadSignToC
00D3                  00962 _00290_DS_
00D3   1003           00963         BCF     STATUS,0
                      00964 ;; >>> /home/sdcc-builder/build/sdcc-build/orig/sdcc/src/pic14/gen.c:5404:loadSignToC
00D4   ???? ????      00965         BANKSEL r0x1007
00D6   1B??           00966         BTFSC   r0x1007,7
                      00967 ;; >>> /home/sdcc-builder/build/sdcc-build/orig/sdcc/src/pic14/gen.c:5405:loadSignToC
00D7   1403           00968         BSF     STATUS,0
                      00969 ;;; /home/sdcc-builder/build/sdcc-build/orig/sdcc/src/pic14/gen.c:5369:genMultiAsm *{*
                      00970 ;; ***  genMultiAsm  5370
                      00971 ;; >>> /home/sdcc-builder/build/sdcc-build/orig/sdcc/src/pic14/gen.c:5387:genMultiAsm
                      00972 ;;      1109 rIdx = r0x1063 
00D8   0C??           00973         RRF     r0x1007,F
                      00974 ;; >>> /home/sdcc-builder/build/sdcc-build/orig/sdcc/src/pic14/gen.c:5387:genMultiAsm
                      00975 ;;      1109 rIdx = r0x1062 
00D9   0C??           00976         RRF     r0x1006,F
                      00977 ;; >>> /home/sdcc-builder/build/sdcc-build/orig/sdcc/src/pic14/gen.c:5501:genGenericShift
00DA   3E01           00978         ADDLW   0x01
                      00979 ;; >>> /home/sdcc-builder/build/sdcc-build/orig/sdcc/src/pic14/gen.c:5502:genGenericShift
00DB   1C03           00980         BTFSS   STATUS,0
                      00981 ;; >>> /home/sdcc-builder/build/sdcc-build/orig/sdcc/src/pic14/gen.c:5503:genGenericShift
                      00982 ;; ***  popGetLabel  key=24, label offset 166
00DC   2???           00983         GOTO    _00290_DS_
                      00984 ;;; /home/sdcc-builder/build/sdcc-build/orig/sdcc/src/pic14/gen.c:2316:resultRemat *{*
                      00985 ;;; /home/sdcc-builder/build/sdcc-build/orig/sdcc/src/pic14/gen.c:7120:genCast *{*
                      00986 ;; ***  genCast  7121
                      00987 ;;      694 register type nRegs=2
                      00988 ;;      694 register type nRegs=1
                      00989 ;;      line = 7129 result AOP_REG=r0x105D, size=1, left -=-, size=0, right AOP_REG=r0x1062, size=2
                      00990 ;; ***  genCast  7253
                      00991 ;; >>> /home/sdcc-builder/build/sdcc-build/orig/sdcc/src/pic14/gen.c:7277:genCast
                      00992 ;;      1109 rIdx = r0x1062 
00DD                  00993 _00291_DS_
00DD   ???? ????      00994         BANKSEL r0x1006
00DF   08??           00995         MOVF    r0x1006,W
gpasm-1.4.0 #1106 (Oct  6 2014) obj\Debug\gpi   5-11-2022  02:00:26         PAGE 20


LOC    OBJECT CODE    LINE  SOURCE TEXT
  VALUE

                      00996 ;; >>> /home/sdcc-builder/build/sdcc-build/orig/sdcc/src/pic14/gen.c:7278:genCast
                      00997 ;;      1109 rIdx = r0x105D 
00E0   00??           00998         MOVWF   r0x1001
                      00999 ;;; /home/sdcc-builder/build/sdcc-build/orig/sdcc/src/pic14/gen.c:2316:resultRemat *{*
                      01000 ;;; /home/sdcc-builder/build/sdcc-build/orig/sdcc/src/pic14/gen.c:5418:genGenericShift *{*
                      01001 ;; ***  genGenericShift  5421
                      01002 ;;      694 register type nRegs=1
                      01003 ;;      694 register type nRegs=1
                      01004 ;; ***  mov2w  1381  offset=0
                      01005 ;; >>> /home/sdcc-builder/build/sdcc-build/orig/sdcc/src/pic14/gen.c:1384:mov2w
                      01006         .line   145; "gpio.c"   SET_REGISTER_BIT(PORTB,pin,!currentState) ;
00E1   3001           01007         MOVLW   0x01
                      01008 ;; >>> /home/sdcc-builder/build/sdcc-build/orig/sdcc/src/pic14/gen.c:1393:movwf
                      01009 ;;      1109 rIdx = r0x1062 
00E2   00??           01010         MOVWF   r0x1006
                      01011 ;; ***  addSign  861
                      01012 ;;; /home/sdcc-builder/build/sdcc-build/orig/sdcc/src/pic14/genarith.c:862:addSign *{*
                      01013 ;; ***  mov2w  1381  offset=0
                      01014 ;; >>> /home/sdcc-builder/build/sdcc-build/orig/sdcc/src/pic14/gen.c:1386:mov2w
                      01015 ;;      1109 rIdx = r0x105E 
00E3   08??           01016         MOVF    r0x1002,W
                      01017 ;; >>> /home/sdcc-builder/build/sdcc-build/orig/sdcc/src/pic14/gen.c:5492:genGenericShift
00E4   3C00           01018         SUBLW   0x00
                      01019 ;; >>> /home/sdcc-builder/build/sdcc-build/orig/sdcc/src/pic14/gen.c:5494:genGenericShift
00E5   1903           01020         BTFSC   STATUS,2
                      01021 ;; >>> /home/sdcc-builder/build/sdcc-build/orig/sdcc/src/pic14/gen.c:5495:genGenericShift
                      01022 ;; ***  popGetLabel  key=27, label offset 166
00E6   2???           01023         GOTO    _00293_DS_
                      01024 ;;; /home/sdcc-builder/build/sdcc-build/orig/sdcc/src/pic14/gen.c:5369:genMultiAsm *{*
                      01025 ;; ***  genMultiAsm  5370
                      01026 ;; >>> /home/sdcc-builder/build/sdcc-build/orig/sdcc/src/pic14/gen.c:5387:genMultiAsm
                      01027 ;;      1109 rIdx = r0x1062 
00E7                  01028 _00292_DS_
00E7   ???? ????      01029         BANKSEL r0x1006
00E9   0D??           01030         RLF     r0x1006,F
                      01031 ;; >>> /home/sdcc-builder/build/sdcc-build/orig/sdcc/src/pic14/gen.c:5501:genGenericShift
00EA   3E01           01032         ADDLW   0x01
                      01033 ;; >>> /home/sdcc-builder/build/sdcc-build/orig/sdcc/src/pic14/gen.c:5502:genGenericShift
00EB   1C03           01034         BTFSS   STATUS,0
                      01035 ;; >>> /home/sdcc-builder/build/sdcc-build/orig/sdcc/src/pic14/gen.c:5503:genGenericShift
                      01036 ;; ***  popGetLabel  key=26, label offset 166
00EC   2???           01037         GOTO    _00292_DS_
                      01038 ;;; /home/sdcc-builder/build/sdcc-build/orig/sdcc/src/pic14/gen.c:2316:resultRemat *{*
                      01039 ;;; /home/sdcc-builder/build/sdcc-build/orig/sdcc/src/pic14/gen.c:1609:genCpl *{*
                      01040 ;; ***  genCpl  1611
                      01041 ;;      694 register type nRegs=1
                      01042 ;;      694 register type nRegs=1
                      01043 ;; >>> /home/sdcc-builder/build/sdcc-build/orig/sdcc/src/pic14/gen.c:1631:genCpl
                      01044 ;;      1109 rIdx = r0x1062 
00ED                  01045 _00293_DS_
00ED   ???? ????      01046         BANKSEL r0x1006
00EF   09??           01047         COMF    r0x1006,F
00F0   ???? ????      01048         BANKSEL _PORTB
gpasm-1.4.0 #1106 (Oct  6 2014) obj\Debug\gpi   5-11-2022  02:00:26         PAGE 21


LOC    OBJECT CODE    LINE  SOURCE TEXT
  VALUE

00F2   08??           01049         MOVF    _PORTB,W
                      01050 ;; >>> /home/sdcc-builder/build/sdcc-build/orig/sdcc/src/pic14/gen.c:4138:genAnd
                      01051 ;;      1109 rIdx = r0x1062 
00F3   ???? ????      01052         BANKSEL r0x1006
00F5   05??           01053         ANDWF   r0x1006,F
                      01054 ;;; /home/sdcc-builder/build/sdcc-build/orig/sdcc/src/pic14/gen.c:2316:resultRemat *{*
                      01055 ;;; /home/sdcc-builder/build/sdcc-build/orig/sdcc/src/pic14/gen.c:1548:genNot *{*
                      01056 ;; ***  genNot  1550
                      01057 ;;      694 register type nRegs=1
                      01058 ;;      694 register type nRegs=1
                      01059 ;;      line = 1555 result AOP_REG=r0x105F, size=1, left AOP_REG=r0x105D, size=1, right -=-, size=0
                      01060 ;; ***  mov2w  1381  offset=0
                      01061 ;; >>> /home/sdcc-builder/build/sdcc-build/orig/sdcc/src/pic14/gen.c:1386:mov2w
                      01062 ;;      1109 rIdx = r0x105D 
00F6   08??           01063         MOVF    r0x1001,W
                      01064 ;; >>> /home/sdcc-builder/build/sdcc-build/orig/sdcc/src/pic14/gen.c:1582:genNot
00F7   3000           01065         MOVLW   0x00
                      01066 ;; >>> /home/sdcc-builder/build/sdcc-build/orig/sdcc/src/pic14/gen.c:1583:genNot
00F8   1903           01067         BTFSC   STATUS,2
                      01068 ;; >>> /home/sdcc-builder/build/sdcc-build/orig/sdcc/src/pic14/gen.c:1584:genNot
00F9   3001           01069         MOVLW   0x01
                      01070 ;; >>> /home/sdcc-builder/build/sdcc-build/orig/sdcc/src/pic14/gen.c:1393:movwf
                      01071 ;;      1109 rIdx = r0x105F 
00FA   00??           01072         MOVWF   r0x1003
00FB   00??           01073         MOVWF   r0x1004
                      01074 ;; ***  addSign  861
                      01075 ;;; /home/sdcc-builder/build/sdcc-build/orig/sdcc/src/pic14/genarith.c:862:addSign *{*
                      01076 ;; ***  mov2w  1381  offset=0
                      01077 ;; >>> /home/sdcc-builder/build/sdcc-build/orig/sdcc/src/pic14/gen.c:1386:mov2w
                      01078 ;;      1109 rIdx = r0x105E 
00FC   08??           01079         MOVF    r0x1002,W
                      01080 ;; >>> /home/sdcc-builder/build/sdcc-build/orig/sdcc/src/pic14/gen.c:5492:genGenericShift
00FD   3C00           01081         SUBLW   0x00
                      01082 ;; >>> /home/sdcc-builder/build/sdcc-build/orig/sdcc/src/pic14/gen.c:5494:genGenericShift
00FE   1903           01083         BTFSC   STATUS,2
                      01084 ;; >>> /home/sdcc-builder/build/sdcc-build/orig/sdcc/src/pic14/gen.c:5495:genGenericShift
                      01085 ;; ***  popGetLabel  key=29, label offset 166
00FF   2???           01086         GOTO    _00295_DS_
                      01087 ;;; /home/sdcc-builder/build/sdcc-build/orig/sdcc/src/pic14/gen.c:5369:genMultiAsm *{*
                      01088 ;; ***  genMultiAsm  5370
                      01089 ;; >>> /home/sdcc-builder/build/sdcc-build/orig/sdcc/src/pic14/gen.c:5387:genMultiAsm
                      01090 ;;      1109 rIdx = r0x1060 
0100                  01091 _00294_DS_
0100   ???? ????      01092         BANKSEL r0x1004
0102   0D??           01093         RLF     r0x1004,F
                      01094 ;; >>> /home/sdcc-builder/build/sdcc-build/orig/sdcc/src/pic14/gen.c:5501:genGenericShift
0103   3E01           01095         ADDLW   0x01
                      01096 ;; >>> /home/sdcc-builder/build/sdcc-build/orig/sdcc/src/pic14/gen.c:5502:genGenericShift
0104   1C03           01097         BTFSS   STATUS,0
                      01098 ;; >>> /home/sdcc-builder/build/sdcc-build/orig/sdcc/src/pic14/gen.c:5503:genGenericShift
                      01099 ;; ***  popGetLabel  key=28, label offset 166
0105   2???           01100         GOTO    _00294_DS_
                      01101 ;;; /home/sdcc-builder/build/sdcc-build/orig/sdcc/src/pic14/gen.c:2316:resultRemat *{*
gpasm-1.4.0 #1106 (Oct  6 2014) obj\Debug\gpi   5-11-2022  02:00:26         PAGE 22


LOC    OBJECT CODE    LINE  SOURCE TEXT
  VALUE

                      01102 ;;; /home/sdcc-builder/build/sdcc-build/orig/sdcc/src/pic14/gen.c:7120:genCast *{*
                      01103 ;; ***  genCast  7121
                      01104 ;;      694 register type nRegs=1
                      01105 ;;      694 register type nRegs=1
                      01106 ;;      line = 7129 result AOP_REG=r0x105F, size=1, left -=-, size=0, right AOP_REG=r0x1062, size=1
                      01107 ;; ***  genCast  7253
                      01108 ;; >>> /home/sdcc-builder/build/sdcc-build/orig/sdcc/src/pic14/gen.c:7277:genCast
                      01109 ;;      1109 rIdx = r0x1062 
0106                  01110 _00295_DS_
0106   ???? ????      01111         BANKSEL r0x1006
0108   08??           01112         MOVF    r0x1006,W
                      01113 ;; >>> /home/sdcc-builder/build/sdcc-build/orig/sdcc/src/pic14/gen.c:7278:genCast
                      01114 ;;      1109 rIdx = r0x105F 
0109   00??           01115         MOVWF   r0x1003
010A   04??           01116         IORWF   r0x1004,W
010B   ???? ????      01117         BANKSEL _PORTB
010D   00??           01118         MOVWF   _PORTB
                      01119 ;;; /home/sdcc-builder/build/sdcc-build/orig/sdcc/src/pic14/gen.c:2316:resultRemat *{*
                      01120 ;;; /home/sdcc-builder/build/sdcc-build/orig/sdcc/src/pic14/gen.c:2778:genGoto *{*
                      01121 ;; >>> /home/sdcc-builder/build/sdcc-build/orig/sdcc/src/pic14/gen.c:2780:genGoto
                      01122 ;; ***  popGetLabel  key=7, label offset 166
                      01123         .line   146; "gpio.c"   break ;
010E   2???           01124         GOTO    _00273_DS_
                      01125 ;;; /home/sdcc-builder/build/sdcc-build/orig/sdcc/src/pic14/gen.c:2316:resultRemat *{*
                      01126 ;;; /home/sdcc-builder/build/sdcc-build/orig/sdcc/src/pic14/gen.c:2760:genLabel *{*
                      01127 ;; ***  genLabel  2763
                      01128 ;;; /home/sdcc-builder/build/sdcc-build/orig/sdcc/src/pic14/gen.c:2316:resultRemat *{*
                      01129 ;;; /home/sdcc-builder/build/sdcc-build/orig/sdcc/src/pic14/gen.c:5418:genGenericShift *{*
                      01130 ;; ***  genGenericShift  5421
                      01131 ;;      694 register type nRegs=1
                      01132 ;;      694 register type nRegs=2
                      01133 ;; ***  mov2w  1381  offset=1
                      01134 ;; >>> /home/sdcc-builder/build/sdcc-build/orig/sdcc/src/pic14/gen.c:1384:mov2w
010F                  01135 _00269_DS_
                      01136         .line   148; "gpio.c"   currentState = GET_BIT(PORTC,pin) ;
010F   3000           01137         MOVLW   0x00
                      01138 ;; >>> /home/sdcc-builder/build/sdcc-build/orig/sdcc/src/pic14/gen.c:1393:movwf
                      01139 ;;      1109 rIdx = r0x1060 
0110   ???? ????      01140         BANKSEL r0x1004
0112   00??           01141         MOVWF   r0x1004
                      01142 ;; ***  mov2w  1381  offset=0
                      01143 ;; >>> /home/sdcc-builder/build/sdcc-build/orig/sdcc/src/pic14/gen.c:1384:mov2w
0113   3001           01144         MOVLW   0x01
                      01145 ;; >>> /home/sdcc-builder/build/sdcc-build/orig/sdcc/src/pic14/gen.c:1393:movwf
                      01146 ;;      1109 rIdx = r0x105F 
0114   00??           01147         MOVWF   r0x1003
                      01148 ;; ***  addSign  861
                      01149 ;;; /home/sdcc-builder/build/sdcc-build/orig/sdcc/src/pic14/genarith.c:862:addSign *{*
                      01150 ;; ***  mov2w  1381  offset=0
                      01151 ;; >>> /home/sdcc-builder/build/sdcc-build/orig/sdcc/src/pic14/gen.c:1386:mov2w
                      01152 ;;      1109 rIdx = r0x105E 
0115   08??           01153         MOVF    r0x1002,W
                      01154 ;; >>> /home/sdcc-builder/build/sdcc-build/orig/sdcc/src/pic14/gen.c:5492:genGenericShift
gpasm-1.4.0 #1106 (Oct  6 2014) obj\Debug\gpi   5-11-2022  02:00:26         PAGE 23


LOC    OBJECT CODE    LINE  SOURCE TEXT
  VALUE

0116   3C00           01155         SUBLW   0x00
                      01156 ;; >>> /home/sdcc-builder/build/sdcc-build/orig/sdcc/src/pic14/gen.c:5494:genGenericShift
0117   1903           01157         BTFSC   STATUS,2
                      01158 ;; >>> /home/sdcc-builder/build/sdcc-build/orig/sdcc/src/pic14/gen.c:5495:genGenericShift
                      01159 ;; ***  popGetLabel  key=31, label offset 166
0118   2???           01160         GOTO    _00297_DS_
                      01161 ;;; /home/sdcc-builder/build/sdcc-build/orig/sdcc/src/pic14/gen.c:5369:genMultiAsm *{*
                      01162 ;; ***  genMultiAsm  5370
                      01163 ;; >>> /home/sdcc-builder/build/sdcc-build/orig/sdcc/src/pic14/gen.c:5387:genMultiAsm
                      01164 ;;      1109 rIdx = r0x105F 
0119                  01165 _00296_DS_
0119   ???? ????      01166         BANKSEL r0x1003
011B   0D??           01167         RLF     r0x1003,F
                      01168 ;; >>> /home/sdcc-builder/build/sdcc-build/orig/sdcc/src/pic14/gen.c:5387:genMultiAsm
                      01169 ;;      1109 rIdx = r0x1060 
011C   0D??           01170         RLF     r0x1004,F
                      01171 ;; >>> /home/sdcc-builder/build/sdcc-build/orig/sdcc/src/pic14/gen.c:5501:genGenericShift
011D   3E01           01172         ADDLW   0x01
                      01173 ;; >>> /home/sdcc-builder/build/sdcc-build/orig/sdcc/src/pic14/gen.c:5502:genGenericShift
011E   1C03           01174         BTFSS   STATUS,0
                      01175 ;; >>> /home/sdcc-builder/build/sdcc-build/orig/sdcc/src/pic14/gen.c:5503:genGenericShift
                      01176 ;; ***  popGetLabel  key=30, label offset 166
011F   2???           01177         GOTO    _00296_DS_
                      01178 ;;; /home/sdcc-builder/build/sdcc-build/orig/sdcc/src/pic14/gen.c:2316:resultRemat *{*
                      01179 ;;; /home/sdcc-builder/build/sdcc-build/orig/sdcc/src/pic14/gen.c:7120:genCast *{*
                      01180 ;; ***  genCast  7121
                      01181 ;; ***  aopForSym 315
                      01182 ;;      327 sym->rname = _PORTC, size = 1
                      01183 ;;      694 register type nRegs=2
                      01184 ;;      line = 7129 result AOP_REG=r0x1062, size=2, left -=-, size=0, right AOP_DIR=_PORTC, size=1
                      01185 ;; >>> /home/sdcc-builder/build/sdcc-build/orig/sdcc/src/pic14/gen.c:7298:genCast
                      01186 ;;      1009
                      01187 ;;      1028  _PORTC   offset=0
0120                  01188 _00297_DS_
0120   ???? ????      01189         BANKSEL _PORTC
0122   08??           01190         MOVF    _PORTC,W
                      01191 ;; >>> /home/sdcc-builder/build/sdcc-build/orig/sdcc/src/pic14/gen.c:7299:genCast
                      01192 ;;      1109 rIdx = r0x1062 
0123   ???? ????      01193         BANKSEL r0x1006
0125   00??           01194         MOVWF   r0x1006
                      01195 ;; ***  addSign  861
                      01196 ;;; /home/sdcc-builder/build/sdcc-build/orig/sdcc/src/pic14/genarith.c:862:addSign *{*
                      01197 ;; >>> /home/sdcc-builder/build/sdcc-build/orig/sdcc/src/pic14/genarith.c:881:addSign
                      01198 ;;      1109 rIdx = r0x1064 
0126   01??           01199         CLRF    r0x1008
                      01200 ;;; /home/sdcc-builder/build/sdcc-build/orig/sdcc/src/pic14/gen.c:2316:resultRemat *{*
                      01201 ;;; /home/sdcc-builder/build/sdcc-build/orig/sdcc/src/pic14/gen.c:3919:genAnd *{*
                      01202 ;; ***  genAnd  3920
                      01203 ;;      694 register type nRegs=2
                      01204 ;;      694 register type nRegs=2
                      01205 ;;      694 register type nRegs=2
                      01206 ;;      line = 3955 result AOP_REG=r0x105F, size=2, left AOP_REG=r0x105F, size=2, right AOP_REG=r0x1062,
                             size=2
gpasm-1.4.0 #1106 (Oct  6 2014) obj\Debug\gpi   5-11-2022  02:00:26         PAGE 24


LOC    OBJECT CODE    LINE  SOURCE TEXT
  VALUE

                      01207 ;; >>> /home/sdcc-builder/build/sdcc-build/orig/sdcc/src/pic14/gen.c:4137:genAnd
                      01208 ;;      1109 rIdx = r0x1062 
0127   08??           01209         MOVF    r0x1006,W
                      01210 ;; >>> /home/sdcc-builder/build/sdcc-build/orig/sdcc/src/pic14/gen.c:4138:genAnd
                      01211 ;;      1109 rIdx = r0x105F 
0128   05??           01212         ANDWF   r0x1003,F
                      01213 ;; >>> /home/sdcc-builder/build/sdcc-build/orig/sdcc/src/pic14/gen.c:4137:genAnd
                      01214 ;;      1109 rIdx = r0x1064 
0129   3000           01215         MOVLW   0x00
                      01216 ;; >>> /home/sdcc-builder/build/sdcc-build/orig/sdcc/src/pic14/gen.c:4138:genAnd
                      01217 ;;      1109 rIdx = r0x1060 
012A   05??           01218         ANDWF   r0x1004,F
                      01219 ;;; /home/sdcc-builder/build/sdcc-build/orig/sdcc/src/pic14/gen.c:2316:resultRemat *{*
                      01220 ;;; /home/sdcc-builder/build/sdcc-build/orig/sdcc/src/pic14/gen.c:5418:genGenericShift *{*
                      01221 ;; ***  genGenericShift  5421
                      01222 ;;      694 register type nRegs=1
                      01223 ;;      694 register type nRegs=2
                      01224 ;;      694 register type nRegs=2
                      01225 ;; ***  mov2w  1381  offset=1
                      01226 ;; >>> /home/sdcc-builder/build/sdcc-build/orig/sdcc/src/pic14/gen.c:1386:mov2w
                      01227 ;;      1109 rIdx = r0x1060 
012B   08??           01228         MOVF    r0x1004,W
                      01229 ;; >>> /home/sdcc-builder/build/sdcc-build/orig/sdcc/src/pic14/gen.c:1393:movwf
                      01230 ;;      1109 rIdx = r0x1064 
012C   00??           01231         MOVWF   r0x1008
                      01232 ;; ***  mov2w  1381  offset=0
                      01233 ;; >>> /home/sdcc-builder/build/sdcc-build/orig/sdcc/src/pic14/gen.c:1386:mov2w
                      01234 ;;      1109 rIdx = r0x105F 
012D   08??           01235         MOVF    r0x1003,W
                      01236 ;; >>> /home/sdcc-builder/build/sdcc-build/orig/sdcc/src/pic14/gen.c:1393:movwf
                      01237 ;;      1109 rIdx = r0x1062 
012E   00??           01238         MOVWF   r0x1006
                      01239 ;; ***  addSign  861
                      01240 ;;; /home/sdcc-builder/build/sdcc-build/orig/sdcc/src/pic14/genarith.c:862:addSign *{*
                      01241 ;; ***  mov2w  1381  offset=0
                      01242 ;; >>> /home/sdcc-builder/build/sdcc-build/orig/sdcc/src/pic14/gen.c:1386:mov2w
                      01243 ;;      1109 rIdx = r0x105E 
012F   08??           01244         MOVF    r0x1002,W
                      01245 ;; >>> /home/sdcc-builder/build/sdcc-build/orig/sdcc/src/pic14/gen.c:5492:genGenericShift
0130   3C00           01246         SUBLW   0x00
                      01247 ;; >>> /home/sdcc-builder/build/sdcc-build/orig/sdcc/src/pic14/gen.c:5494:genGenericShift
0131   1903           01248         BTFSC   STATUS,2
                      01249 ;; >>> /home/sdcc-builder/build/sdcc-build/orig/sdcc/src/pic14/gen.c:5495:genGenericShift
                      01250 ;; ***  popGetLabel  key=33, label offset 166
0132   2???           01251         GOTO    _00299_DS_
                      01252 ;;; /home/sdcc-builder/build/sdcc-build/orig/sdcc/src/pic14/gen.c:5400:loadSignToC *{*
                      01253 ;; >>> /home/sdcc-builder/build/sdcc-build/orig/sdcc/src/pic14/gen.c:5403:loadSignToC
0133                  01254 _00298_DS_
0133   1003           01255         BCF     STATUS,0
                      01256 ;; >>> /home/sdcc-builder/build/sdcc-build/orig/sdcc/src/pic14/gen.c:5404:loadSignToC
0134   ???? ????      01257         BANKSEL r0x1008
0136   1B??           01258         BTFSC   r0x1008,7
                      01259 ;; >>> /home/sdcc-builder/build/sdcc-build/orig/sdcc/src/pic14/gen.c:5405:loadSignToC
gpasm-1.4.0 #1106 (Oct  6 2014) obj\Debug\gpi   5-11-2022  02:00:26         PAGE 25


LOC    OBJECT CODE    LINE  SOURCE TEXT
  VALUE

0137   1403           01260         BSF     STATUS,0
                      01261 ;;; /home/sdcc-builder/build/sdcc-build/orig/sdcc/src/pic14/gen.c:5369:genMultiAsm *{*
                      01262 ;; ***  genMultiAsm  5370
                      01263 ;; >>> /home/sdcc-builder/build/sdcc-build/orig/sdcc/src/pic14/gen.c:5387:genMultiAsm
                      01264 ;;      1109 rIdx = r0x1064 
0138   0C??           01265         RRF     r0x1008,F
                      01266 ;; >>> /home/sdcc-builder/build/sdcc-build/orig/sdcc/src/pic14/gen.c:5387:genMultiAsm
                      01267 ;;      1109 rIdx = r0x1062 
0139   0C??           01268         RRF     r0x1006,F
                      01269 ;; >>> /home/sdcc-builder/build/sdcc-build/orig/sdcc/src/pic14/gen.c:5501:genGenericShift
013A   3E01           01270         ADDLW   0x01
                      01271 ;; >>> /home/sdcc-builder/build/sdcc-build/orig/sdcc/src/pic14/gen.c:5502:genGenericShift
013B   1C03           01272         BTFSS   STATUS,0
                      01273 ;; >>> /home/sdcc-builder/build/sdcc-build/orig/sdcc/src/pic14/gen.c:5503:genGenericShift
                      01274 ;; ***  popGetLabel  key=32, label offset 166
013C   2???           01275         GOTO    _00298_DS_
                      01276 ;;; /home/sdcc-builder/build/sdcc-build/orig/sdcc/src/pic14/gen.c:2316:resultRemat *{*
                      01277 ;;; /home/sdcc-builder/build/sdcc-build/orig/sdcc/src/pic14/gen.c:7120:genCast *{*
                      01278 ;; ***  genCast  7121
                      01279 ;;      694 register type nRegs=2
                      01280 ;;      694 register type nRegs=1
                      01281 ;;      line = 7129 result AOP_REG=r0x105D, size=1, left -=-, size=0, right AOP_REG=r0x1062, size=2
                      01282 ;; ***  genCast  7253
                      01283 ;; >>> /home/sdcc-builder/build/sdcc-build/orig/sdcc/src/pic14/gen.c:7277:genCast
                      01284 ;;      1109 rIdx = r0x1062 
013D                  01285 _00299_DS_
013D   ???? ????      01286         BANKSEL r0x1006
013F   08??           01287         MOVF    r0x1006,W
                      01288 ;; >>> /home/sdcc-builder/build/sdcc-build/orig/sdcc/src/pic14/gen.c:7278:genCast
                      01289 ;;      1109 rIdx = r0x105D 
0140   00??           01290         MOVWF   r0x1001
                      01291 ;;; /home/sdcc-builder/build/sdcc-build/orig/sdcc/src/pic14/gen.c:2316:resultRemat *{*
                      01292 ;;; /home/sdcc-builder/build/sdcc-build/orig/sdcc/src/pic14/gen.c:5418:genGenericShift *{*
                      01293 ;; ***  genGenericShift  5421
                      01294 ;;      694 register type nRegs=1
                      01295 ;;      694 register type nRegs=1
                      01296 ;; ***  mov2w  1381  offset=0
                      01297 ;; >>> /home/sdcc-builder/build/sdcc-build/orig/sdcc/src/pic14/gen.c:1384:mov2w
                      01298         .line   149; "gpio.c"   SET_REGISTER_BIT(PORTC,pin,!currentState) ;
0141   3001           01299         MOVLW   0x01
                      01300 ;; >>> /home/sdcc-builder/build/sdcc-build/orig/sdcc/src/pic14/gen.c:1393:movwf
                      01301 ;;      1109 rIdx = r0x1062 
0142   00??           01302         MOVWF   r0x1006
                      01303 ;; ***  addSign  861
                      01304 ;;; /home/sdcc-builder/build/sdcc-build/orig/sdcc/src/pic14/genarith.c:862:addSign *{*
                      01305 ;; ***  mov2w  1381  offset=0
                      01306 ;; >>> /home/sdcc-builder/build/sdcc-build/orig/sdcc/src/pic14/gen.c:1386:mov2w
                      01307 ;;      1109 rIdx = r0x105E 
0143   08??           01308         MOVF    r0x1002,W
                      01309 ;; >>> /home/sdcc-builder/build/sdcc-build/orig/sdcc/src/pic14/gen.c:5492:genGenericShift
0144   3C00           01310         SUBLW   0x00
                      01311 ;; >>> /home/sdcc-builder/build/sdcc-build/orig/sdcc/src/pic14/gen.c:5494:genGenericShift
0145   1903           01312         BTFSC   STATUS,2
gpasm-1.4.0 #1106 (Oct  6 2014) obj\Debug\gpi   5-11-2022  02:00:26         PAGE 26


LOC    OBJECT CODE    LINE  SOURCE TEXT
  VALUE

                      01313 ;; >>> /home/sdcc-builder/build/sdcc-build/orig/sdcc/src/pic14/gen.c:5495:genGenericShift
                      01314 ;; ***  popGetLabel  key=35, label offset 166
0146   2???           01315         GOTO    _00301_DS_
                      01316 ;;; /home/sdcc-builder/build/sdcc-build/orig/sdcc/src/pic14/gen.c:5369:genMultiAsm *{*
                      01317 ;; ***  genMultiAsm  5370
                      01318 ;; >>> /home/sdcc-builder/build/sdcc-build/orig/sdcc/src/pic14/gen.c:5387:genMultiAsm
                      01319 ;;      1109 rIdx = r0x1062 
0147                  01320 _00300_DS_
0147   ???? ????      01321         BANKSEL r0x1006
0149   0D??           01322         RLF     r0x1006,F
                      01323 ;; >>> /home/sdcc-builder/build/sdcc-build/orig/sdcc/src/pic14/gen.c:5501:genGenericShift
014A   3E01           01324         ADDLW   0x01
                      01325 ;; >>> /home/sdcc-builder/build/sdcc-build/orig/sdcc/src/pic14/gen.c:5502:genGenericShift
014B   1C03           01326         BTFSS   STATUS,0
                      01327 ;; >>> /home/sdcc-builder/build/sdcc-build/orig/sdcc/src/pic14/gen.c:5503:genGenericShift
                      01328 ;; ***  popGetLabel  key=34, label offset 166
014C   2???           01329         GOTO    _00300_DS_
                      01330 ;;; /home/sdcc-builder/build/sdcc-build/orig/sdcc/src/pic14/gen.c:2316:resultRemat *{*
                      01331 ;;; /home/sdcc-builder/build/sdcc-build/orig/sdcc/src/pic14/gen.c:1609:genCpl *{*
                      01332 ;; ***  genCpl  1611
                      01333 ;;      694 register type nRegs=1
                      01334 ;;      694 register type nRegs=1
                      01335 ;; >>> /home/sdcc-builder/build/sdcc-build/orig/sdcc/src/pic14/gen.c:1631:genCpl
                      01336 ;;      1109 rIdx = r0x1062 
014D                  01337 _00301_DS_
014D   ???? ????      01338         BANKSEL r0x1006
014F   09??           01339         COMF    r0x1006,F
0150   ???? ????      01340         BANKSEL _PORTC
0152   08??           01341         MOVF    _PORTC,W
                      01342 ;; >>> /home/sdcc-builder/build/sdcc-build/orig/sdcc/src/pic14/gen.c:4138:genAnd
                      01343 ;;      1109 rIdx = r0x1062 
0153   ???? ????      01344         BANKSEL r0x1006
0155   05??           01345         ANDWF   r0x1006,F
                      01346 ;;; /home/sdcc-builder/build/sdcc-build/orig/sdcc/src/pic14/gen.c:2316:resultRemat *{*
                      01347 ;;; /home/sdcc-builder/build/sdcc-build/orig/sdcc/src/pic14/gen.c:1548:genNot *{*
                      01348 ;; ***  genNot  1550
                      01349 ;;      694 register type nRegs=1
                      01350 ;;      694 register type nRegs=1
                      01351 ;;      line = 1555 result AOP_REG=r0x105F, size=1, left AOP_REG=r0x105D, size=1, right -=-, size=0
                      01352 ;; ***  mov2w  1381  offset=0
                      01353 ;; >>> /home/sdcc-builder/build/sdcc-build/orig/sdcc/src/pic14/gen.c:1386:mov2w
                      01354 ;;      1109 rIdx = r0x105D 
0156   08??           01355         MOVF    r0x1001,W
                      01356 ;; >>> /home/sdcc-builder/build/sdcc-build/orig/sdcc/src/pic14/gen.c:1582:genNot
0157   3000           01357         MOVLW   0x00
                      01358 ;; >>> /home/sdcc-builder/build/sdcc-build/orig/sdcc/src/pic14/gen.c:1583:genNot
0158   1903           01359         BTFSC   STATUS,2
                      01360 ;; >>> /home/sdcc-builder/build/sdcc-build/orig/sdcc/src/pic14/gen.c:1584:genNot
0159   3001           01361         MOVLW   0x01
                      01362 ;; >>> /home/sdcc-builder/build/sdcc-build/orig/sdcc/src/pic14/gen.c:1393:movwf
                      01363 ;;      1109 rIdx = r0x105F 
015A   00??           01364         MOVWF   r0x1003
015B   00??           01365         MOVWF   r0x1004
gpasm-1.4.0 #1106 (Oct  6 2014) obj\Debug\gpi   5-11-2022  02:00:26         PAGE 27


LOC    OBJECT CODE    LINE  SOURCE TEXT
  VALUE

                      01366 ;; ***  addSign  861
                      01367 ;;; /home/sdcc-builder/build/sdcc-build/orig/sdcc/src/pic14/genarith.c:862:addSign *{*
                      01368 ;; ***  mov2w  1381  offset=0
                      01369 ;; >>> /home/sdcc-builder/build/sdcc-build/orig/sdcc/src/pic14/gen.c:1386:mov2w
                      01370 ;;      1109 rIdx = r0x105E 
015C   08??           01371         MOVF    r0x1002,W
                      01372 ;; >>> /home/sdcc-builder/build/sdcc-build/orig/sdcc/src/pic14/gen.c:5492:genGenericShift
015D   3C00           01373         SUBLW   0x00
                      01374 ;; >>> /home/sdcc-builder/build/sdcc-build/orig/sdcc/src/pic14/gen.c:5494:genGenericShift
015E   1903           01375         BTFSC   STATUS,2
                      01376 ;; >>> /home/sdcc-builder/build/sdcc-build/orig/sdcc/src/pic14/gen.c:5495:genGenericShift
                      01377 ;; ***  popGetLabel  key=37, label offset 166
015F   2???           01378         GOTO    _00303_DS_
                      01379 ;;; /home/sdcc-builder/build/sdcc-build/orig/sdcc/src/pic14/gen.c:5369:genMultiAsm *{*
                      01380 ;; ***  genMultiAsm  5370
                      01381 ;; >>> /home/sdcc-builder/build/sdcc-build/orig/sdcc/src/pic14/gen.c:5387:genMultiAsm
                      01382 ;;      1109 rIdx = r0x1060 
0160                  01383 _00302_DS_
0160   ???? ????      01384         BANKSEL r0x1004
0162   0D??           01385         RLF     r0x1004,F
                      01386 ;; >>> /home/sdcc-builder/build/sdcc-build/orig/sdcc/src/pic14/gen.c:5501:genGenericShift
0163   3E01           01387         ADDLW   0x01
                      01388 ;; >>> /home/sdcc-builder/build/sdcc-build/orig/sdcc/src/pic14/gen.c:5502:genGenericShift
0164   1C03           01389         BTFSS   STATUS,0
                      01390 ;; >>> /home/sdcc-builder/build/sdcc-build/orig/sdcc/src/pic14/gen.c:5503:genGenericShift
                      01391 ;; ***  popGetLabel  key=36, label offset 166
0165   2???           01392         GOTO    _00302_DS_
                      01393 ;;; /home/sdcc-builder/build/sdcc-build/orig/sdcc/src/pic14/gen.c:2316:resultRemat *{*
                      01394 ;;; /home/sdcc-builder/build/sdcc-build/orig/sdcc/src/pic14/gen.c:7120:genCast *{*
                      01395 ;; ***  genCast  7121
                      01396 ;;      694 register type nRegs=1
                      01397 ;;      694 register type nRegs=1
                      01398 ;;      line = 7129 result AOP_REG=r0x105F, size=1, left -=-, size=0, right AOP_REG=r0x1062, size=1
                      01399 ;; ***  genCast  7253
                      01400 ;; >>> /home/sdcc-builder/build/sdcc-build/orig/sdcc/src/pic14/gen.c:7277:genCast
                      01401 ;;      1109 rIdx = r0x1062 
0166                  01402 _00303_DS_
0166   ???? ????      01403         BANKSEL r0x1006
0168   08??           01404         MOVF    r0x1006,W
                      01405 ;; >>> /home/sdcc-builder/build/sdcc-build/orig/sdcc/src/pic14/gen.c:7278:genCast
                      01406 ;;      1109 rIdx = r0x105F 
0169   00??           01407         MOVWF   r0x1003
016A   04??           01408         IORWF   r0x1004,W
016B   ???? ????      01409         BANKSEL _PORTC
016D   00??           01410         MOVWF   _PORTC
                      01411 ;;; /home/sdcc-builder/build/sdcc-build/orig/sdcc/src/pic14/gen.c:2316:resultRemat *{*
                      01412 ;;; /home/sdcc-builder/build/sdcc-build/orig/sdcc/src/pic14/gen.c:2778:genGoto *{*
                      01413 ;; >>> /home/sdcc-builder/build/sdcc-build/orig/sdcc/src/pic14/gen.c:2780:genGoto
                      01414 ;; ***  popGetLabel  key=7, label offset 166
                      01415         .line   150; "gpio.c"   break ;
016E   2???           01416         GOTO    _00273_DS_
                      01417 ;;; /home/sdcc-builder/build/sdcc-build/orig/sdcc/src/pic14/gen.c:2316:resultRemat *{*
                      01418 ;;; /home/sdcc-builder/build/sdcc-build/orig/sdcc/src/pic14/gen.c:2760:genLabel *{*
gpasm-1.4.0 #1106 (Oct  6 2014) obj\Debug\gpi   5-11-2022  02:00:26         PAGE 28


LOC    OBJECT CODE    LINE  SOURCE TEXT
  VALUE

                      01419 ;; ***  genLabel  2763
                      01420 ;;; /home/sdcc-builder/build/sdcc-build/orig/sdcc/src/pic14/gen.c:2316:resultRemat *{*
                      01421 ;;; /home/sdcc-builder/build/sdcc-build/orig/sdcc/src/pic14/gen.c:5418:genGenericShift *{*
                      01422 ;; ***  genGenericShift  5421
                      01423 ;;      694 register type nRegs=1
                      01424 ;;      694 register type nRegs=2
                      01425 ;; ***  mov2w  1381  offset=1
                      01426 ;; >>> /home/sdcc-builder/build/sdcc-build/orig/sdcc/src/pic14/gen.c:1384:mov2w
016F                  01427 _00270_DS_
                      01428         .line   152; "gpio.c"   currentState = GET_BIT(PORTD,pin) ;
016F   3000           01429         MOVLW   0x00
                      01430 ;; >>> /home/sdcc-builder/build/sdcc-build/orig/sdcc/src/pic14/gen.c:1393:movwf
                      01431 ;;      1109 rIdx = r0x1060 
0170   ???? ????      01432         BANKSEL r0x1004
0172   00??           01433         MOVWF   r0x1004
                      01434 ;; ***  mov2w  1381  offset=0
                      01435 ;; >>> /home/sdcc-builder/build/sdcc-build/orig/sdcc/src/pic14/gen.c:1384:mov2w
0173   3001           01436         MOVLW   0x01
                      01437 ;; >>> /home/sdcc-builder/build/sdcc-build/orig/sdcc/src/pic14/gen.c:1393:movwf
                      01438 ;;      1109 rIdx = r0x105F 
0174   00??           01439         MOVWF   r0x1003
                      01440 ;; ***  addSign  861
                      01441 ;;; /home/sdcc-builder/build/sdcc-build/orig/sdcc/src/pic14/genarith.c:862:addSign *{*
                      01442 ;; ***  mov2w  1381  offset=0
                      01443 ;; >>> /home/sdcc-builder/build/sdcc-build/orig/sdcc/src/pic14/gen.c:1386:mov2w
                      01444 ;;      1109 rIdx = r0x105E 
0175   08??           01445         MOVF    r0x1002,W
                      01446 ;; >>> /home/sdcc-builder/build/sdcc-build/orig/sdcc/src/pic14/gen.c:5492:genGenericShift
0176   3C00           01447         SUBLW   0x00
                      01448 ;; >>> /home/sdcc-builder/build/sdcc-build/orig/sdcc/src/pic14/gen.c:5494:genGenericShift
0177   1903           01449         BTFSC   STATUS,2
                      01450 ;; >>> /home/sdcc-builder/build/sdcc-build/orig/sdcc/src/pic14/gen.c:5495:genGenericShift
                      01451 ;; ***  popGetLabel  key=39, label offset 166
0178   2???           01452         GOTO    _00305_DS_
                      01453 ;;; /home/sdcc-builder/build/sdcc-build/orig/sdcc/src/pic14/gen.c:5369:genMultiAsm *{*
                      01454 ;; ***  genMultiAsm  5370
                      01455 ;; >>> /home/sdcc-builder/build/sdcc-build/orig/sdcc/src/pic14/gen.c:5387:genMultiAsm
                      01456 ;;      1109 rIdx = r0x105F 
0179                  01457 _00304_DS_
0179   ???? ????      01458         BANKSEL r0x1003
017B   0D??           01459         RLF     r0x1003,F
                      01460 ;; >>> /home/sdcc-builder/build/sdcc-build/orig/sdcc/src/pic14/gen.c:5387:genMultiAsm
                      01461 ;;      1109 rIdx = r0x1060 
017C   0D??           01462         RLF     r0x1004,F
                      01463 ;; >>> /home/sdcc-builder/build/sdcc-build/orig/sdcc/src/pic14/gen.c:5501:genGenericShift
017D   3E01           01464         ADDLW   0x01
                      01465 ;; >>> /home/sdcc-builder/build/sdcc-build/orig/sdcc/src/pic14/gen.c:5502:genGenericShift
017E   1C03           01466         BTFSS   STATUS,0
                      01467 ;; >>> /home/sdcc-builder/build/sdcc-build/orig/sdcc/src/pic14/gen.c:5503:genGenericShift
                      01468 ;; ***  popGetLabel  key=38, label offset 166
017F   2???           01469         GOTO    _00304_DS_
                      01470 ;;; /home/sdcc-builder/build/sdcc-build/orig/sdcc/src/pic14/gen.c:2316:resultRemat *{*
                      01471 ;;; /home/sdcc-builder/build/sdcc-build/orig/sdcc/src/pic14/gen.c:7120:genCast *{*
gpasm-1.4.0 #1106 (Oct  6 2014) obj\Debug\gpi   5-11-2022  02:00:26         PAGE 29


LOC    OBJECT CODE    LINE  SOURCE TEXT
  VALUE

                      01472 ;; ***  genCast  7121
                      01473 ;; ***  aopForSym 315
                      01474 ;;      327 sym->rname = _PORTD, size = 1
                      01475 ;;      694 register type nRegs=2
                      01476 ;;      line = 7129 result AOP_REG=r0x1062, size=2, left -=-, size=0, right AOP_DIR=_PORTD, size=1
                      01477 ;; >>> /home/sdcc-builder/build/sdcc-build/orig/sdcc/src/pic14/gen.c:7298:genCast
                      01478 ;;      1009
                      01479 ;;      1028  _PORTD   offset=0
0180                  01480 _00305_DS_
0180   ???? ????      01481         BANKSEL _PORTD
0182   08??           01482         MOVF    _PORTD,W
                      01483 ;; >>> /home/sdcc-builder/build/sdcc-build/orig/sdcc/src/pic14/gen.c:7299:genCast
                      01484 ;;      1109 rIdx = r0x1062 
0183   ???? ????      01485         BANKSEL r0x1006
0185   00??           01486         MOVWF   r0x1006
                      01487 ;; ***  addSign  861
                      01488 ;;; /home/sdcc-builder/build/sdcc-build/orig/sdcc/src/pic14/genarith.c:862:addSign *{*
                      01489 ;; >>> /home/sdcc-builder/build/sdcc-build/orig/sdcc/src/pic14/genarith.c:881:addSign
                      01490 ;;      1109 rIdx = r0x1065 
0186   01??           01491         CLRF    r0x1009
                      01492 ;;; /home/sdcc-builder/build/sdcc-build/orig/sdcc/src/pic14/gen.c:2316:resultRemat *{*
                      01493 ;;; /home/sdcc-builder/build/sdcc-build/orig/sdcc/src/pic14/gen.c:3919:genAnd *{*
                      01494 ;; ***  genAnd  3920
                      01495 ;;      694 register type nRegs=2
                      01496 ;;      694 register type nRegs=2
                      01497 ;;      694 register type nRegs=2
                      01498 ;;      line = 3955 result AOP_REG=r0x105F, size=2, left AOP_REG=r0x105F, size=2, right AOP_REG=r0x1062,
                             size=2
                      01499 ;; >>> /home/sdcc-builder/build/sdcc-build/orig/sdcc/src/pic14/gen.c:4137:genAnd
                      01500 ;;      1109 rIdx = r0x1062 
0187   08??           01501         MOVF    r0x1006,W
                      01502 ;; >>> /home/sdcc-builder/build/sdcc-build/orig/sdcc/src/pic14/gen.c:4138:genAnd
                      01503 ;;      1109 rIdx = r0x105F 
0188   05??           01504         ANDWF   r0x1003,F
                      01505 ;; >>> /home/sdcc-builder/build/sdcc-build/orig/sdcc/src/pic14/gen.c:4137:genAnd
                      01506 ;;      1109 rIdx = r0x1065 
0189   3000           01507         MOVLW   0x00
                      01508 ;; >>> /home/sdcc-builder/build/sdcc-build/orig/sdcc/src/pic14/gen.c:4138:genAnd
                      01509 ;;      1109 rIdx = r0x1060 
018A   05??           01510         ANDWF   r0x1004,F
                      01511 ;;; /home/sdcc-builder/build/sdcc-build/orig/sdcc/src/pic14/gen.c:2316:resultRemat *{*
                      01512 ;;; /home/sdcc-builder/build/sdcc-build/orig/sdcc/src/pic14/gen.c:5418:genGenericShift *{*
                      01513 ;; ***  genGenericShift  5421
                      01514 ;;      694 register type nRegs=1
                      01515 ;;      694 register type nRegs=2
                      01516 ;;      694 register type nRegs=2
                      01517 ;; ***  mov2w  1381  offset=1
                      01518 ;; >>> /home/sdcc-builder/build/sdcc-build/orig/sdcc/src/pic14/gen.c:1386:mov2w
                      01519 ;;      1109 rIdx = r0x1060 
018B   08??           01520         MOVF    r0x1004,W
                      01521 ;; >>> /home/sdcc-builder/build/sdcc-build/orig/sdcc/src/pic14/gen.c:1393:movwf
                      01522 ;;      1109 rIdx = r0x1065 
018C   00??           01523         MOVWF   r0x1009
gpasm-1.4.0 #1106 (Oct  6 2014) obj\Debug\gpi   5-11-2022  02:00:26         PAGE 30


LOC    OBJECT CODE    LINE  SOURCE TEXT
  VALUE

                      01524 ;; ***  mov2w  1381  offset=0
                      01525 ;; >>> /home/sdcc-builder/build/sdcc-build/orig/sdcc/src/pic14/gen.c:1386:mov2w
                      01526 ;;      1109 rIdx = r0x105F 
018D   08??           01527         MOVF    r0x1003,W
                      01528 ;; >>> /home/sdcc-builder/build/sdcc-build/orig/sdcc/src/pic14/gen.c:1393:movwf
                      01529 ;;      1109 rIdx = r0x1062 
018E   00??           01530         MOVWF   r0x1006
                      01531 ;; ***  addSign  861
                      01532 ;;; /home/sdcc-builder/build/sdcc-build/orig/sdcc/src/pic14/genarith.c:862:addSign *{*
                      01533 ;; ***  mov2w  1381  offset=0
                      01534 ;; >>> /home/sdcc-builder/build/sdcc-build/orig/sdcc/src/pic14/gen.c:1386:mov2w
                      01535 ;;      1109 rIdx = r0x105E 
018F   08??           01536         MOVF    r0x1002,W
                      01537 ;; >>> /home/sdcc-builder/build/sdcc-build/orig/sdcc/src/pic14/gen.c:5492:genGenericShift
0190   3C00           01538         SUBLW   0x00
                      01539 ;; >>> /home/sdcc-builder/build/sdcc-build/orig/sdcc/src/pic14/gen.c:5494:genGenericShift
0191   1903           01540         BTFSC   STATUS,2
                      01541 ;; >>> /home/sdcc-builder/build/sdcc-build/orig/sdcc/src/pic14/gen.c:5495:genGenericShift
                      01542 ;; ***  popGetLabel  key=41, label offset 166
0192   2???           01543         GOTO    _00307_DS_
                      01544 ;;; /home/sdcc-builder/build/sdcc-build/orig/sdcc/src/pic14/gen.c:5400:loadSignToC *{*
                      01545 ;; >>> /home/sdcc-builder/build/sdcc-build/orig/sdcc/src/pic14/gen.c:5403:loadSignToC
0193                  01546 _00306_DS_
0193   1003           01547         BCF     STATUS,0
                      01548 ;; >>> /home/sdcc-builder/build/sdcc-build/orig/sdcc/src/pic14/gen.c:5404:loadSignToC
0194   ???? ????      01549         BANKSEL r0x1009
0196   1B??           01550         BTFSC   r0x1009,7
                      01551 ;; >>> /home/sdcc-builder/build/sdcc-build/orig/sdcc/src/pic14/gen.c:5405:loadSignToC
0197   1403           01552         BSF     STATUS,0
                      01553 ;;; /home/sdcc-builder/build/sdcc-build/orig/sdcc/src/pic14/gen.c:5369:genMultiAsm *{*
                      01554 ;; ***  genMultiAsm  5370
                      01555 ;; >>> /home/sdcc-builder/build/sdcc-build/orig/sdcc/src/pic14/gen.c:5387:genMultiAsm
                      01556 ;;      1109 rIdx = r0x1065 
0198   0C??           01557         RRF     r0x1009,F
                      01558 ;; >>> /home/sdcc-builder/build/sdcc-build/orig/sdcc/src/pic14/gen.c:5387:genMultiAsm
                      01559 ;;      1109 rIdx = r0x1062 
0199   0C??           01560         RRF     r0x1006,F
                      01561 ;; >>> /home/sdcc-builder/build/sdcc-build/orig/sdcc/src/pic14/gen.c:5501:genGenericShift
019A   3E01           01562         ADDLW   0x01
                      01563 ;; >>> /home/sdcc-builder/build/sdcc-build/orig/sdcc/src/pic14/gen.c:5502:genGenericShift
019B   1C03           01564         BTFSS   STATUS,0
                      01565 ;; >>> /home/sdcc-builder/build/sdcc-build/orig/sdcc/src/pic14/gen.c:5503:genGenericShift
                      01566 ;; ***  popGetLabel  key=40, label offset 166
019C   2???           01567         GOTO    _00306_DS_
                      01568 ;;; /home/sdcc-builder/build/sdcc-build/orig/sdcc/src/pic14/gen.c:2316:resultRemat *{*
                      01569 ;;; /home/sdcc-builder/build/sdcc-build/orig/sdcc/src/pic14/gen.c:7120:genCast *{*
                      01570 ;; ***  genCast  7121
                      01571 ;;      694 register type nRegs=2
                      01572 ;;      694 register type nRegs=1
                      01573 ;;      line = 7129 result AOP_REG=r0x105D, size=1, left -=-, size=0, right AOP_REG=r0x1062, size=2
                      01574 ;; ***  genCast  7253
                      01575 ;; >>> /home/sdcc-builder/build/sdcc-build/orig/sdcc/src/pic14/gen.c:7277:genCast
                      01576 ;;      1109 rIdx = r0x1062 
gpasm-1.4.0 #1106 (Oct  6 2014) obj\Debug\gpi   5-11-2022  02:00:26         PAGE 31


LOC    OBJECT CODE    LINE  SOURCE TEXT
  VALUE

019D                  01577 _00307_DS_
019D   ???? ????      01578         BANKSEL r0x1006
019F   08??           01579         MOVF    r0x1006,W
                      01580 ;; >>> /home/sdcc-builder/build/sdcc-build/orig/sdcc/src/pic14/gen.c:7278:genCast
                      01581 ;;      1109 rIdx = r0x105D 
01A0   00??           01582         MOVWF   r0x1001
                      01583 ;;; /home/sdcc-builder/build/sdcc-build/orig/sdcc/src/pic14/gen.c:2316:resultRemat *{*
                      01584 ;;; /home/sdcc-builder/build/sdcc-build/orig/sdcc/src/pic14/gen.c:5418:genGenericShift *{*
                      01585 ;; ***  genGenericShift  5421
                      01586 ;;      694 register type nRegs=1
                      01587 ;;      694 register type nRegs=1
                      01588 ;; ***  mov2w  1381  offset=0
                      01589 ;; >>> /home/sdcc-builder/build/sdcc-build/orig/sdcc/src/pic14/gen.c:1384:mov2w
                      01590         .line   153; "gpio.c"   SET_REGISTER_BIT(PORTD,pin,!currentState) ;
01A1   3001           01591         MOVLW   0x01
                      01592 ;; >>> /home/sdcc-builder/build/sdcc-build/orig/sdcc/src/pic14/gen.c:1393:movwf
                      01593 ;;      1109 rIdx = r0x1062 
01A2   00??           01594         MOVWF   r0x1006
                      01595 ;; ***  addSign  861
                      01596 ;;; /home/sdcc-builder/build/sdcc-build/orig/sdcc/src/pic14/genarith.c:862:addSign *{*
                      01597 ;; ***  mov2w  1381  offset=0
                      01598 ;; >>> /home/sdcc-builder/build/sdcc-build/orig/sdcc/src/pic14/gen.c:1386:mov2w
                      01599 ;;      1109 rIdx = r0x105E 
01A3   08??           01600         MOVF    r0x1002,W
                      01601 ;; >>> /home/sdcc-builder/build/sdcc-build/orig/sdcc/src/pic14/gen.c:5492:genGenericShift
01A4   3C00           01602         SUBLW   0x00
                      01603 ;; >>> /home/sdcc-builder/build/sdcc-build/orig/sdcc/src/pic14/gen.c:5494:genGenericShift
01A5   1903           01604         BTFSC   STATUS,2
                      01605 ;; >>> /home/sdcc-builder/build/sdcc-build/orig/sdcc/src/pic14/gen.c:5495:genGenericShift
                      01606 ;; ***  popGetLabel  key=43, label offset 166
01A6   2???           01607         GOTO    _00309_DS_
                      01608 ;;; /home/sdcc-builder/build/sdcc-build/orig/sdcc/src/pic14/gen.c:5369:genMultiAsm *{*
                      01609 ;; ***  genMultiAsm  5370
                      01610 ;; >>> /home/sdcc-builder/build/sdcc-build/orig/sdcc/src/pic14/gen.c:5387:genMultiAsm
                      01611 ;;      1109 rIdx = r0x1062 
01A7                  01612 _00308_DS_
01A7   ???? ????      01613         BANKSEL r0x1006
01A9   0D??           01614         RLF     r0x1006,F
                      01615 ;; >>> /home/sdcc-builder/build/sdcc-build/orig/sdcc/src/pic14/gen.c:5501:genGenericShift
01AA   3E01           01616         ADDLW   0x01
                      01617 ;; >>> /home/sdcc-builder/build/sdcc-build/orig/sdcc/src/pic14/gen.c:5502:genGenericShift
01AB   1C03           01618         BTFSS   STATUS,0
                      01619 ;; >>> /home/sdcc-builder/build/sdcc-build/orig/sdcc/src/pic14/gen.c:5503:genGenericShift
                      01620 ;; ***  popGetLabel  key=42, label offset 166
01AC   2???           01621         GOTO    _00308_DS_
                      01622 ;;; /home/sdcc-builder/build/sdcc-build/orig/sdcc/src/pic14/gen.c:2316:resultRemat *{*
                      01623 ;;; /home/sdcc-builder/build/sdcc-build/orig/sdcc/src/pic14/gen.c:1609:genCpl *{*
                      01624 ;; ***  genCpl  1611
                      01625 ;;      694 register type nRegs=1
                      01626 ;;      694 register type nRegs=1
                      01627 ;; >>> /home/sdcc-builder/build/sdcc-build/orig/sdcc/src/pic14/gen.c:1631:genCpl
                      01628 ;;      1109 rIdx = r0x1062 
01AD                  01629 _00309_DS_
gpasm-1.4.0 #1106 (Oct  6 2014) obj\Debug\gpi   5-11-2022  02:00:26         PAGE 32


LOC    OBJECT CODE    LINE  SOURCE TEXT
  VALUE

01AD   ???? ????      01630         BANKSEL r0x1006
01AF   09??           01631         COMF    r0x1006,F
01B0   ???? ????      01632         BANKSEL _PORTD
01B2   08??           01633         MOVF    _PORTD,W
                      01634 ;; >>> /home/sdcc-builder/build/sdcc-build/orig/sdcc/src/pic14/gen.c:4138:genAnd
                      01635 ;;      1109 rIdx = r0x1062 
01B3   ???? ????      01636         BANKSEL r0x1006
01B5   05??           01637         ANDWF   r0x1006,F
                      01638 ;;; /home/sdcc-builder/build/sdcc-build/orig/sdcc/src/pic14/gen.c:2316:resultRemat *{*
                      01639 ;;; /home/sdcc-builder/build/sdcc-build/orig/sdcc/src/pic14/gen.c:1548:genNot *{*
                      01640 ;; ***  genNot  1550
                      01641 ;;      694 register type nRegs=1
                      01642 ;;      694 register type nRegs=1
                      01643 ;;      line = 1555 result AOP_REG=r0x105F, size=1, left AOP_REG=r0x105D, size=1, right -=-, size=0
                      01644 ;; ***  mov2w  1381  offset=0
                      01645 ;; >>> /home/sdcc-builder/build/sdcc-build/orig/sdcc/src/pic14/gen.c:1386:mov2w
                      01646 ;;      1109 rIdx = r0x105D 
01B6   08??           01647         MOVF    r0x1001,W
                      01648 ;; >>> /home/sdcc-builder/build/sdcc-build/orig/sdcc/src/pic14/gen.c:1582:genNot
01B7   3000           01649         MOVLW   0x00
                      01650 ;; >>> /home/sdcc-builder/build/sdcc-build/orig/sdcc/src/pic14/gen.c:1583:genNot
01B8   1903           01651         BTFSC   STATUS,2
                      01652 ;; >>> /home/sdcc-builder/build/sdcc-build/orig/sdcc/src/pic14/gen.c:1584:genNot
01B9   3001           01653         MOVLW   0x01
                      01654 ;; >>> /home/sdcc-builder/build/sdcc-build/orig/sdcc/src/pic14/gen.c:1393:movwf
                      01655 ;;      1109 rIdx = r0x105F 
01BA   00??           01656         MOVWF   r0x1003
01BB   00??           01657         MOVWF   r0x1004
                      01658 ;; ***  addSign  861
                      01659 ;;; /home/sdcc-builder/build/sdcc-build/orig/sdcc/src/pic14/genarith.c:862:addSign *{*
                      01660 ;; ***  mov2w  1381  offset=0
                      01661 ;; >>> /home/sdcc-builder/build/sdcc-build/orig/sdcc/src/pic14/gen.c:1386:mov2w
                      01662 ;;      1109 rIdx = r0x105E 
01BC   08??           01663         MOVF    r0x1002,W
                      01664 ;; >>> /home/sdcc-builder/build/sdcc-build/orig/sdcc/src/pic14/gen.c:5492:genGenericShift
01BD   3C00           01665         SUBLW   0x00
                      01666 ;; >>> /home/sdcc-builder/build/sdcc-build/orig/sdcc/src/pic14/gen.c:5494:genGenericShift
01BE   1903           01667         BTFSC   STATUS,2
                      01668 ;; >>> /home/sdcc-builder/build/sdcc-build/orig/sdcc/src/pic14/gen.c:5495:genGenericShift
                      01669 ;; ***  popGetLabel  key=45, label offset 166
01BF   2???           01670         GOTO    _00311_DS_
                      01671 ;;; /home/sdcc-builder/build/sdcc-build/orig/sdcc/src/pic14/gen.c:5369:genMultiAsm *{*
                      01672 ;; ***  genMultiAsm  5370
                      01673 ;; >>> /home/sdcc-builder/build/sdcc-build/orig/sdcc/src/pic14/gen.c:5387:genMultiAsm
                      01674 ;;      1109 rIdx = r0x1060 
01C0                  01675 _00310_DS_
01C0   ???? ????      01676         BANKSEL r0x1004
01C2   0D??           01677         RLF     r0x1004,F
                      01678 ;; >>> /home/sdcc-builder/build/sdcc-build/orig/sdcc/src/pic14/gen.c:5501:genGenericShift
01C3   3E01           01679         ADDLW   0x01
                      01680 ;; >>> /home/sdcc-builder/build/sdcc-build/orig/sdcc/src/pic14/gen.c:5502:genGenericShift
01C4   1C03           01681         BTFSS   STATUS,0
                      01682 ;; >>> /home/sdcc-builder/build/sdcc-build/orig/sdcc/src/pic14/gen.c:5503:genGenericShift
gpasm-1.4.0 #1106 (Oct  6 2014) obj\Debug\gpi   5-11-2022  02:00:26         PAGE 33


LOC    OBJECT CODE    LINE  SOURCE TEXT
  VALUE

                      01683 ;; ***  popGetLabel  key=44, label offset 166
01C5   2???           01684         GOTO    _00310_DS_
                      01685 ;;; /home/sdcc-builder/build/sdcc-build/orig/sdcc/src/pic14/gen.c:2316:resultRemat *{*
                      01686 ;;; /home/sdcc-builder/build/sdcc-build/orig/sdcc/src/pic14/gen.c:7120:genCast *{*
                      01687 ;; ***  genCast  7121
                      01688 ;;      694 register type nRegs=1
                      01689 ;;      694 register type nRegs=1
                      01690 ;;      line = 7129 result AOP_REG=r0x105F, size=1, left -=-, size=0, right AOP_REG=r0x1062, size=1
                      01691 ;; ***  genCast  7253
                      01692 ;; >>> /home/sdcc-builder/build/sdcc-build/orig/sdcc/src/pic14/gen.c:7277:genCast
                      01693 ;;      1109 rIdx = r0x1062 
01C6                  01694 _00311_DS_
01C6   ???? ????      01695         BANKSEL r0x1006
01C8   08??           01696         MOVF    r0x1006,W
                      01697 ;; >>> /home/sdcc-builder/build/sdcc-build/orig/sdcc/src/pic14/gen.c:7278:genCast
                      01698 ;;      1109 rIdx = r0x105F 
01C9   00??           01699         MOVWF   r0x1003
01CA   04??           01700         IORWF   r0x1004,W
01CB   ???? ????      01701         BANKSEL _PORTD
01CD   00??           01702         MOVWF   _PORTD
                      01703 ;;; /home/sdcc-builder/build/sdcc-build/orig/sdcc/src/pic14/gen.c:2316:resultRemat *{*
                      01704 ;;; /home/sdcc-builder/build/sdcc-build/orig/sdcc/src/pic14/gen.c:2778:genGoto *{*
                      01705 ;; >>> /home/sdcc-builder/build/sdcc-build/orig/sdcc/src/pic14/gen.c:2780:genGoto
                      01706 ;; ***  popGetLabel  key=7, label offset 166
                      01707         .line   154; "gpio.c"   break ;
01CE   2???           01708         GOTO    _00273_DS_
                      01709 ;;; /home/sdcc-builder/build/sdcc-build/orig/sdcc/src/pic14/gen.c:2316:resultRemat *{*
                      01710 ;;; /home/sdcc-builder/build/sdcc-build/orig/sdcc/src/pic14/gen.c:2760:genLabel *{*
                      01711 ;; ***  genLabel  2763
                      01712 ;;; /home/sdcc-builder/build/sdcc-build/orig/sdcc/src/pic14/gen.c:2316:resultRemat *{*
                      01713 ;;; /home/sdcc-builder/build/sdcc-build/orig/sdcc/src/pic14/gen.c:5418:genGenericShift *{*
                      01714 ;; ***  genGenericShift  5421
                      01715 ;;      694 register type nRegs=1
                      01716 ;;      694 register type nRegs=2
                      01717 ;; ***  mov2w  1381  offset=1
                      01718 ;; >>> /home/sdcc-builder/build/sdcc-build/orig/sdcc/src/pic14/gen.c:1384:mov2w
01CF                  01719 _00271_DS_
                      01720         .line   156; "gpio.c"   currentState = GET_BIT(PORTE,pin) ;
01CF   3000           01721         MOVLW   0x00
                      01722 ;; >>> /home/sdcc-builder/build/sdcc-build/orig/sdcc/src/pic14/gen.c:1393:movwf
                      01723 ;;      1109 rIdx = r0x1060 
01D0   ???? ????      01724         BANKSEL r0x1004
01D2   00??           01725         MOVWF   r0x1004
                      01726 ;; ***  mov2w  1381  offset=0
                      01727 ;; >>> /home/sdcc-builder/build/sdcc-build/orig/sdcc/src/pic14/gen.c:1384:mov2w
01D3   3001           01728         MOVLW   0x01
                      01729 ;; >>> /home/sdcc-builder/build/sdcc-build/orig/sdcc/src/pic14/gen.c:1393:movwf
                      01730 ;;      1109 rIdx = r0x105F 
01D4   00??           01731         MOVWF   r0x1003
                      01732 ;; ***  addSign  861
                      01733 ;;; /home/sdcc-builder/build/sdcc-build/orig/sdcc/src/pic14/genarith.c:862:addSign *{*
                      01734 ;; ***  mov2w  1381  offset=0
                      01735 ;; >>> /home/sdcc-builder/build/sdcc-build/orig/sdcc/src/pic14/gen.c:1386:mov2w
gpasm-1.4.0 #1106 (Oct  6 2014) obj\Debug\gpi   5-11-2022  02:00:26         PAGE 34


LOC    OBJECT CODE    LINE  SOURCE TEXT
  VALUE

                      01736 ;;      1109 rIdx = r0x105E 
01D5   08??           01737         MOVF    r0x1002,W
                      01738 ;; >>> /home/sdcc-builder/build/sdcc-build/orig/sdcc/src/pic14/gen.c:5492:genGenericShift
01D6   3C00           01739         SUBLW   0x00
                      01740 ;; >>> /home/sdcc-builder/build/sdcc-build/orig/sdcc/src/pic14/gen.c:5494:genGenericShift
01D7   1903           01741         BTFSC   STATUS,2
                      01742 ;; >>> /home/sdcc-builder/build/sdcc-build/orig/sdcc/src/pic14/gen.c:5495:genGenericShift
                      01743 ;; ***  popGetLabel  key=47, label offset 166
01D8   2???           01744         GOTO    _00313_DS_
                      01745 ;;; /home/sdcc-builder/build/sdcc-build/orig/sdcc/src/pic14/gen.c:5369:genMultiAsm *{*
                      01746 ;; ***  genMultiAsm  5370
                      01747 ;; >>> /home/sdcc-builder/build/sdcc-build/orig/sdcc/src/pic14/gen.c:5387:genMultiAsm
                      01748 ;;      1109 rIdx = r0x105F 
01D9                  01749 _00312_DS_
01D9   ???? ????      01750         BANKSEL r0x1003
01DB   0D??           01751         RLF     r0x1003,F
                      01752 ;; >>> /home/sdcc-builder/build/sdcc-build/orig/sdcc/src/pic14/gen.c:5387:genMultiAsm
                      01753 ;;      1109 rIdx = r0x1060 
01DC   0D??           01754         RLF     r0x1004,F
                      01755 ;; >>> /home/sdcc-builder/build/sdcc-build/orig/sdcc/src/pic14/gen.c:5501:genGenericShift
01DD   3E01           01756         ADDLW   0x01
                      01757 ;; >>> /home/sdcc-builder/build/sdcc-build/orig/sdcc/src/pic14/gen.c:5502:genGenericShift
01DE   1C03           01758         BTFSS   STATUS,0
                      01759 ;; >>> /home/sdcc-builder/build/sdcc-build/orig/sdcc/src/pic14/gen.c:5503:genGenericShift
                      01760 ;; ***  popGetLabel  key=46, label offset 166
01DF   2???           01761         GOTO    _00312_DS_
                      01762 ;;; /home/sdcc-builder/build/sdcc-build/orig/sdcc/src/pic14/gen.c:2316:resultRemat *{*
                      01763 ;;; /home/sdcc-builder/build/sdcc-build/orig/sdcc/src/pic14/gen.c:7120:genCast *{*
                      01764 ;; ***  genCast  7121
                      01765 ;; ***  aopForSym 315
                      01766 ;;      327 sym->rname = _PORTE, size = 1
                      01767 ;;      694 register type nRegs=2
                      01768 ;;      line = 7129 result AOP_REG=r0x1062, size=2, left -=-, size=0, right AOP_DIR=_PORTE, size=1
                      01769 ;; >>> /home/sdcc-builder/build/sdcc-build/orig/sdcc/src/pic14/gen.c:7298:genCast
                      01770 ;;      1009
                      01771 ;;      1028  _PORTE   offset=0
01E0                  01772 _00313_DS_
01E0   ???? ????      01773         BANKSEL _PORTE
01E2   08??           01774         MOVF    _PORTE,W
                      01775 ;; >>> /home/sdcc-builder/build/sdcc-build/orig/sdcc/src/pic14/gen.c:7299:genCast
                      01776 ;;      1109 rIdx = r0x1062 
01E3   ???? ????      01777         BANKSEL r0x1006
01E5   00??           01778         MOVWF   r0x1006
                      01779 ;; ***  addSign  861
                      01780 ;;; /home/sdcc-builder/build/sdcc-build/orig/sdcc/src/pic14/genarith.c:862:addSign *{*
                      01781 ;; >>> /home/sdcc-builder/build/sdcc-build/orig/sdcc/src/pic14/genarith.c:881:addSign
                      01782 ;;      1109 rIdx = r0x1066 
01E6   01??           01783         CLRF    r0x100A
                      01784 ;;; /home/sdcc-builder/build/sdcc-build/orig/sdcc/src/pic14/gen.c:2316:resultRemat *{*
                      01785 ;;; /home/sdcc-builder/build/sdcc-build/orig/sdcc/src/pic14/gen.c:3919:genAnd *{*
                      01786 ;; ***  genAnd  3920
                      01787 ;;      694 register type nRegs=2
                      01788 ;;      694 register type nRegs=2
gpasm-1.4.0 #1106 (Oct  6 2014) obj\Debug\gpi   5-11-2022  02:00:26         PAGE 35


LOC    OBJECT CODE    LINE  SOURCE TEXT
  VALUE

                      01789 ;;      694 register type nRegs=2
                      01790 ;;      line = 3955 result AOP_REG=r0x105F, size=2, left AOP_REG=r0x105F, size=2, right AOP_REG=r0x1062,
                             size=2
                      01791 ;; >>> /home/sdcc-builder/build/sdcc-build/orig/sdcc/src/pic14/gen.c:4137:genAnd
                      01792 ;;      1109 rIdx = r0x1062 
01E7   08??           01793         MOVF    r0x1006,W
                      01794 ;; >>> /home/sdcc-builder/build/sdcc-build/orig/sdcc/src/pic14/gen.c:4138:genAnd
                      01795 ;;      1109 rIdx = r0x105F 
01E8   05??           01796         ANDWF   r0x1003,F
                      01797 ;; >>> /home/sdcc-builder/build/sdcc-build/orig/sdcc/src/pic14/gen.c:4137:genAnd
                      01798 ;;      1109 rIdx = r0x1066 
01E9   3000           01799         MOVLW   0x00
                      01800 ;; >>> /home/sdcc-builder/build/sdcc-build/orig/sdcc/src/pic14/gen.c:4138:genAnd
                      01801 ;;      1109 rIdx = r0x1060 
01EA   05??           01802         ANDWF   r0x1004,F
                      01803 ;;; /home/sdcc-builder/build/sdcc-build/orig/sdcc/src/pic14/gen.c:2316:resultRemat *{*
                      01804 ;;; /home/sdcc-builder/build/sdcc-build/orig/sdcc/src/pic14/gen.c:5418:genGenericShift *{*
                      01805 ;; ***  genGenericShift  5421
                      01806 ;;      694 register type nRegs=1
                      01807 ;;      694 register type nRegs=2
                      01808 ;;      694 register type nRegs=2
                      01809 ;; ***  mov2w  1381  offset=1
                      01810 ;; >>> /home/sdcc-builder/build/sdcc-build/orig/sdcc/src/pic14/gen.c:1386:mov2w
                      01811 ;;      1109 rIdx = r0x1060 
01EB   08??           01812         MOVF    r0x1004,W
                      01813 ;; >>> /home/sdcc-builder/build/sdcc-build/orig/sdcc/src/pic14/gen.c:1393:movwf
                      01814 ;;      1109 rIdx = r0x1066 
01EC   00??           01815         MOVWF   r0x100A
                      01816 ;; ***  mov2w  1381  offset=0
                      01817 ;; >>> /home/sdcc-builder/build/sdcc-build/orig/sdcc/src/pic14/gen.c:1386:mov2w
                      01818 ;;      1109 rIdx = r0x105F 
01ED   08??           01819         MOVF    r0x1003,W
                      01820 ;; >>> /home/sdcc-builder/build/sdcc-build/orig/sdcc/src/pic14/gen.c:1393:movwf
                      01821 ;;      1109 rIdx = r0x1062 
01EE   00??           01822         MOVWF   r0x1006
                      01823 ;; ***  addSign  861
                      01824 ;;; /home/sdcc-builder/build/sdcc-build/orig/sdcc/src/pic14/genarith.c:862:addSign *{*
                      01825 ;; ***  mov2w  1381  offset=0
                      01826 ;; >>> /home/sdcc-builder/build/sdcc-build/orig/sdcc/src/pic14/gen.c:1386:mov2w
                      01827 ;;      1109 rIdx = r0x105E 
01EF   08??           01828         MOVF    r0x1002,W
                      01829 ;; >>> /home/sdcc-builder/build/sdcc-build/orig/sdcc/src/pic14/gen.c:5492:genGenericShift
01F0   3C00           01830         SUBLW   0x00
                      01831 ;; >>> /home/sdcc-builder/build/sdcc-build/orig/sdcc/src/pic14/gen.c:5494:genGenericShift
01F1   1903           01832         BTFSC   STATUS,2
                      01833 ;; >>> /home/sdcc-builder/build/sdcc-build/orig/sdcc/src/pic14/gen.c:5495:genGenericShift
                      01834 ;; ***  popGetLabel  key=49, label offset 166
01F2   2???           01835         GOTO    _00315_DS_
                      01836 ;;; /home/sdcc-builder/build/sdcc-build/orig/sdcc/src/pic14/gen.c:5400:loadSignToC *{*
                      01837 ;; >>> /home/sdcc-builder/build/sdcc-build/orig/sdcc/src/pic14/gen.c:5403:loadSignToC
01F3                  01838 _00314_DS_
01F3   1003           01839         BCF     STATUS,0
                      01840 ;; >>> /home/sdcc-builder/build/sdcc-build/orig/sdcc/src/pic14/gen.c:5404:loadSignToC
gpasm-1.4.0 #1106 (Oct  6 2014) obj\Debug\gpi   5-11-2022  02:00:26         PAGE 36


LOC    OBJECT CODE    LINE  SOURCE TEXT
  VALUE

01F4   ???? ????      01841         BANKSEL r0x100A
01F6   1B??           01842         BTFSC   r0x100A,7
                      01843 ;; >>> /home/sdcc-builder/build/sdcc-build/orig/sdcc/src/pic14/gen.c:5405:loadSignToC
01F7   1403           01844         BSF     STATUS,0
                      01845 ;;; /home/sdcc-builder/build/sdcc-build/orig/sdcc/src/pic14/gen.c:5369:genMultiAsm *{*
                      01846 ;; ***  genMultiAsm  5370
                      01847 ;; >>> /home/sdcc-builder/build/sdcc-build/orig/sdcc/src/pic14/gen.c:5387:genMultiAsm
                      01848 ;;      1109 rIdx = r0x1066 
01F8   0C??           01849         RRF     r0x100A,F
                      01850 ;; >>> /home/sdcc-builder/build/sdcc-build/orig/sdcc/src/pic14/gen.c:5387:genMultiAsm
                      01851 ;;      1109 rIdx = r0x1062 
01F9   0C??           01852         RRF     r0x1006,F
                      01853 ;; >>> /home/sdcc-builder/build/sdcc-build/orig/sdcc/src/pic14/gen.c:5501:genGenericShift
01FA   3E01           01854         ADDLW   0x01
                      01855 ;; >>> /home/sdcc-builder/build/sdcc-build/orig/sdcc/src/pic14/gen.c:5502:genGenericShift
01FB   1C03           01856         BTFSS   STATUS,0
                      01857 ;; >>> /home/sdcc-builder/build/sdcc-build/orig/sdcc/src/pic14/gen.c:5503:genGenericShift
                      01858 ;; ***  popGetLabel  key=48, label offset 166
01FC   2???           01859         GOTO    _00314_DS_
                      01860 ;;; /home/sdcc-builder/build/sdcc-build/orig/sdcc/src/pic14/gen.c:2316:resultRemat *{*
                      01861 ;;; /home/sdcc-builder/build/sdcc-build/orig/sdcc/src/pic14/gen.c:7120:genCast *{*
                      01862 ;; ***  genCast  7121
                      01863 ;;      694 register type nRegs=2
                      01864 ;;      694 register type nRegs=1
                      01865 ;;      line = 7129 result AOP_REG=r0x105D, size=1, left -=-, size=0, right AOP_REG=r0x1062, size=2
                      01866 ;; ***  genCast  7253
                      01867 ;; >>> /home/sdcc-builder/build/sdcc-build/orig/sdcc/src/pic14/gen.c:7277:genCast
                      01868 ;;      1109 rIdx = r0x1062 
01FD                  01869 _00315_DS_
01FD   ???? ????      01870         BANKSEL r0x1006
01FF   08??           01871         MOVF    r0x1006,W
                      01872 ;; >>> /home/sdcc-builder/build/sdcc-build/orig/sdcc/src/pic14/gen.c:7278:genCast
                      01873 ;;      1109 rIdx = r0x105D 
0200   00??           01874         MOVWF   r0x1001
                      01875 ;;; /home/sdcc-builder/build/sdcc-build/orig/sdcc/src/pic14/gen.c:2316:resultRemat *{*
                      01876 ;;; /home/sdcc-builder/build/sdcc-build/orig/sdcc/src/pic14/gen.c:5418:genGenericShift *{*
                      01877 ;; ***  genGenericShift  5421
                      01878 ;;      694 register type nRegs=1
                      01879 ;;      694 register type nRegs=1
                      01880 ;; ***  mov2w  1381  offset=0
                      01881 ;; >>> /home/sdcc-builder/build/sdcc-build/orig/sdcc/src/pic14/gen.c:1384:mov2w
                      01882         .line   157; "gpio.c"   SET_REGISTER_BIT(PORTE,pin,!currentState) ;
0201   3001           01883         MOVLW   0x01
                      01884 ;; >>> /home/sdcc-builder/build/sdcc-build/orig/sdcc/src/pic14/gen.c:1393:movwf
                      01885 ;;      1109 rIdx = r0x1062 
0202   00??           01886         MOVWF   r0x1006
                      01887 ;; ***  addSign  861
                      01888 ;;; /home/sdcc-builder/build/sdcc-build/orig/sdcc/src/pic14/genarith.c:862:addSign *{*
                      01889 ;; ***  mov2w  1381  offset=0
                      01890 ;; >>> /home/sdcc-builder/build/sdcc-build/orig/sdcc/src/pic14/gen.c:1386:mov2w
                      01891 ;;      1109 rIdx = r0x105E 
0203   08??           01892         MOVF    r0x1002,W
                      01893 ;; >>> /home/sdcc-builder/build/sdcc-build/orig/sdcc/src/pic14/gen.c:5492:genGenericShift
gpasm-1.4.0 #1106 (Oct  6 2014) obj\Debug\gpi   5-11-2022  02:00:26         PAGE 37


LOC    OBJECT CODE    LINE  SOURCE TEXT
  VALUE

0204   3C00           01894         SUBLW   0x00
                      01895 ;; >>> /home/sdcc-builder/build/sdcc-build/orig/sdcc/src/pic14/gen.c:5494:genGenericShift
0205   1903           01896         BTFSC   STATUS,2
                      01897 ;; >>> /home/sdcc-builder/build/sdcc-build/orig/sdcc/src/pic14/gen.c:5495:genGenericShift
                      01898 ;; ***  popGetLabel  key=51, label offset 166
0206   2???           01899         GOTO    _00317_DS_
                      01900 ;;; /home/sdcc-builder/build/sdcc-build/orig/sdcc/src/pic14/gen.c:5369:genMultiAsm *{*
                      01901 ;; ***  genMultiAsm  5370
                      01902 ;; >>> /home/sdcc-builder/build/sdcc-build/orig/sdcc/src/pic14/gen.c:5387:genMultiAsm
                      01903 ;;      1109 rIdx = r0x1062 
0207                  01904 _00316_DS_
0207   ???? ????      01905         BANKSEL r0x1006
0209   0D??           01906         RLF     r0x1006,F
                      01907 ;; >>> /home/sdcc-builder/build/sdcc-build/orig/sdcc/src/pic14/gen.c:5501:genGenericShift
020A   3E01           01908         ADDLW   0x01
                      01909 ;; >>> /home/sdcc-builder/build/sdcc-build/orig/sdcc/src/pic14/gen.c:5502:genGenericShift
020B   1C03           01910         BTFSS   STATUS,0
                      01911 ;; >>> /home/sdcc-builder/build/sdcc-build/orig/sdcc/src/pic14/gen.c:5503:genGenericShift
                      01912 ;; ***  popGetLabel  key=50, label offset 166
020C   2???           01913         GOTO    _00316_DS_
                      01914 ;;; /home/sdcc-builder/build/sdcc-build/orig/sdcc/src/pic14/gen.c:2316:resultRemat *{*
                      01915 ;;; /home/sdcc-builder/build/sdcc-build/orig/sdcc/src/pic14/gen.c:1609:genCpl *{*
                      01916 ;; ***  genCpl  1611
                      01917 ;;      694 register type nRegs=1
                      01918 ;;      694 register type nRegs=1
                      01919 ;; >>> /home/sdcc-builder/build/sdcc-build/orig/sdcc/src/pic14/gen.c:1631:genCpl
                      01920 ;;      1109 rIdx = r0x1062 
020D                  01921 _00317_DS_
020D   ???? ????      01922         BANKSEL r0x1006
020F   09??           01923         COMF    r0x1006,F
0210   ???? ????      01924         BANKSEL _PORTE
0212   08??           01925         MOVF    _PORTE,W
                      01926 ;; >>> /home/sdcc-builder/build/sdcc-build/orig/sdcc/src/pic14/gen.c:4138:genAnd
                      01927 ;;      1109 rIdx = r0x1062 
0213   ???? ????      01928         BANKSEL r0x1006
0215   05??           01929         ANDWF   r0x1006,F
                      01930 ;;; /home/sdcc-builder/build/sdcc-build/orig/sdcc/src/pic14/gen.c:2316:resultRemat *{*
                      01931 ;;; /home/sdcc-builder/build/sdcc-build/orig/sdcc/src/pic14/gen.c:1548:genNot *{*
                      01932 ;; ***  genNot  1550
                      01933 ;;      694 register type nRegs=1
                      01934 ;;      694 register type nRegs=1
                      01935 ;;      line = 1555 result AOP_REG=r0x105F, size=1, left AOP_REG=r0x105D, size=1, right -=-, size=0
                      01936 ;; ***  mov2w  1381  offset=0
                      01937 ;; >>> /home/sdcc-builder/build/sdcc-build/orig/sdcc/src/pic14/gen.c:1386:mov2w
                      01938 ;;      1109 rIdx = r0x105D 
0216   08??           01939         MOVF    r0x1001,W
                      01940 ;; >>> /home/sdcc-builder/build/sdcc-build/orig/sdcc/src/pic14/gen.c:1582:genNot
0217   3000           01941         MOVLW   0x00
                      01942 ;; >>> /home/sdcc-builder/build/sdcc-build/orig/sdcc/src/pic14/gen.c:1583:genNot
0218   1903           01943         BTFSC   STATUS,2
                      01944 ;; >>> /home/sdcc-builder/build/sdcc-build/orig/sdcc/src/pic14/gen.c:1584:genNot
0219   3001           01945         MOVLW   0x01
                      01946 ;; >>> /home/sdcc-builder/build/sdcc-build/orig/sdcc/src/pic14/gen.c:1393:movwf
gpasm-1.4.0 #1106 (Oct  6 2014) obj\Debug\gpi   5-11-2022  02:00:26         PAGE 38


LOC    OBJECT CODE    LINE  SOURCE TEXT
  VALUE

                      01947 ;;      1109 rIdx = r0x105F 
021A   00??           01948         MOVWF   r0x1003
021B   00??           01949         MOVWF   r0x1001
                      01950 ;; ***  addSign  861
                      01951 ;;; /home/sdcc-builder/build/sdcc-build/orig/sdcc/src/pic14/genarith.c:862:addSign *{*
                      01952 ;; ***  mov2w  1381  offset=0
                      01953 ;; >>> /home/sdcc-builder/build/sdcc-build/orig/sdcc/src/pic14/gen.c:1386:mov2w
                      01954 ;;      1109 rIdx = r0x105E 
021C   08??           01955         MOVF    r0x1002,W
                      01956 ;; >>> /home/sdcc-builder/build/sdcc-build/orig/sdcc/src/pic14/gen.c:5492:genGenericShift
021D   3C00           01957         SUBLW   0x00
                      01958 ;; >>> /home/sdcc-builder/build/sdcc-build/orig/sdcc/src/pic14/gen.c:5494:genGenericShift
021E   1903           01959         BTFSC   STATUS,2
                      01960 ;; >>> /home/sdcc-builder/build/sdcc-build/orig/sdcc/src/pic14/gen.c:5495:genGenericShift
                      01961 ;; ***  popGetLabel  key=53, label offset 166
021F   2???           01962         GOTO    _00319_DS_
                      01963 ;;; /home/sdcc-builder/build/sdcc-build/orig/sdcc/src/pic14/gen.c:5369:genMultiAsm *{*
                      01964 ;; ***  genMultiAsm  5370
                      01965 ;; >>> /home/sdcc-builder/build/sdcc-build/orig/sdcc/src/pic14/gen.c:5387:genMultiAsm
                      01966 ;;      1109 rIdx = r0x105D 
0220                  01967 _00318_DS_
0220   ???? ????      01968         BANKSEL r0x1001
0222   0D??           01969         RLF     r0x1001,F
                      01970 ;; >>> /home/sdcc-builder/build/sdcc-build/orig/sdcc/src/pic14/gen.c:5501:genGenericShift
0223   3E01           01971         ADDLW   0x01
                      01972 ;; >>> /home/sdcc-builder/build/sdcc-build/orig/sdcc/src/pic14/gen.c:5502:genGenericShift
0224   1C03           01973         BTFSS   STATUS,0
                      01974 ;; >>> /home/sdcc-builder/build/sdcc-build/orig/sdcc/src/pic14/gen.c:5503:genGenericShift
                      01975 ;; ***  popGetLabel  key=52, label offset 166
0225   2???           01976         GOTO    _00318_DS_
                      01977 ;;; /home/sdcc-builder/build/sdcc-build/orig/sdcc/src/pic14/gen.c:2316:resultRemat *{*
                      01978 ;;; /home/sdcc-builder/build/sdcc-build/orig/sdcc/src/pic14/gen.c:7120:genCast *{*
                      01979 ;; ***  genCast  7121
                      01980 ;;      694 register type nRegs=1
                      01981 ;;      694 register type nRegs=1
                      01982 ;;      line = 7129 result AOP_REG=r0x105E, size=1, left -=-, size=0, right AOP_REG=r0x1062, size=1
                      01983 ;; ***  genCast  7253
                      01984 ;; >>> /home/sdcc-builder/build/sdcc-build/orig/sdcc/src/pic14/gen.c:7277:genCast
                      01985 ;;      1109 rIdx = r0x1062 
0226                  01986 _00319_DS_
0226   ???? ????      01987         BANKSEL r0x1006
0228   08??           01988         MOVF    r0x1006,W
                      01989 ;; >>> /home/sdcc-builder/build/sdcc-build/orig/sdcc/src/pic14/gen.c:7278:genCast
                      01990 ;;      1109 rIdx = r0x105E 
0229   00??           01991         MOVWF   r0x1002
022A   04??           01992         IORWF   r0x1001,W
022B   ???? ????      01993         BANKSEL _PORTE
022D   00??           01994         MOVWF   _PORTE
                      01995 ;;; /home/sdcc-builder/build/sdcc-build/orig/sdcc/src/pic14/gen.c:2316:resultRemat *{*
                      01996 ;;; /home/sdcc-builder/build/sdcc-build/orig/sdcc/src/pic14/gen.c:2760:genLabel *{*
                      01997 ;; ***  genLabel  2763
                      01998 ;;; /home/sdcc-builder/build/sdcc-build/orig/sdcc/src/pic14/gen.c:2316:resultRemat *{*
                      01999 ;;; /home/sdcc-builder/build/sdcc-build/orig/sdcc/src/pic14/gen.c:2528:genEndFunction *{*
gpasm-1.4.0 #1106 (Oct  6 2014) obj\Debug\gpi   5-11-2022  02:00:26         PAGE 39


LOC    OBJECT CODE    LINE  SOURCE TEXT
  VALUE

                      02000 ;; ***  genEndFunction  2530
022E                  02001 _00273_DS_
                      02002         .line   159; "gpio.c"   }
022E   0008           02003         RETURN  
                      02004 ; exit point of _GPIO_BitToggle
                      02005 ;;; /home/sdcc-builder/build/sdcc-build/orig/sdcc/src/pic14/gen.c:7426:genpic14Code *{*
                      02006 
                      02007 ;***
                      02008 ;  pBlock Stats: dbName = C
                      02009 ;***
                      02010 ;entry:  _GPIO_GetPortState     ;Function start
                      02011 ; 2 exit points
                      02012 ;has an exit
                      02013 ;2 compiler assigned registers:
                      02014 ;   r0x100B
                      02015 ;   r0x100C
                      02016 ;; Starting pCode block
                      02017 ;;; /home/sdcc-builder/build/sdcc-build/orig/sdcc/src/pic14/gen.c:2316:resultRemat *{*
                      02018 ;;; /home/sdcc-builder/build/sdcc-build/orig/sdcc/src/pic14/gen.c:2760:genLabel *{*
                      02019 ;; ***  genLabel  2763
                      02020 ;;; /home/sdcc-builder/build/sdcc-build/orig/sdcc/src/pic14/gen.c:2316:resultRemat *{*
                      02021 ;;; /home/sdcc-builder/build/sdcc-build/orig/sdcc/src/pic14/gen.c:2340:genFunction *{*
                      02022 ;; ***  genFunction  2342 curr label offset=112previous max_key=33 
022F                  02023 _GPIO_GetPortState      ;Function start
                      02024 ; 2 exit points
                      02025 ;;; /home/sdcc-builder/build/sdcc-build/orig/sdcc/src/pic14/gen.c:2316:resultRemat *{*
                      02026 ;;; /home/sdcc-builder/build/sdcc-build/orig/sdcc/src/pic14/gen.c:7358:genReceive *{*
                      02027 ;; ***  genReceive  7359
                      02028 ;;      694 register type nRegs=1
                      02029 ;;; /home/sdcc-builder/build/sdcc-build/orig/sdcc/src/pic14/gen.c:1907:assignResultValue *{*
                      02030 ;; ***  assignResultValue  1909
                      02031 ;;      line = 1911 result -=-, size=0, left AOP_REG=r0x105B, size=1, right -=-, size=0
                      02032 ;; >>> /home/sdcc-builder/build/sdcc-build/orig/sdcc/src/pic14/gen.c:1393:movwf
                      02033 ;;      1109 rIdx = r0x105B 
                      02034         .line   111; "gpio.c"   unsigned char GPIO_GetPortState(tPORT port )
022F   ???? ????      02035         BANKSEL r0x100B
0231   00??           02036         MOVWF   r0x100B
                      02037 ;;; /home/sdcc-builder/build/sdcc-build/orig/sdcc/src/pic14/gen.c:2316:resultRemat *{*
                      02038 ;;; /home/sdcc-builder/build/sdcc-build/orig/sdcc/src/pic14/gen.c:6927:genAssign *{*
                      02039 ;; ***  genAssign  6928
                      02040 ;;      694 register type nRegs=1
                      02041 ;;      line = 6937 result AOP_REG=r0x105C, size=1, left -=-, size=0, right AOP_LIT=0x00, size=1
                      02042 ;; ***  genAssign  7023
                      02043 ;; >>> /home/sdcc-builder/build/sdcc-build/orig/sdcc/src/pic14/gen.c:7035:genAssign
                      02044 ;;      1109 rIdx = r0x105C 
                      02045         .line   113; "gpio.c"   unsigned char ret = 0 ;
0232   01??           02046         CLRF    r0x100C
                      02047 ;;; /home/sdcc-builder/build/sdcc-build/orig/sdcc/src/pic14/gen.c:2316:resultRemat *{*
                      02048 ;;; /home/sdcc-builder/build/sdcc-build/orig/sdcc/src/pic14/gen.c:3547:genCmpGt *{*
                      02049 ;; ***  genCmpGt  3548
                      02050 ;;      694 register type nRegs=1
                      02051 ;;; /home/sdcc-builder/build/sdcc-build/orig/sdcc/src/pic14/gen.c:3294:genCmp *{*
                      02052 ;;swapping arguments (AOP_TYPEs 1/2)
gpasm-1.4.0 #1106 (Oct  6 2014) obj\Debug\gpi   5-11-2022  02:00:26         PAGE 40


LOC    OBJECT CODE    LINE  SOURCE TEXT
  VALUE

                      02053 ;;unsigned compare: left >= lit(0x5=5), size=1
                      02054 ;; >>> /home/sdcc-builder/build/sdcc-build/orig/sdcc/src/pic14/gen.c:3265:pic14_mov2w_regOrLit
                      02055         .line   114; "gpio.c"   switch(port)
0233   3005           02056         MOVLW   0x05
                      02057 ;; >>> /home/sdcc-builder/build/sdcc-build/orig/sdcc/src/pic14/gen.c:3432:genCmp
                      02058 ;;      1109 rIdx = r0x105B 
0234   02??           02059         SUBWF   r0x100B,W
                      02060 ;;; /home/sdcc-builder/build/sdcc-build/orig/sdcc/src/pic14/gen.c:3237:genSkipc *{*
                      02061 ;; >>> /home/sdcc-builder/build/sdcc-build/orig/sdcc/src/pic14/gen.c:3242:genSkipc
0235   1803           02062         BTFSC   STATUS,0
                      02063 ;; >>> /home/sdcc-builder/build/sdcc-build/orig/sdcc/src/pic14/gen.c:3246:genSkipc
                      02064 ;; ***  popGetLabel  key=6, label offset 149
0236   2???           02065         GOTO    _00255_DS_
                      02066 ;;genSkipc:3247: created from rifx:027A5DF4
                      02067 ;;; /home/sdcc-builder/build/sdcc-build/orig/sdcc/src/pic14/gen.c:2316:resultRemat *{*
                      02068 ;;; /home/sdcc-builder/build/sdcc-build/orig/sdcc/src/pic14/gen.c:2316:resultRemat *{*
                      02069 ;;; /home/sdcc-builder/build/sdcc-build/orig/sdcc/src/pic14/gen.c:7071:genJumpTab *{*
                      02070 ;; ***  genJumpTab  7072
                      02071 ;;      694 register type nRegs=1
                      02072 ;; >>> /home/sdcc-builder/build/sdcc-build/orig/sdcc/src/pic14/gen.c:7087:genJumpTab
                      02073 ;; ***  popGetLabel  key=13, label offset 149
0237   30??           02074         MOVLW   HIGH(_00262_DS_)
                      02075 ;; >>> /home/sdcc-builder/build/sdcc-build/orig/sdcc/src/pic14/gen.c:7088:genJumpTab
0238   1283 1303      02076         BANKSEL PCLATH
023A   008A           02077         MOVWF   PCLATH
                      02078 ;; >>> /home/sdcc-builder/build/sdcc-build/orig/sdcc/src/pic14/gen.c:7089:genJumpTab
                      02079 ;; ***  popGetLabel  key=13, label offset 149
023B   30??           02080         MOVLW   _00262_DS_
                      02081 ;; >>> /home/sdcc-builder/build/sdcc-build/orig/sdcc/src/pic14/gen.c:7090:genJumpTab
                      02082 ;;      1109 rIdx = r0x105B 
023C   ???? ????      02083         BANKSEL r0x100B
023E   07??           02084         ADDWF   r0x100B,W
                      02085 ;; >>> /home/sdcc-builder/build/sdcc-build/orig/sdcc/src/pic14/gen.c:7091:genJumpTab
023F   1C03           02086         BTFSS   STATUS,0
0240   2???           02087         GOTO    _00003_DS_
                      02088 ;; >>> /home/sdcc-builder/build/sdcc-build/orig/sdcc/src/pic14/gen.c:7092:genJumpTab
0241   1283 1303      02089         BANKSEL PCLATH
0243   0A8A           02090         INCF    PCLATH,F
                      02091 ;; >>> /home/sdcc-builder/build/sdcc-build/orig/sdcc/src/pic14/gen.c:7093:genJumpTab
0244                  02092 _00003_DS_
0244   0082           02093         MOVWF   PCL
                      02094 ;; >>> /home/sdcc-builder/build/sdcc-build/orig/sdcc/src/pic14/gen.c:7102:genJumpTab
                      02095 ;; ***  popGetLabel  key=1, label offset 149
0245                  02096 _00262_DS_
0245   2???           02097         GOTO    _00250_DS_
                      02098 ;; >>> /home/sdcc-builder/build/sdcc-build/orig/sdcc/src/pic14/gen.c:7102:genJumpTab
                      02099 ;; ***  popGetLabel  key=2, label offset 149
0246   2???           02100         GOTO    _00251_DS_
                      02101 ;; >>> /home/sdcc-builder/build/sdcc-build/orig/sdcc/src/pic14/gen.c:7102:genJumpTab
                      02102 ;; ***  popGetLabel  key=3, label offset 149
0247   2???           02103         GOTO    _00252_DS_
                      02104 ;; >>> /home/sdcc-builder/build/sdcc-build/orig/sdcc/src/pic14/gen.c:7102:genJumpTab
                      02105 ;; ***  popGetLabel  key=4, label offset 149
gpasm-1.4.0 #1106 (Oct  6 2014) obj\Debug\gpi   5-11-2022  02:00:26         PAGE 41


LOC    OBJECT CODE    LINE  SOURCE TEXT
  VALUE

0248   2???           02106         GOTO    _00253_DS_
                      02107 ;; >>> /home/sdcc-builder/build/sdcc-build/orig/sdcc/src/pic14/gen.c:7102:genJumpTab
                      02108 ;; ***  popGetLabel  key=5, label offset 149
0249   2???           02109         GOTO    _00254_DS_
                      02110 ;;; /home/sdcc-builder/build/sdcc-build/orig/sdcc/src/pic14/gen.c:2316:resultRemat *{*
                      02111 ;;; /home/sdcc-builder/build/sdcc-build/orig/sdcc/src/pic14/gen.c:2760:genLabel *{*
                      02112 ;; ***  genLabel  2763
                      02113 ;;; /home/sdcc-builder/build/sdcc-build/orig/sdcc/src/pic14/gen.c:2316:resultRemat *{*
                      02114 ;;; /home/sdcc-builder/build/sdcc-build/orig/sdcc/src/pic14/gen.c:6927:genAssign *{*
                      02115 ;; ***  genAssign  6928
                      02116 ;; ***  aopForSym 315
                      02117 ;;      327 sym->rname = _PORTA, size = 1
                      02118 ;;      694 register type nRegs=1
                      02119 ;;      line = 6937 result AOP_REG=r0x105C, size=1, left -=-, size=0, right AOP_DIR=_PORTA, size=1
                      02120 ;; ***  genAssign  7007
                      02121 ;; WARNING      genAssign  7016 ignoring register storage
                      02122 ;; ***  genAssign  7023
                      02123 ;;; /home/sdcc-builder/build/sdcc-build/orig/sdcc/src/pic14/gen.c:1343:mov2w_op *{*
                      02124 ;; ***  mov2w  1381  offset=0
                      02125 ;; >>> /home/sdcc-builder/build/sdcc-build/orig/sdcc/src/pic14/gen.c:1386:mov2w
                      02126 ;;      1009
                      02127 ;;      1028  _PORTA   offset=0
024A                  02128 _00250_DS_
                      02129         .line   117; "gpio.c"   ret = PORTA ;
024A   ???? ????      02130         BANKSEL _PORTA
024C   08??           02131         MOVF    _PORTA,W
                      02132 ;; >>> /home/sdcc-builder/build/sdcc-build/orig/sdcc/src/pic14/gen.c:7050:genAssign
                      02133 ;;      1109 rIdx = r0x105C 
024D   ???? ????      02134         BANKSEL r0x100C
024F   00??           02135         MOVWF   r0x100C
                      02136 ;;; /home/sdcc-builder/build/sdcc-build/orig/sdcc/src/pic14/gen.c:2316:resultRemat *{*
                      02137 ;;; /home/sdcc-builder/build/sdcc-build/orig/sdcc/src/pic14/gen.c:2778:genGoto *{*
                      02138 ;; >>> /home/sdcc-builder/build/sdcc-build/orig/sdcc/src/pic14/gen.c:2780:genGoto
                      02139 ;; ***  popGetLabel  key=6, label offset 149
                      02140         .line   118; "gpio.c"   break ;
0250   2???           02141         GOTO    _00255_DS_
                      02142 ;;; /home/sdcc-builder/build/sdcc-build/orig/sdcc/src/pic14/gen.c:2316:resultRemat *{*
                      02143 ;;; /home/sdcc-builder/build/sdcc-build/orig/sdcc/src/pic14/gen.c:2760:genLabel *{*
                      02144 ;; ***  genLabel  2763
                      02145 ;;; /home/sdcc-builder/build/sdcc-build/orig/sdcc/src/pic14/gen.c:2316:resultRemat *{*
                      02146 ;;; /home/sdcc-builder/build/sdcc-build/orig/sdcc/src/pic14/gen.c:6927:genAssign *{*
                      02147 ;; ***  genAssign  6928
                      02148 ;; ***  aopForSym 315
                      02149 ;;      327 sym->rname = _PORTB, size = 1
                      02150 ;;      694 register type nRegs=1
                      02151 ;;      line = 6937 result AOP_REG=r0x105C, size=1, left -=-, size=0, right AOP_DIR=_PORTB, size=1
                      02152 ;; ***  genAssign  7007
                      02153 ;; WARNING      genAssign  7016 ignoring register storage
                      02154 ;; ***  genAssign  7023
                      02155 ;;; /home/sdcc-builder/build/sdcc-build/orig/sdcc/src/pic14/gen.c:1343:mov2w_op *{*
                      02156 ;; ***  mov2w  1381  offset=0
                      02157 ;; >>> /home/sdcc-builder/build/sdcc-build/orig/sdcc/src/pic14/gen.c:1386:mov2w
                      02158 ;;      1009
gpasm-1.4.0 #1106 (Oct  6 2014) obj\Debug\gpi   5-11-2022  02:00:26         PAGE 42


LOC    OBJECT CODE    LINE  SOURCE TEXT
  VALUE

                      02159 ;;      1028  _PORTB   offset=0
0251                  02160 _00251_DS_
                      02161         .line   120; "gpio.c"   ret = PORTB ;
0251   ???? ????      02162         BANKSEL _PORTB
0253   08??           02163         MOVF    _PORTB,W
                      02164 ;; >>> /home/sdcc-builder/build/sdcc-build/orig/sdcc/src/pic14/gen.c:7050:genAssign
                      02165 ;;      1109 rIdx = r0x105C 
0254   ???? ????      02166         BANKSEL r0x100C
0256   00??           02167         MOVWF   r0x100C
                      02168 ;;; /home/sdcc-builder/build/sdcc-build/orig/sdcc/src/pic14/gen.c:2316:resultRemat *{*
                      02169 ;;; /home/sdcc-builder/build/sdcc-build/orig/sdcc/src/pic14/gen.c:2778:genGoto *{*
                      02170 ;; >>> /home/sdcc-builder/build/sdcc-build/orig/sdcc/src/pic14/gen.c:2780:genGoto
                      02171 ;; ***  popGetLabel  key=6, label offset 149
                      02172         .line   121; "gpio.c"   break ;
0257   2???           02173         GOTO    _00255_DS_
                      02174 ;;; /home/sdcc-builder/build/sdcc-build/orig/sdcc/src/pic14/gen.c:2316:resultRemat *{*
                      02175 ;;; /home/sdcc-builder/build/sdcc-build/orig/sdcc/src/pic14/gen.c:2760:genLabel *{*
                      02176 ;; ***  genLabel  2763
                      02177 ;;; /home/sdcc-builder/build/sdcc-build/orig/sdcc/src/pic14/gen.c:2316:resultRemat *{*
                      02178 ;;; /home/sdcc-builder/build/sdcc-build/orig/sdcc/src/pic14/gen.c:6927:genAssign *{*
                      02179 ;; ***  genAssign  6928
                      02180 ;; ***  aopForSym 315
                      02181 ;;      327 sym->rname = _PORTC, size = 1
                      02182 ;;      694 register type nRegs=1
                      02183 ;;      line = 6937 result AOP_REG=r0x105C, size=1, left -=-, size=0, right AOP_DIR=_PORTC, size=1
                      02184 ;; ***  genAssign  7007
                      02185 ;; WARNING      genAssign  7016 ignoring register storage
                      02186 ;; ***  genAssign  7023
                      02187 ;;; /home/sdcc-builder/build/sdcc-build/orig/sdcc/src/pic14/gen.c:1343:mov2w_op *{*
                      02188 ;; ***  mov2w  1381  offset=0
                      02189 ;; >>> /home/sdcc-builder/build/sdcc-build/orig/sdcc/src/pic14/gen.c:1386:mov2w
                      02190 ;;      1009
                      02191 ;;      1028  _PORTC   offset=0
0258                  02192 _00252_DS_
                      02193         .line   123; "gpio.c"   ret = PORTC ;
0258   ???? ????      02194         BANKSEL _PORTC
025A   08??           02195         MOVF    _PORTC,W
                      02196 ;; >>> /home/sdcc-builder/build/sdcc-build/orig/sdcc/src/pic14/gen.c:7050:genAssign
                      02197 ;;      1109 rIdx = r0x105C 
025B   ???? ????      02198         BANKSEL r0x100C
025D   00??           02199         MOVWF   r0x100C
                      02200 ;;; /home/sdcc-builder/build/sdcc-build/orig/sdcc/src/pic14/gen.c:2316:resultRemat *{*
                      02201 ;;; /home/sdcc-builder/build/sdcc-build/orig/sdcc/src/pic14/gen.c:2778:genGoto *{*
                      02202 ;; >>> /home/sdcc-builder/build/sdcc-build/orig/sdcc/src/pic14/gen.c:2780:genGoto
                      02203 ;; ***  popGetLabel  key=6, label offset 149
                      02204         .line   124; "gpio.c"   break ;
025E   2???           02205         GOTO    _00255_DS_
                      02206 ;;; /home/sdcc-builder/build/sdcc-build/orig/sdcc/src/pic14/gen.c:2316:resultRemat *{*
                      02207 ;;; /home/sdcc-builder/build/sdcc-build/orig/sdcc/src/pic14/gen.c:2760:genLabel *{*
                      02208 ;; ***  genLabel  2763
                      02209 ;;; /home/sdcc-builder/build/sdcc-build/orig/sdcc/src/pic14/gen.c:2316:resultRemat *{*
                      02210 ;;; /home/sdcc-builder/build/sdcc-build/orig/sdcc/src/pic14/gen.c:6927:genAssign *{*
                      02211 ;; ***  genAssign  6928
gpasm-1.4.0 #1106 (Oct  6 2014) obj\Debug\gpi   5-11-2022  02:00:26         PAGE 43


LOC    OBJECT CODE    LINE  SOURCE TEXT
  VALUE

                      02212 ;; ***  aopForSym 315
                      02213 ;;      327 sym->rname = _PORTD, size = 1
                      02214 ;;      694 register type nRegs=1
                      02215 ;;      line = 6937 result AOP_REG=r0x105C, size=1, left -=-, size=0, right AOP_DIR=_PORTD, size=1
                      02216 ;; ***  genAssign  7007
                      02217 ;; WARNING      genAssign  7016 ignoring register storage
                      02218 ;; ***  genAssign  7023
                      02219 ;;; /home/sdcc-builder/build/sdcc-build/orig/sdcc/src/pic14/gen.c:1343:mov2w_op *{*
                      02220 ;; ***  mov2w  1381  offset=0
                      02221 ;; >>> /home/sdcc-builder/build/sdcc-build/orig/sdcc/src/pic14/gen.c:1386:mov2w
                      02222 ;;      1009
                      02223 ;;      1028  _PORTD   offset=0
025F                  02224 _00253_DS_
                      02225         .line   126; "gpio.c"   ret = PORTD ;
025F   ???? ????      02226         BANKSEL _PORTD
0261   08??           02227         MOVF    _PORTD,W
                      02228 ;; >>> /home/sdcc-builder/build/sdcc-build/orig/sdcc/src/pic14/gen.c:7050:genAssign
                      02229 ;;      1109 rIdx = r0x105C 
0262   ???? ????      02230         BANKSEL r0x100C
0264   00??           02231         MOVWF   r0x100C
                      02232 ;;; /home/sdcc-builder/build/sdcc-build/orig/sdcc/src/pic14/gen.c:2316:resultRemat *{*
                      02233 ;;; /home/sdcc-builder/build/sdcc-build/orig/sdcc/src/pic14/gen.c:2778:genGoto *{*
                      02234 ;; >>> /home/sdcc-builder/build/sdcc-build/orig/sdcc/src/pic14/gen.c:2780:genGoto
                      02235 ;; ***  popGetLabel  key=6, label offset 149
                      02236         .line   127; "gpio.c"   break ;
0265   2???           02237         GOTO    _00255_DS_
                      02238 ;;; /home/sdcc-builder/build/sdcc-build/orig/sdcc/src/pic14/gen.c:2316:resultRemat *{*
                      02239 ;;; /home/sdcc-builder/build/sdcc-build/orig/sdcc/src/pic14/gen.c:2760:genLabel *{*
                      02240 ;; ***  genLabel  2763
                      02241 ;;; /home/sdcc-builder/build/sdcc-build/orig/sdcc/src/pic14/gen.c:2316:resultRemat *{*
                      02242 ;;; /home/sdcc-builder/build/sdcc-build/orig/sdcc/src/pic14/gen.c:6927:genAssign *{*
                      02243 ;; ***  genAssign  6928
                      02244 ;; ***  aopForSym 315
                      02245 ;;      327 sym->rname = _PORTE, size = 1
                      02246 ;;      694 register type nRegs=1
                      02247 ;;      line = 6937 result AOP_REG=r0x105C, size=1, left -=-, size=0, right AOP_DIR=_PORTE, size=1
                      02248 ;; ***  genAssign  7007
                      02249 ;; WARNING      genAssign  7016 ignoring register storage
                      02250 ;; ***  genAssign  7023
                      02251 ;;; /home/sdcc-builder/build/sdcc-build/orig/sdcc/src/pic14/gen.c:1343:mov2w_op *{*
                      02252 ;; ***  mov2w  1381  offset=0
                      02253 ;; >>> /home/sdcc-builder/build/sdcc-build/orig/sdcc/src/pic14/gen.c:1386:mov2w
                      02254 ;;      1009
                      02255 ;;      1028  _PORTE   offset=0
0266                  02256 _00254_DS_
                      02257         .line   129; "gpio.c"   ret = PORTE;
0266   ???? ????      02258         BANKSEL _PORTE
0268   08??           02259         MOVF    _PORTE,W
                      02260 ;; >>> /home/sdcc-builder/build/sdcc-build/orig/sdcc/src/pic14/gen.c:7050:genAssign
                      02261 ;;      1109 rIdx = r0x105C 
0269   ???? ????      02262         BANKSEL r0x100C
026B   00??           02263         MOVWF   r0x100C
                      02264 ;;; /home/sdcc-builder/build/sdcc-build/orig/sdcc/src/pic14/gen.c:2316:resultRemat *{*
gpasm-1.4.0 #1106 (Oct  6 2014) obj\Debug\gpi   5-11-2022  02:00:26         PAGE 44


LOC    OBJECT CODE    LINE  SOURCE TEXT
  VALUE

                      02265 ;;; /home/sdcc-builder/build/sdcc-build/orig/sdcc/src/pic14/gen.c:2760:genLabel *{*
                      02266 ;; ***  genLabel  2763
                      02267 ;;; /home/sdcc-builder/build/sdcc-build/orig/sdcc/src/pic14/gen.c:2316:resultRemat *{*
                      02268 ;;; /home/sdcc-builder/build/sdcc-build/orig/sdcc/src/pic14/gen.c:2683:genRet *{*
                      02269 ;; ***  genRet  2685
                      02270 ;;      694 register type nRegs=1
                      02271 ;;; /home/sdcc-builder/build/sdcc-build/orig/sdcc/src/pic14/gen.c:1343:mov2w_op *{*
                      02272 ;; ***  mov2w  1381  offset=0
                      02273 ;; >>> /home/sdcc-builder/build/sdcc-build/orig/sdcc/src/pic14/gen.c:1386:mov2w
                      02274 ;;      1109 rIdx = r0x105C 
026C                  02275 _00255_DS_
                      02276         .line   132; "gpio.c"   return ret ;
026C   ???? ????      02277         BANKSEL r0x100C
026E   08??           02278         MOVF    r0x100C,W
                      02279 ;;; /home/sdcc-builder/build/sdcc-build/orig/sdcc/src/pic14/gen.c:2316:resultRemat *{*
                      02280 ;;; /home/sdcc-builder/build/sdcc-build/orig/sdcc/src/pic14/gen.c:2760:genLabel *{*
                      02281 ;; ***  genLabel  2763
                      02282 ;;; /home/sdcc-builder/build/sdcc-build/orig/sdcc/src/pic14/gen.c:2316:resultRemat *{*
                      02283 ;;; /home/sdcc-builder/build/sdcc-build/orig/sdcc/src/pic14/gen.c:2528:genEndFunction *{*
                      02284 ;; ***  genEndFunction  2530
026F   0008           02285         RETURN  
                      02286 ; exit point of _GPIO_GetPortState
                      02287 ;;; /home/sdcc-builder/build/sdcc-build/orig/sdcc/src/pic14/gen.c:7426:genpic14Code *{*
                      02288 
                      02289 ;***
                      02290 ;  pBlock Stats: dbName = C
                      02291 ;***
                      02292 ;entry:  _GPIO_GetPinState      ;Function start
                      02293 ; 2 exit points
                      02294 ;has an exit
                      02295 ;7 compiler assigned registers:
                      02296 ;   r0x100D
                      02297 ;   STK00
                      02298 ;   r0x100E
                      02299 ;   r0x100F
                      02300 ;   r0x1010
                      02301 ;   r0x1011
                      02302 ;   r0x1012
                      02303 ;; Starting pCode block
                      02304 ;;; /home/sdcc-builder/build/sdcc-build/orig/sdcc/src/pic14/gen.c:2316:resultRemat *{*
                      02305 ;;; /home/sdcc-builder/build/sdcc-build/orig/sdcc/src/pic14/gen.c:2760:genLabel *{*
                      02306 ;; ***  genLabel  2763
                      02307 ;;; /home/sdcc-builder/build/sdcc-build/orig/sdcc/src/pic14/gen.c:2316:resultRemat *{*
                      02308 ;;; /home/sdcc-builder/build/sdcc-build/orig/sdcc/src/pic14/gen.c:2340:genFunction *{*
                      02309 ;; ***  genFunction  2342 curr label offset=95previous max_key=13 
0270                  02310 _GPIO_GetPinState       ;Function start
                      02311 ; 2 exit points
                      02312 ;;; /home/sdcc-builder/build/sdcc-build/orig/sdcc/src/pic14/gen.c:2316:resultRemat *{*
                      02313 ;;; /home/sdcc-builder/build/sdcc-build/orig/sdcc/src/pic14/gen.c:7358:genReceive *{*
                      02314 ;; ***  genReceive  7359
                      02315 ;;      694 register type nRegs=1
                      02316 ;;; /home/sdcc-builder/build/sdcc-build/orig/sdcc/src/pic14/gen.c:1907:assignResultValue *{*
                      02317 ;; ***  assignResultValue  1909
gpasm-1.4.0 #1106 (Oct  6 2014) obj\Debug\gpi   5-11-2022  02:00:26         PAGE 45


LOC    OBJECT CODE    LINE  SOURCE TEXT
  VALUE

                      02318 ;;      line = 1911 result -=-, size=0, left AOP_REG=r0x1055, size=1, right -=-, size=0
                      02319 ;; >>> /home/sdcc-builder/build/sdcc-build/orig/sdcc/src/pic14/gen.c:1393:movwf
                      02320 ;;      1109 rIdx = r0x1055 
                      02321         .line   88; "gpio.c"    unsigned char GPIO_GetPinState(tPORT port ,unsigned char pin )
0270   ???? ????      02322         BANKSEL r0x100D
0272   00??           02323         MOVWF   r0x100D
                      02324 ;;; /home/sdcc-builder/build/sdcc-build/orig/sdcc/src/pic14/gen.c:2316:resultRemat *{*
                      02325 ;;; /home/sdcc-builder/build/sdcc-build/orig/sdcc/src/pic14/gen.c:7358:genReceive *{*
                      02326 ;; ***  genReceive  7359
                      02327 ;;      694 register type nRegs=1
                      02328 ;;; /home/sdcc-builder/build/sdcc-build/orig/sdcc/src/pic14/gen.c:1907:assignResultValue *{*
                      02329 ;; ***  assignResultValue  1909
                      02330 ;;      line = 1911 result -=-, size=0, left AOP_REG=r0x1056, size=1, right -=-, size=0
                      02331 ;; >>> /home/sdcc-builder/build/sdcc-build/orig/sdcc/src/pic14/gen.c:1423:get_returnvalue
                      02332 ;; ***  popRegFromIdx,1042  , rIdx=0x7f
0273   08??           02333         MOVF    STK00,W
                      02334 ;; >>> /home/sdcc-builder/build/sdcc-build/orig/sdcc/src/pic14/gen.c:1393:movwf
                      02335 ;;      1109 rIdx = r0x1056 
0274   00??           02336         MOVWF   r0x100E
                      02337 ;;; /home/sdcc-builder/build/sdcc-build/orig/sdcc/src/pic14/gen.c:2316:resultRemat *{*
                      02338 ;;; /home/sdcc-builder/build/sdcc-build/orig/sdcc/src/pic14/gen.c:6927:genAssign *{*
                      02339 ;; ***  genAssign  6928
                      02340 ;;      694 register type nRegs=1
                      02341 ;;      line = 6937 result AOP_REG=r0x1057, size=1, left -=-, size=0, right AOP_LIT=0x00, size=1
                      02342 ;; ***  genAssign  7023
                      02343 ;; >>> /home/sdcc-builder/build/sdcc-build/orig/sdcc/src/pic14/gen.c:7035:genAssign
                      02344 ;;      1109 rIdx = r0x1057 
                      02345         .line   90; "gpio.c"    unsigned char ret = 0 ;
0275   01??           02346         CLRF    r0x100F
                      02347 ;;; /home/sdcc-builder/build/sdcc-build/orig/sdcc/src/pic14/gen.c:2316:resultRemat *{*
                      02348 ;;; /home/sdcc-builder/build/sdcc-build/orig/sdcc/src/pic14/gen.c:3547:genCmpGt *{*
                      02349 ;; ***  genCmpGt  3548
                      02350 ;;      694 register type nRegs=1
                      02351 ;;; /home/sdcc-builder/build/sdcc-build/orig/sdcc/src/pic14/gen.c:3294:genCmp *{*
                      02352 ;;swapping arguments (AOP_TYPEs 1/2)
                      02353 ;;unsigned compare: left >= lit(0x5=5), size=1
                      02354 ;; >>> /home/sdcc-builder/build/sdcc-build/orig/sdcc/src/pic14/gen.c:3265:pic14_mov2w_regOrLit
                      02355         .line   91; "gpio.c"    switch(port)
0276   3005           02356         MOVLW   0x05
                      02357 ;; >>> /home/sdcc-builder/build/sdcc-build/orig/sdcc/src/pic14/gen.c:3432:genCmp
                      02358 ;;      1109 rIdx = r0x1055 
0277   02??           02359         SUBWF   r0x100D,W
                      02360 ;;; /home/sdcc-builder/build/sdcc-build/orig/sdcc/src/pic14/gen.c:3237:genSkipc *{*
                      02361 ;; >>> /home/sdcc-builder/build/sdcc-build/orig/sdcc/src/pic14/gen.c:3242:genSkipc
0278   1803           02362         BTFSC   STATUS,0
                      02363 ;; >>> /home/sdcc-builder/build/sdcc-build/orig/sdcc/src/pic14/gen.c:3246:genSkipc
                      02364 ;; ***  popGetLabel  key=6, label offset 112
0279   2???           02365         GOTO    _00218_DS_
                      02366 ;;genSkipc:3247: created from rifx:027A5DF4
                      02367 ;;; /home/sdcc-builder/build/sdcc-build/orig/sdcc/src/pic14/gen.c:2316:resultRemat *{*
                      02368 ;;; /home/sdcc-builder/build/sdcc-build/orig/sdcc/src/pic14/gen.c:2316:resultRemat *{*
                      02369 ;;; /home/sdcc-builder/build/sdcc-build/orig/sdcc/src/pic14/gen.c:7071:genJumpTab *{*
                      02370 ;; ***  genJumpTab  7072
gpasm-1.4.0 #1106 (Oct  6 2014) obj\Debug\gpi   5-11-2022  02:00:26         PAGE 46


LOC    OBJECT CODE    LINE  SOURCE TEXT
  VALUE

                      02371 ;;      694 register type nRegs=1
                      02372 ;; >>> /home/sdcc-builder/build/sdcc-build/orig/sdcc/src/pic14/gen.c:7087:genJumpTab
                      02373 ;; ***  popGetLabel  key=13, label offset 112
027A   30??           02374         MOVLW   HIGH(_00225_DS_)
                      02375 ;; >>> /home/sdcc-builder/build/sdcc-build/orig/sdcc/src/pic14/gen.c:7088:genJumpTab
027B   1283 1303      02376         BANKSEL PCLATH
027D   008A           02377         MOVWF   PCLATH
                      02378 ;; >>> /home/sdcc-builder/build/sdcc-build/orig/sdcc/src/pic14/gen.c:7089:genJumpTab
                      02379 ;; ***  popGetLabel  key=13, label offset 112
027E   30??           02380         MOVLW   _00225_DS_
                      02381 ;; >>> /home/sdcc-builder/build/sdcc-build/orig/sdcc/src/pic14/gen.c:7090:genJumpTab
                      02382 ;;      1109 rIdx = r0x1055 
027F   ???? ????      02383         BANKSEL r0x100D
0281   07??           02384         ADDWF   r0x100D,W
                      02385 ;; >>> /home/sdcc-builder/build/sdcc-build/orig/sdcc/src/pic14/gen.c:7091:genJumpTab
0282   1C03           02386         BTFSS   STATUS,0
0283   2???           02387         GOTO    _00004_DS_
                      02388 ;; >>> /home/sdcc-builder/build/sdcc-build/orig/sdcc/src/pic14/gen.c:7092:genJumpTab
0284   1283 1303      02389         BANKSEL PCLATH
0286   0A8A           02390         INCF    PCLATH,F
                      02391 ;; >>> /home/sdcc-builder/build/sdcc-build/orig/sdcc/src/pic14/gen.c:7093:genJumpTab
0287                  02392 _00004_DS_
0287   0082           02393         MOVWF   PCL
                      02394 ;; >>> /home/sdcc-builder/build/sdcc-build/orig/sdcc/src/pic14/gen.c:7102:genJumpTab
                      02395 ;; ***  popGetLabel  key=1, label offset 112
0288                  02396 _00225_DS_
0288   2???           02397         GOTO    _00213_DS_
                      02398 ;; >>> /home/sdcc-builder/build/sdcc-build/orig/sdcc/src/pic14/gen.c:7102:genJumpTab
                      02399 ;; ***  popGetLabel  key=2, label offset 112
0289   2???           02400         GOTO    _00214_DS_
                      02401 ;; >>> /home/sdcc-builder/build/sdcc-build/orig/sdcc/src/pic14/gen.c:7102:genJumpTab
                      02402 ;; ***  popGetLabel  key=3, label offset 112
028A   2???           02403         GOTO    _00215_DS_
                      02404 ;; >>> /home/sdcc-builder/build/sdcc-build/orig/sdcc/src/pic14/gen.c:7102:genJumpTab
                      02405 ;; ***  popGetLabel  key=4, label offset 112
028B   2???           02406         GOTO    _00216_DS_
                      02407 ;; >>> /home/sdcc-builder/build/sdcc-build/orig/sdcc/src/pic14/gen.c:7102:genJumpTab
                      02408 ;; ***  popGetLabel  key=5, label offset 112
028C   2???           02409         GOTO    _00217_DS_
                      02410 ;;; /home/sdcc-builder/build/sdcc-build/orig/sdcc/src/pic14/gen.c:2316:resultRemat *{*
                      02411 ;;; /home/sdcc-builder/build/sdcc-build/orig/sdcc/src/pic14/gen.c:2760:genLabel *{*
                      02412 ;; ***  genLabel  2763
                      02413 ;;; /home/sdcc-builder/build/sdcc-build/orig/sdcc/src/pic14/gen.c:2316:resultRemat *{*
                      02414 ;;; /home/sdcc-builder/build/sdcc-build/orig/sdcc/src/pic14/gen.c:5418:genGenericShift *{*
                      02415 ;; ***  genGenericShift  5421
                      02416 ;;      694 register type nRegs=1
                      02417 ;;      694 register type nRegs=2
                      02418 ;; ***  mov2w  1381  offset=1
                      02419 ;; >>> /home/sdcc-builder/build/sdcc-build/orig/sdcc/src/pic14/gen.c:1384:mov2w
028D                  02420 _00213_DS_
                      02421         .line   94; "gpio.c"    ret = GET_BIT(PORTA,pin) ;
028D   3000           02422         MOVLW   0x00
                      02423 ;; >>> /home/sdcc-builder/build/sdcc-build/orig/sdcc/src/pic14/gen.c:1393:movwf
gpasm-1.4.0 #1106 (Oct  6 2014) obj\Debug\gpi   5-11-2022  02:00:26         PAGE 47


LOC    OBJECT CODE    LINE  SOURCE TEXT
  VALUE

                      02424 ;;      1109 rIdx = r0x1058 
028E   ???? ????      02425         BANKSEL r0x1010
0290   00??           02426         MOVWF   r0x1010
                      02427 ;; ***  mov2w  1381  offset=0
                      02428 ;; >>> /home/sdcc-builder/build/sdcc-build/orig/sdcc/src/pic14/gen.c:1384:mov2w
0291   3001           02429         MOVLW   0x01
                      02430 ;; >>> /home/sdcc-builder/build/sdcc-build/orig/sdcc/src/pic14/gen.c:1393:movwf
                      02431 ;;      1109 rIdx = r0x1055 
0292   00??           02432         MOVWF   r0x100D
                      02433 ;; ***  addSign  861
                      02434 ;;; /home/sdcc-builder/build/sdcc-build/orig/sdcc/src/pic14/genarith.c:862:addSign *{*
                      02435 ;; ***  mov2w  1381  offset=0
                      02436 ;; >>> /home/sdcc-builder/build/sdcc-build/orig/sdcc/src/pic14/gen.c:1386:mov2w
                      02437 ;;      1109 rIdx = r0x1056 
0293   08??           02438         MOVF    r0x100E,W
                      02439 ;; >>> /home/sdcc-builder/build/sdcc-build/orig/sdcc/src/pic14/gen.c:5492:genGenericShift
0294   3C00           02440         SUBLW   0x00
                      02441 ;; >>> /home/sdcc-builder/build/sdcc-build/orig/sdcc/src/pic14/gen.c:5494:genGenericShift
0295   1903           02442         BTFSC   STATUS,2
                      02443 ;; >>> /home/sdcc-builder/build/sdcc-build/orig/sdcc/src/pic14/gen.c:5495:genGenericShift
                      02444 ;; ***  popGetLabel  key=15, label offset 112
0296   2???           02445         GOTO    _00227_DS_
                      02446 ;;; /home/sdcc-builder/build/sdcc-build/orig/sdcc/src/pic14/gen.c:5369:genMultiAsm *{*
                      02447 ;; ***  genMultiAsm  5370
                      02448 ;; >>> /home/sdcc-builder/build/sdcc-build/orig/sdcc/src/pic14/gen.c:5387:genMultiAsm
                      02449 ;;      1109 rIdx = r0x1055 
0297                  02450 _00226_DS_
0297   ???? ????      02451         BANKSEL r0x100D
0299   0D??           02452         RLF     r0x100D,F
                      02453 ;; >>> /home/sdcc-builder/build/sdcc-build/orig/sdcc/src/pic14/gen.c:5387:genMultiAsm
                      02454 ;;      1109 rIdx = r0x1058 
029A   0D??           02455         RLF     r0x1010,F
                      02456 ;; >>> /home/sdcc-builder/build/sdcc-build/orig/sdcc/src/pic14/gen.c:5501:genGenericShift
029B   3E01           02457         ADDLW   0x01
                      02458 ;; >>> /home/sdcc-builder/build/sdcc-build/orig/sdcc/src/pic14/gen.c:5502:genGenericShift
029C   1C03           02459         BTFSS   STATUS,0
                      02460 ;; >>> /home/sdcc-builder/build/sdcc-build/orig/sdcc/src/pic14/gen.c:5503:genGenericShift
                      02461 ;; ***  popGetLabel  key=14, label offset 112
029D   2???           02462         GOTO    _00226_DS_
                      02463 ;;; /home/sdcc-builder/build/sdcc-build/orig/sdcc/src/pic14/gen.c:2316:resultRemat *{*
                      02464 ;;; /home/sdcc-builder/build/sdcc-build/orig/sdcc/src/pic14/gen.c:7120:genCast *{*
                      02465 ;; ***  genCast  7121
                      02466 ;; ***  aopForSym 315
                      02467 ;;      327 sym->rname = _PORTA, size = 1
                      02468 ;;      694 register type nRegs=2
                      02469 ;;      line = 7129 result AOP_REG=r0x1059, size=2, left -=-, size=0, right AOP_DIR=_PORTA, size=1
                      02470 ;; >>> /home/sdcc-builder/build/sdcc-build/orig/sdcc/src/pic14/gen.c:7298:genCast
                      02471 ;;      1009
                      02472 ;;      1028  _PORTA   offset=0
029E                  02473 _00227_DS_
029E   ???? ????      02474         BANKSEL _PORTA
02A0   08??           02475         MOVF    _PORTA,W
                      02476 ;; >>> /home/sdcc-builder/build/sdcc-build/orig/sdcc/src/pic14/gen.c:7299:genCast
gpasm-1.4.0 #1106 (Oct  6 2014) obj\Debug\gpi   5-11-2022  02:00:26         PAGE 48


LOC    OBJECT CODE    LINE  SOURCE TEXT
  VALUE

                      02477 ;;      1109 rIdx = r0x1059 
02A1   ???? ????      02478         BANKSEL r0x1011
02A3   00??           02479         MOVWF   r0x1011
                      02480 ;; ***  addSign  861
                      02481 ;;; /home/sdcc-builder/build/sdcc-build/orig/sdcc/src/pic14/genarith.c:862:addSign *{*
                      02482 ;; >>> /home/sdcc-builder/build/sdcc-build/orig/sdcc/src/pic14/genarith.c:881:addSign
                      02483 ;;      1109 rIdx = r0x105A 
02A4   01??           02484         CLRF    r0x1012
                      02485 ;;; /home/sdcc-builder/build/sdcc-build/orig/sdcc/src/pic14/gen.c:2316:resultRemat *{*
                      02486 ;;; /home/sdcc-builder/build/sdcc-build/orig/sdcc/src/pic14/gen.c:3919:genAnd *{*
                      02487 ;; ***  genAnd  3920
                      02488 ;;      694 register type nRegs=2
                      02489 ;;      694 register type nRegs=2
                      02490 ;;      694 register type nRegs=2
                      02491 ;;      line = 3955 result AOP_REG=r0x1055, size=2, left AOP_REG=r0x1055, size=2, right AOP_REG=r0x1059,
                             size=2
                      02492 ;; >>> /home/sdcc-builder/build/sdcc-build/orig/sdcc/src/pic14/gen.c:4137:genAnd
                      02493 ;;      1109 rIdx = r0x1059 
02A5   08??           02494         MOVF    r0x1011,W
                      02495 ;; >>> /home/sdcc-builder/build/sdcc-build/orig/sdcc/src/pic14/gen.c:4138:genAnd
                      02496 ;;      1109 rIdx = r0x1055 
02A6   05??           02497         ANDWF   r0x100D,F
                      02498 ;; >>> /home/sdcc-builder/build/sdcc-build/orig/sdcc/src/pic14/gen.c:4137:genAnd
                      02499 ;;      1109 rIdx = r0x105A 
02A7   3000           02500         MOVLW   0x00
                      02501 ;; >>> /home/sdcc-builder/build/sdcc-build/orig/sdcc/src/pic14/gen.c:4138:genAnd
                      02502 ;;      1109 rIdx = r0x1058 
02A8   05??           02503         ANDWF   r0x1010,F
                      02504 ;;; /home/sdcc-builder/build/sdcc-build/orig/sdcc/src/pic14/gen.c:2316:resultRemat *{*
                      02505 ;;; /home/sdcc-builder/build/sdcc-build/orig/sdcc/src/pic14/gen.c:5418:genGenericShift *{*
                      02506 ;; ***  genGenericShift  5421
                      02507 ;;      694 register type nRegs=1
                      02508 ;;      694 register type nRegs=2
                      02509 ;;      694 register type nRegs=2
                      02510 ;; ***  mov2w  1381  offset=1
                      02511 ;; >>> /home/sdcc-builder/build/sdcc-build/orig/sdcc/src/pic14/gen.c:1386:mov2w
                      02512 ;;      1109 rIdx = r0x1058 
02A9   08??           02513         MOVF    r0x1010,W
                      02514 ;; >>> /home/sdcc-builder/build/sdcc-build/orig/sdcc/src/pic14/gen.c:1393:movwf
                      02515 ;;      1109 rIdx = r0x105A 
02AA   00??           02516         MOVWF   r0x1012
                      02517 ;; ***  mov2w  1381  offset=0
                      02518 ;; >>> /home/sdcc-builder/build/sdcc-build/orig/sdcc/src/pic14/gen.c:1386:mov2w
                      02519 ;;      1109 rIdx = r0x1055 
02AB   08??           02520         MOVF    r0x100D,W
                      02521 ;; >>> /home/sdcc-builder/build/sdcc-build/orig/sdcc/src/pic14/gen.c:1393:movwf
                      02522 ;;      1109 rIdx = r0x1059 
02AC   00??           02523         MOVWF   r0x1011
                      02524 ;; ***  addSign  861
                      02525 ;;; /home/sdcc-builder/build/sdcc-build/orig/sdcc/src/pic14/genarith.c:862:addSign *{*
                      02526 ;; ***  mov2w  1381  offset=0
                      02527 ;; >>> /home/sdcc-builder/build/sdcc-build/orig/sdcc/src/pic14/gen.c:1386:mov2w
                      02528 ;;      1109 rIdx = r0x1056 
gpasm-1.4.0 #1106 (Oct  6 2014) obj\Debug\gpi   5-11-2022  02:00:26         PAGE 49


LOC    OBJECT CODE    LINE  SOURCE TEXT
  VALUE

02AD   08??           02529         MOVF    r0x100E,W
                      02530 ;; >>> /home/sdcc-builder/build/sdcc-build/orig/sdcc/src/pic14/gen.c:5492:genGenericShift
02AE   3C00           02531         SUBLW   0x00
                      02532 ;; >>> /home/sdcc-builder/build/sdcc-build/orig/sdcc/src/pic14/gen.c:5494:genGenericShift
02AF   1903           02533         BTFSC   STATUS,2
                      02534 ;; >>> /home/sdcc-builder/build/sdcc-build/orig/sdcc/src/pic14/gen.c:5495:genGenericShift
                      02535 ;; ***  popGetLabel  key=17, label offset 112
02B0   2???           02536         GOTO    _00229_DS_
                      02537 ;;; /home/sdcc-builder/build/sdcc-build/orig/sdcc/src/pic14/gen.c:5400:loadSignToC *{*
                      02538 ;; >>> /home/sdcc-builder/build/sdcc-build/orig/sdcc/src/pic14/gen.c:5403:loadSignToC
02B1                  02539 _00228_DS_
02B1   1003           02540         BCF     STATUS,0
                      02541 ;; >>> /home/sdcc-builder/build/sdcc-build/orig/sdcc/src/pic14/gen.c:5404:loadSignToC
02B2   ???? ????      02542         BANKSEL r0x1012
02B4   1B??           02543         BTFSC   r0x1012,7
                      02544 ;; >>> /home/sdcc-builder/build/sdcc-build/orig/sdcc/src/pic14/gen.c:5405:loadSignToC
02B5   1403           02545         BSF     STATUS,0
                      02546 ;;; /home/sdcc-builder/build/sdcc-build/orig/sdcc/src/pic14/gen.c:5369:genMultiAsm *{*
                      02547 ;; ***  genMultiAsm  5370
                      02548 ;; >>> /home/sdcc-builder/build/sdcc-build/orig/sdcc/src/pic14/gen.c:5387:genMultiAsm
                      02549 ;;      1109 rIdx = r0x105A 
02B6   0C??           02550         RRF     r0x1012,F
                      02551 ;; >>> /home/sdcc-builder/build/sdcc-build/orig/sdcc/src/pic14/gen.c:5387:genMultiAsm
                      02552 ;;      1109 rIdx = r0x1059 
02B7   0C??           02553         RRF     r0x1011,F
                      02554 ;; >>> /home/sdcc-builder/build/sdcc-build/orig/sdcc/src/pic14/gen.c:5501:genGenericShift
02B8   3E01           02555         ADDLW   0x01
                      02556 ;; >>> /home/sdcc-builder/build/sdcc-build/orig/sdcc/src/pic14/gen.c:5502:genGenericShift
02B9   1C03           02557         BTFSS   STATUS,0
                      02558 ;; >>> /home/sdcc-builder/build/sdcc-build/orig/sdcc/src/pic14/gen.c:5503:genGenericShift
                      02559 ;; ***  popGetLabel  key=16, label offset 112
02BA   2???           02560         GOTO    _00228_DS_
                      02561 ;;; /home/sdcc-builder/build/sdcc-build/orig/sdcc/src/pic14/gen.c:2316:resultRemat *{*
                      02562 ;;; /home/sdcc-builder/build/sdcc-build/orig/sdcc/src/pic14/gen.c:7120:genCast *{*
                      02563 ;; ***  genCast  7121
                      02564 ;;      694 register type nRegs=2
                      02565 ;;      694 register type nRegs=1
                      02566 ;;      line = 7129 result AOP_REG=r0x1057, size=1, left -=-, size=0, right AOP_REG=r0x1059, size=2
                      02567 ;; ***  genCast  7253
                      02568 ;; >>> /home/sdcc-builder/build/sdcc-build/orig/sdcc/src/pic14/gen.c:7277:genCast
                      02569 ;;      1109 rIdx = r0x1059 
02BB                  02570 _00229_DS_
02BB   ???? ????      02571         BANKSEL r0x1011
02BD   08??           02572         MOVF    r0x1011,W
                      02573 ;; >>> /home/sdcc-builder/build/sdcc-build/orig/sdcc/src/pic14/gen.c:7278:genCast
                      02574 ;;      1109 rIdx = r0x1057 
02BE   00??           02575         MOVWF   r0x100F
                      02576 ;;; /home/sdcc-builder/build/sdcc-build/orig/sdcc/src/pic14/gen.c:2316:resultRemat *{*
                      02577 ;;; /home/sdcc-builder/build/sdcc-build/orig/sdcc/src/pic14/gen.c:2778:genGoto *{*
                      02578 ;; >>> /home/sdcc-builder/build/sdcc-build/orig/sdcc/src/pic14/gen.c:2780:genGoto
                      02579 ;; ***  popGetLabel  key=6, label offset 112
                      02580         .line   95; "gpio.c"    break ;
02BF   2???           02581         GOTO    _00218_DS_
gpasm-1.4.0 #1106 (Oct  6 2014) obj\Debug\gpi   5-11-2022  02:00:26         PAGE 50


LOC    OBJECT CODE    LINE  SOURCE TEXT
  VALUE

                      02582 ;;; /home/sdcc-builder/build/sdcc-build/orig/sdcc/src/pic14/gen.c:2316:resultRemat *{*
                      02583 ;;; /home/sdcc-builder/build/sdcc-build/orig/sdcc/src/pic14/gen.c:2760:genLabel *{*
                      02584 ;; ***  genLabel  2763
                      02585 ;;; /home/sdcc-builder/build/sdcc-build/orig/sdcc/src/pic14/gen.c:2316:resultRemat *{*
                      02586 ;;; /home/sdcc-builder/build/sdcc-build/orig/sdcc/src/pic14/gen.c:5418:genGenericShift *{*
                      02587 ;; ***  genGenericShift  5421
                      02588 ;;      694 register type nRegs=1
                      02589 ;;      694 register type nRegs=2
                      02590 ;; ***  mov2w  1381  offset=1
                      02591 ;; >>> /home/sdcc-builder/build/sdcc-build/orig/sdcc/src/pic14/gen.c:1384:mov2w
02C0                  02592 _00214_DS_
                      02593         .line   97; "gpio.c"    ret = GET_BIT(PORTB,pin) ;
02C0   3000           02594         MOVLW   0x00
                      02595 ;; >>> /home/sdcc-builder/build/sdcc-build/orig/sdcc/src/pic14/gen.c:1393:movwf
                      02596 ;;      1109 rIdx = r0x1058 
02C1   ???? ????      02597         BANKSEL r0x1010
02C3   00??           02598         MOVWF   r0x1010
                      02599 ;; ***  mov2w  1381  offset=0
                      02600 ;; >>> /home/sdcc-builder/build/sdcc-build/orig/sdcc/src/pic14/gen.c:1384:mov2w
02C4   3001           02601         MOVLW   0x01
                      02602 ;; >>> /home/sdcc-builder/build/sdcc-build/orig/sdcc/src/pic14/gen.c:1393:movwf
                      02603 ;;      1109 rIdx = r0x1055 
02C5   00??           02604         MOVWF   r0x100D
                      02605 ;; ***  addSign  861
                      02606 ;;; /home/sdcc-builder/build/sdcc-build/orig/sdcc/src/pic14/genarith.c:862:addSign *{*
                      02607 ;; ***  mov2w  1381  offset=0
                      02608 ;; >>> /home/sdcc-builder/build/sdcc-build/orig/sdcc/src/pic14/gen.c:1386:mov2w
                      02609 ;;      1109 rIdx = r0x1056 
02C6   08??           02610         MOVF    r0x100E,W
                      02611 ;; >>> /home/sdcc-builder/build/sdcc-build/orig/sdcc/src/pic14/gen.c:5492:genGenericShift
02C7   3C00           02612         SUBLW   0x00
                      02613 ;; >>> /home/sdcc-builder/build/sdcc-build/orig/sdcc/src/pic14/gen.c:5494:genGenericShift
02C8   1903           02614         BTFSC   STATUS,2
                      02615 ;; >>> /home/sdcc-builder/build/sdcc-build/orig/sdcc/src/pic14/gen.c:5495:genGenericShift
                      02616 ;; ***  popGetLabel  key=19, label offset 112
02C9   2???           02617         GOTO    _00231_DS_
                      02618 ;;; /home/sdcc-builder/build/sdcc-build/orig/sdcc/src/pic14/gen.c:5369:genMultiAsm *{*
                      02619 ;; ***  genMultiAsm  5370
                      02620 ;; >>> /home/sdcc-builder/build/sdcc-build/orig/sdcc/src/pic14/gen.c:5387:genMultiAsm
                      02621 ;;      1109 rIdx = r0x1055 
02CA                  02622 _00230_DS_
02CA   ???? ????      02623         BANKSEL r0x100D
02CC   0D??           02624         RLF     r0x100D,F
                      02625 ;; >>> /home/sdcc-builder/build/sdcc-build/orig/sdcc/src/pic14/gen.c:5387:genMultiAsm
                      02626 ;;      1109 rIdx = r0x1058 
02CD   0D??           02627         RLF     r0x1010,F
                      02628 ;; >>> /home/sdcc-builder/build/sdcc-build/orig/sdcc/src/pic14/gen.c:5501:genGenericShift
02CE   3E01           02629         ADDLW   0x01
                      02630 ;; >>> /home/sdcc-builder/build/sdcc-build/orig/sdcc/src/pic14/gen.c:5502:genGenericShift
02CF   1C03           02631         BTFSS   STATUS,0
                      02632 ;; >>> /home/sdcc-builder/build/sdcc-build/orig/sdcc/src/pic14/gen.c:5503:genGenericShift
                      02633 ;; ***  popGetLabel  key=18, label offset 112
02D0   2???           02634         GOTO    _00230_DS_
gpasm-1.4.0 #1106 (Oct  6 2014) obj\Debug\gpi   5-11-2022  02:00:26         PAGE 51


LOC    OBJECT CODE    LINE  SOURCE TEXT
  VALUE

                      02635 ;;; /home/sdcc-builder/build/sdcc-build/orig/sdcc/src/pic14/gen.c:2316:resultRemat *{*
                      02636 ;;; /home/sdcc-builder/build/sdcc-build/orig/sdcc/src/pic14/gen.c:7120:genCast *{*
                      02637 ;; ***  genCast  7121
                      02638 ;; ***  aopForSym 315
                      02639 ;;      327 sym->rname = _PORTB, size = 1
                      02640 ;;      694 register type nRegs=2
                      02641 ;;      line = 7129 result AOP_REG=r0x1059, size=2, left -=-, size=0, right AOP_DIR=_PORTB, size=1
                      02642 ;; >>> /home/sdcc-builder/build/sdcc-build/orig/sdcc/src/pic14/gen.c:7298:genCast
                      02643 ;;      1009
                      02644 ;;      1028  _PORTB   offset=0
02D1                  02645 _00231_DS_
02D1   ???? ????      02646         BANKSEL _PORTB
02D3   08??           02647         MOVF    _PORTB,W
                      02648 ;; >>> /home/sdcc-builder/build/sdcc-build/orig/sdcc/src/pic14/gen.c:7299:genCast
                      02649 ;;      1109 rIdx = r0x1059 
02D4   ???? ????      02650         BANKSEL r0x1011
02D6   00??           02651         MOVWF   r0x1011
                      02652 ;; ***  addSign  861
                      02653 ;;; /home/sdcc-builder/build/sdcc-build/orig/sdcc/src/pic14/genarith.c:862:addSign *{*
                      02654 ;; >>> /home/sdcc-builder/build/sdcc-build/orig/sdcc/src/pic14/genarith.c:881:addSign
                      02655 ;;      1109 rIdx = r0x105A 
02D7   01??           02656         CLRF    r0x1012
                      02657 ;;; /home/sdcc-builder/build/sdcc-build/orig/sdcc/src/pic14/gen.c:2316:resultRemat *{*
                      02658 ;;; /home/sdcc-builder/build/sdcc-build/orig/sdcc/src/pic14/gen.c:3919:genAnd *{*
                      02659 ;; ***  genAnd  3920
                      02660 ;;      694 register type nRegs=2
                      02661 ;;      694 register type nRegs=2
                      02662 ;;      694 register type nRegs=2
                      02663 ;;      line = 3955 result AOP_REG=r0x1055, size=2, left AOP_REG=r0x1055, size=2, right AOP_REG=r0x1059,
                             size=2
                      02664 ;; >>> /home/sdcc-builder/build/sdcc-build/orig/sdcc/src/pic14/gen.c:4137:genAnd
                      02665 ;;      1109 rIdx = r0x1059 
02D8   08??           02666         MOVF    r0x1011,W
                      02667 ;; >>> /home/sdcc-builder/build/sdcc-build/orig/sdcc/src/pic14/gen.c:4138:genAnd
                      02668 ;;      1109 rIdx = r0x1055 
02D9   05??           02669         ANDWF   r0x100D,F
                      02670 ;; >>> /home/sdcc-builder/build/sdcc-build/orig/sdcc/src/pic14/gen.c:4137:genAnd
                      02671 ;;      1109 rIdx = r0x105A 
02DA   3000           02672         MOVLW   0x00
                      02673 ;; >>> /home/sdcc-builder/build/sdcc-build/orig/sdcc/src/pic14/gen.c:4138:genAnd
                      02674 ;;      1109 rIdx = r0x1058 
02DB   05??           02675         ANDWF   r0x1010,F
                      02676 ;;; /home/sdcc-builder/build/sdcc-build/orig/sdcc/src/pic14/gen.c:2316:resultRemat *{*
                      02677 ;;; /home/sdcc-builder/build/sdcc-build/orig/sdcc/src/pic14/gen.c:5418:genGenericShift *{*
                      02678 ;; ***  genGenericShift  5421
                      02679 ;;      694 register type nRegs=1
                      02680 ;;      694 register type nRegs=2
                      02681 ;;      694 register type nRegs=2
                      02682 ;; ***  mov2w  1381  offset=1
                      02683 ;; >>> /home/sdcc-builder/build/sdcc-build/orig/sdcc/src/pic14/gen.c:1386:mov2w
                      02684 ;;      1109 rIdx = r0x1058 
02DC   08??           02685         MOVF    r0x1010,W
                      02686 ;; >>> /home/sdcc-builder/build/sdcc-build/orig/sdcc/src/pic14/gen.c:1393:movwf
gpasm-1.4.0 #1106 (Oct  6 2014) obj\Debug\gpi   5-11-2022  02:00:26         PAGE 52


LOC    OBJECT CODE    LINE  SOURCE TEXT
  VALUE

                      02687 ;;      1109 rIdx = r0x105A 
02DD   00??           02688         MOVWF   r0x1012
                      02689 ;; ***  mov2w  1381  offset=0
                      02690 ;; >>> /home/sdcc-builder/build/sdcc-build/orig/sdcc/src/pic14/gen.c:1386:mov2w
                      02691 ;;      1109 rIdx = r0x1055 
02DE   08??           02692         MOVF    r0x100D,W
                      02693 ;; >>> /home/sdcc-builder/build/sdcc-build/orig/sdcc/src/pic14/gen.c:1393:movwf
                      02694 ;;      1109 rIdx = r0x1059 
02DF   00??           02695         MOVWF   r0x1011
                      02696 ;; ***  addSign  861
                      02697 ;;; /home/sdcc-builder/build/sdcc-build/orig/sdcc/src/pic14/genarith.c:862:addSign *{*
                      02698 ;; ***  mov2w  1381  offset=0
                      02699 ;; >>> /home/sdcc-builder/build/sdcc-build/orig/sdcc/src/pic14/gen.c:1386:mov2w
                      02700 ;;      1109 rIdx = r0x1056 
02E0   08??           02701         MOVF    r0x100E,W
                      02702 ;; >>> /home/sdcc-builder/build/sdcc-build/orig/sdcc/src/pic14/gen.c:5492:genGenericShift
02E1   3C00           02703         SUBLW   0x00
                      02704 ;; >>> /home/sdcc-builder/build/sdcc-build/orig/sdcc/src/pic14/gen.c:5494:genGenericShift
02E2   1903           02705         BTFSC   STATUS,2
                      02706 ;; >>> /home/sdcc-builder/build/sdcc-build/orig/sdcc/src/pic14/gen.c:5495:genGenericShift
                      02707 ;; ***  popGetLabel  key=21, label offset 112
02E3   2???           02708         GOTO    _00233_DS_
                      02709 ;;; /home/sdcc-builder/build/sdcc-build/orig/sdcc/src/pic14/gen.c:5400:loadSignToC *{*
                      02710 ;; >>> /home/sdcc-builder/build/sdcc-build/orig/sdcc/src/pic14/gen.c:5403:loadSignToC
02E4                  02711 _00232_DS_
02E4   1003           02712         BCF     STATUS,0
                      02713 ;; >>> /home/sdcc-builder/build/sdcc-build/orig/sdcc/src/pic14/gen.c:5404:loadSignToC
02E5   ???? ????      02714         BANKSEL r0x1012
02E7   1B??           02715         BTFSC   r0x1012,7
                      02716 ;; >>> /home/sdcc-builder/build/sdcc-build/orig/sdcc/src/pic14/gen.c:5405:loadSignToC
02E8   1403           02717         BSF     STATUS,0
                      02718 ;;; /home/sdcc-builder/build/sdcc-build/orig/sdcc/src/pic14/gen.c:5369:genMultiAsm *{*
                      02719 ;; ***  genMultiAsm  5370
                      02720 ;; >>> /home/sdcc-builder/build/sdcc-build/orig/sdcc/src/pic14/gen.c:5387:genMultiAsm
                      02721 ;;      1109 rIdx = r0x105A 
02E9   0C??           02722         RRF     r0x1012,F
                      02723 ;; >>> /home/sdcc-builder/build/sdcc-build/orig/sdcc/src/pic14/gen.c:5387:genMultiAsm
                      02724 ;;      1109 rIdx = r0x1059 
02EA   0C??           02725         RRF     r0x1011,F
                      02726 ;; >>> /home/sdcc-builder/build/sdcc-build/orig/sdcc/src/pic14/gen.c:5501:genGenericShift
02EB   3E01           02727         ADDLW   0x01
                      02728 ;; >>> /home/sdcc-builder/build/sdcc-build/orig/sdcc/src/pic14/gen.c:5502:genGenericShift
02EC   1C03           02729         BTFSS   STATUS,0
                      02730 ;; >>> /home/sdcc-builder/build/sdcc-build/orig/sdcc/src/pic14/gen.c:5503:genGenericShift
                      02731 ;; ***  popGetLabel  key=20, label offset 112
02ED   2???           02732         GOTO    _00232_DS_
                      02733 ;;; /home/sdcc-builder/build/sdcc-build/orig/sdcc/src/pic14/gen.c:2316:resultRemat *{*
                      02734 ;;; /home/sdcc-builder/build/sdcc-build/orig/sdcc/src/pic14/gen.c:7120:genCast *{*
                      02735 ;; ***  genCast  7121
                      02736 ;;      694 register type nRegs=2
                      02737 ;;      694 register type nRegs=1
                      02738 ;;      line = 7129 result AOP_REG=r0x1057, size=1, left -=-, size=0, right AOP_REG=r0x1059, size=2
                      02739 ;; ***  genCast  7253
gpasm-1.4.0 #1106 (Oct  6 2014) obj\Debug\gpi   5-11-2022  02:00:26         PAGE 53


LOC    OBJECT CODE    LINE  SOURCE TEXT
  VALUE

                      02740 ;; >>> /home/sdcc-builder/build/sdcc-build/orig/sdcc/src/pic14/gen.c:7277:genCast
                      02741 ;;      1109 rIdx = r0x1059 
02EE                  02742 _00233_DS_
02EE   ???? ????      02743         BANKSEL r0x1011
02F0   08??           02744         MOVF    r0x1011,W
                      02745 ;; >>> /home/sdcc-builder/build/sdcc-build/orig/sdcc/src/pic14/gen.c:7278:genCast
                      02746 ;;      1109 rIdx = r0x1057 
02F1   00??           02747         MOVWF   r0x100F
                      02748 ;;; /home/sdcc-builder/build/sdcc-build/orig/sdcc/src/pic14/gen.c:2316:resultRemat *{*
                      02749 ;;; /home/sdcc-builder/build/sdcc-build/orig/sdcc/src/pic14/gen.c:2778:genGoto *{*
                      02750 ;; >>> /home/sdcc-builder/build/sdcc-build/orig/sdcc/src/pic14/gen.c:2780:genGoto
                      02751 ;; ***  popGetLabel  key=6, label offset 112
                      02752         .line   98; "gpio.c"    break ;
02F2   2???           02753         GOTO    _00218_DS_
                      02754 ;;; /home/sdcc-builder/build/sdcc-build/orig/sdcc/src/pic14/gen.c:2316:resultRemat *{*
                      02755 ;;; /home/sdcc-builder/build/sdcc-build/orig/sdcc/src/pic14/gen.c:2760:genLabel *{*
                      02756 ;; ***  genLabel  2763
                      02757 ;;; /home/sdcc-builder/build/sdcc-build/orig/sdcc/src/pic14/gen.c:2316:resultRemat *{*
                      02758 ;;; /home/sdcc-builder/build/sdcc-build/orig/sdcc/src/pic14/gen.c:5418:genGenericShift *{*
                      02759 ;; ***  genGenericShift  5421
                      02760 ;;      694 register type nRegs=1
                      02761 ;;      694 register type nRegs=2
                      02762 ;; ***  mov2w  1381  offset=1
                      02763 ;; >>> /home/sdcc-builder/build/sdcc-build/orig/sdcc/src/pic14/gen.c:1384:mov2w
02F3                  02764 _00215_DS_
                      02765         .line   100; "gpio.c"   ret = GET_BIT(PORTC,pin) ;
02F3   3000           02766         MOVLW   0x00
                      02767 ;; >>> /home/sdcc-builder/build/sdcc-build/orig/sdcc/src/pic14/gen.c:1393:movwf
                      02768 ;;      1109 rIdx = r0x1058 
02F4   ???? ????      02769         BANKSEL r0x1010
02F6   00??           02770         MOVWF   r0x1010
                      02771 ;; ***  mov2w  1381  offset=0
                      02772 ;; >>> /home/sdcc-builder/build/sdcc-build/orig/sdcc/src/pic14/gen.c:1384:mov2w
02F7   3001           02773         MOVLW   0x01
                      02774 ;; >>> /home/sdcc-builder/build/sdcc-build/orig/sdcc/src/pic14/gen.c:1393:movwf
                      02775 ;;      1109 rIdx = r0x1055 
02F8   00??           02776         MOVWF   r0x100D
                      02777 ;; ***  addSign  861
                      02778 ;;; /home/sdcc-builder/build/sdcc-build/orig/sdcc/src/pic14/genarith.c:862:addSign *{*
                      02779 ;; ***  mov2w  1381  offset=0
                      02780 ;; >>> /home/sdcc-builder/build/sdcc-build/orig/sdcc/src/pic14/gen.c:1386:mov2w
                      02781 ;;      1109 rIdx = r0x1056 
02F9   08??           02782         MOVF    r0x100E,W
                      02783 ;; >>> /home/sdcc-builder/build/sdcc-build/orig/sdcc/src/pic14/gen.c:5492:genGenericShift
02FA   3C00           02784         SUBLW   0x00
                      02785 ;; >>> /home/sdcc-builder/build/sdcc-build/orig/sdcc/src/pic14/gen.c:5494:genGenericShift
02FB   1903           02786         BTFSC   STATUS,2
                      02787 ;; >>> /home/sdcc-builder/build/sdcc-build/orig/sdcc/src/pic14/gen.c:5495:genGenericShift
                      02788 ;; ***  popGetLabel  key=23, label offset 112
02FC   2???           02789         GOTO    _00235_DS_
                      02790 ;;; /home/sdcc-builder/build/sdcc-build/orig/sdcc/src/pic14/gen.c:5369:genMultiAsm *{*
                      02791 ;; ***  genMultiAsm  5370
                      02792 ;; >>> /home/sdcc-builder/build/sdcc-build/orig/sdcc/src/pic14/gen.c:5387:genMultiAsm
gpasm-1.4.0 #1106 (Oct  6 2014) obj\Debug\gpi   5-11-2022  02:00:26         PAGE 54


LOC    OBJECT CODE    LINE  SOURCE TEXT
  VALUE

                      02793 ;;      1109 rIdx = r0x1055 
02FD                  02794 _00234_DS_
02FD   ???? ????      02795         BANKSEL r0x100D
02FF   0D??           02796         RLF     r0x100D,F
                      02797 ;; >>> /home/sdcc-builder/build/sdcc-build/orig/sdcc/src/pic14/gen.c:5387:genMultiAsm
                      02798 ;;      1109 rIdx = r0x1058 
0300   0D??           02799         RLF     r0x1010,F
                      02800 ;; >>> /home/sdcc-builder/build/sdcc-build/orig/sdcc/src/pic14/gen.c:5501:genGenericShift
0301   3E01           02801         ADDLW   0x01
                      02802 ;; >>> /home/sdcc-builder/build/sdcc-build/orig/sdcc/src/pic14/gen.c:5502:genGenericShift
0302   1C03           02803         BTFSS   STATUS,0
                      02804 ;; >>> /home/sdcc-builder/build/sdcc-build/orig/sdcc/src/pic14/gen.c:5503:genGenericShift
                      02805 ;; ***  popGetLabel  key=22, label offset 112
0303   2???           02806         GOTO    _00234_DS_
                      02807 ;;; /home/sdcc-builder/build/sdcc-build/orig/sdcc/src/pic14/gen.c:2316:resultRemat *{*
                      02808 ;;; /home/sdcc-builder/build/sdcc-build/orig/sdcc/src/pic14/gen.c:7120:genCast *{*
                      02809 ;; ***  genCast  7121
                      02810 ;; ***  aopForSym 315
                      02811 ;;      327 sym->rname = _PORTC, size = 1
                      02812 ;;      694 register type nRegs=2
                      02813 ;;      line = 7129 result AOP_REG=r0x1059, size=2, left -=-, size=0, right AOP_DIR=_PORTC, size=1
                      02814 ;; >>> /home/sdcc-builder/build/sdcc-build/orig/sdcc/src/pic14/gen.c:7298:genCast
                      02815 ;;      1009
                      02816 ;;      1028  _PORTC   offset=0
0304                  02817 _00235_DS_
0304   ???? ????      02818         BANKSEL _PORTC
0306   08??           02819         MOVF    _PORTC,W
                      02820 ;; >>> /home/sdcc-builder/build/sdcc-build/orig/sdcc/src/pic14/gen.c:7299:genCast
                      02821 ;;      1109 rIdx = r0x1059 
0307   ???? ????      02822         BANKSEL r0x1011
0309   00??           02823         MOVWF   r0x1011
                      02824 ;; ***  addSign  861
                      02825 ;;; /home/sdcc-builder/build/sdcc-build/orig/sdcc/src/pic14/genarith.c:862:addSign *{*
                      02826 ;; >>> /home/sdcc-builder/build/sdcc-build/orig/sdcc/src/pic14/genarith.c:881:addSign
                      02827 ;;      1109 rIdx = r0x105A 
030A   01??           02828         CLRF    r0x1012
                      02829 ;;; /home/sdcc-builder/build/sdcc-build/orig/sdcc/src/pic14/gen.c:2316:resultRemat *{*
                      02830 ;;; /home/sdcc-builder/build/sdcc-build/orig/sdcc/src/pic14/gen.c:3919:genAnd *{*
                      02831 ;; ***  genAnd  3920
                      02832 ;;      694 register type nRegs=2
                      02833 ;;      694 register type nRegs=2
                      02834 ;;      694 register type nRegs=2
                      02835 ;;      line = 3955 result AOP_REG=r0x1055, size=2, left AOP_REG=r0x1055, size=2, right AOP_REG=r0x1059,
                             size=2
                      02836 ;; >>> /home/sdcc-builder/build/sdcc-build/orig/sdcc/src/pic14/gen.c:4137:genAnd
                      02837 ;;      1109 rIdx = r0x1059 
030B   08??           02838         MOVF    r0x1011,W
                      02839 ;; >>> /home/sdcc-builder/build/sdcc-build/orig/sdcc/src/pic14/gen.c:4138:genAnd
                      02840 ;;      1109 rIdx = r0x1055 
030C   05??           02841         ANDWF   r0x100D,F
                      02842 ;; >>> /home/sdcc-builder/build/sdcc-build/orig/sdcc/src/pic14/gen.c:4137:genAnd
                      02843 ;;      1109 rIdx = r0x105A 
030D   3000           02844         MOVLW   0x00
gpasm-1.4.0 #1106 (Oct  6 2014) obj\Debug\gpi   5-11-2022  02:00:26         PAGE 55


LOC    OBJECT CODE    LINE  SOURCE TEXT
  VALUE

                      02845 ;; >>> /home/sdcc-builder/build/sdcc-build/orig/sdcc/src/pic14/gen.c:4138:genAnd
                      02846 ;;      1109 rIdx = r0x1058 
030E   05??           02847         ANDWF   r0x1010,F
                      02848 ;;; /home/sdcc-builder/build/sdcc-build/orig/sdcc/src/pic14/gen.c:2316:resultRemat *{*
                      02849 ;;; /home/sdcc-builder/build/sdcc-build/orig/sdcc/src/pic14/gen.c:5418:genGenericShift *{*
                      02850 ;; ***  genGenericShift  5421
                      02851 ;;      694 register type nRegs=1
                      02852 ;;      694 register type nRegs=2
                      02853 ;;      694 register type nRegs=2
                      02854 ;; ***  mov2w  1381  offset=1
                      02855 ;; >>> /home/sdcc-builder/build/sdcc-build/orig/sdcc/src/pic14/gen.c:1386:mov2w
                      02856 ;;      1109 rIdx = r0x1058 
030F   08??           02857         MOVF    r0x1010,W
                      02858 ;; >>> /home/sdcc-builder/build/sdcc-build/orig/sdcc/src/pic14/gen.c:1393:movwf
                      02859 ;;      1109 rIdx = r0x105A 
0310   00??           02860         MOVWF   r0x1012
                      02861 ;; ***  mov2w  1381  offset=0
                      02862 ;; >>> /home/sdcc-builder/build/sdcc-build/orig/sdcc/src/pic14/gen.c:1386:mov2w
                      02863 ;;      1109 rIdx = r0x1055 
0311   08??           02864         MOVF    r0x100D,W
                      02865 ;; >>> /home/sdcc-builder/build/sdcc-build/orig/sdcc/src/pic14/gen.c:1393:movwf
                      02866 ;;      1109 rIdx = r0x1059 
0312   00??           02867         MOVWF   r0x1011
                      02868 ;; ***  addSign  861
                      02869 ;;; /home/sdcc-builder/build/sdcc-build/orig/sdcc/src/pic14/genarith.c:862:addSign *{*
                      02870 ;; ***  mov2w  1381  offset=0
                      02871 ;; >>> /home/sdcc-builder/build/sdcc-build/orig/sdcc/src/pic14/gen.c:1386:mov2w
                      02872 ;;      1109 rIdx = r0x1056 
0313   08??           02873         MOVF    r0x100E,W
                      02874 ;; >>> /home/sdcc-builder/build/sdcc-build/orig/sdcc/src/pic14/gen.c:5492:genGenericShift
0314   3C00           02875         SUBLW   0x00
                      02876 ;; >>> /home/sdcc-builder/build/sdcc-build/orig/sdcc/src/pic14/gen.c:5494:genGenericShift
0315   1903           02877         BTFSC   STATUS,2
                      02878 ;; >>> /home/sdcc-builder/build/sdcc-build/orig/sdcc/src/pic14/gen.c:5495:genGenericShift
                      02879 ;; ***  popGetLabel  key=25, label offset 112
0316   2???           02880         GOTO    _00237_DS_
                      02881 ;;; /home/sdcc-builder/build/sdcc-build/orig/sdcc/src/pic14/gen.c:5400:loadSignToC *{*
                      02882 ;; >>> /home/sdcc-builder/build/sdcc-build/orig/sdcc/src/pic14/gen.c:5403:loadSignToC
0317                  02883 _00236_DS_
0317   1003           02884         BCF     STATUS,0
                      02885 ;; >>> /home/sdcc-builder/build/sdcc-build/orig/sdcc/src/pic14/gen.c:5404:loadSignToC
0318   ???? ????      02886         BANKSEL r0x1012
031A   1B??           02887         BTFSC   r0x1012,7
                      02888 ;; >>> /home/sdcc-builder/build/sdcc-build/orig/sdcc/src/pic14/gen.c:5405:loadSignToC
031B   1403           02889         BSF     STATUS,0
                      02890 ;;; /home/sdcc-builder/build/sdcc-build/orig/sdcc/src/pic14/gen.c:5369:genMultiAsm *{*
                      02891 ;; ***  genMultiAsm  5370
                      02892 ;; >>> /home/sdcc-builder/build/sdcc-build/orig/sdcc/src/pic14/gen.c:5387:genMultiAsm
                      02893 ;;      1109 rIdx = r0x105A 
031C   0C??           02894         RRF     r0x1012,F
                      02895 ;; >>> /home/sdcc-builder/build/sdcc-build/orig/sdcc/src/pic14/gen.c:5387:genMultiAsm
                      02896 ;;      1109 rIdx = r0x1059 
031D   0C??           02897         RRF     r0x1011,F
gpasm-1.4.0 #1106 (Oct  6 2014) obj\Debug\gpi   5-11-2022  02:00:26         PAGE 56


LOC    OBJECT CODE    LINE  SOURCE TEXT
  VALUE

                      02898 ;; >>> /home/sdcc-builder/build/sdcc-build/orig/sdcc/src/pic14/gen.c:5501:genGenericShift
031E   3E01           02899         ADDLW   0x01
                      02900 ;; >>> /home/sdcc-builder/build/sdcc-build/orig/sdcc/src/pic14/gen.c:5502:genGenericShift
031F   1C03           02901         BTFSS   STATUS,0
                      02902 ;; >>> /home/sdcc-builder/build/sdcc-build/orig/sdcc/src/pic14/gen.c:5503:genGenericShift
                      02903 ;; ***  popGetLabel  key=24, label offset 112
0320   2???           02904         GOTO    _00236_DS_
                      02905 ;;; /home/sdcc-builder/build/sdcc-build/orig/sdcc/src/pic14/gen.c:2316:resultRemat *{*
                      02906 ;;; /home/sdcc-builder/build/sdcc-build/orig/sdcc/src/pic14/gen.c:7120:genCast *{*
                      02907 ;; ***  genCast  7121
                      02908 ;;      694 register type nRegs=2
                      02909 ;;      694 register type nRegs=1
                      02910 ;;      line = 7129 result AOP_REG=r0x1057, size=1, left -=-, size=0, right AOP_REG=r0x1059, size=2
                      02911 ;; ***  genCast  7253
                      02912 ;; >>> /home/sdcc-builder/build/sdcc-build/orig/sdcc/src/pic14/gen.c:7277:genCast
                      02913 ;;      1109 rIdx = r0x1059 
0321                  02914 _00237_DS_
0321   ???? ????      02915         BANKSEL r0x1011
0323   08??           02916         MOVF    r0x1011,W
                      02917 ;; >>> /home/sdcc-builder/build/sdcc-build/orig/sdcc/src/pic14/gen.c:7278:genCast
                      02918 ;;      1109 rIdx = r0x1057 
0324   00??           02919         MOVWF   r0x100F
                      02920 ;;; /home/sdcc-builder/build/sdcc-build/orig/sdcc/src/pic14/gen.c:2316:resultRemat *{*
                      02921 ;;; /home/sdcc-builder/build/sdcc-build/orig/sdcc/src/pic14/gen.c:2778:genGoto *{*
                      02922 ;; >>> /home/sdcc-builder/build/sdcc-build/orig/sdcc/src/pic14/gen.c:2780:genGoto
                      02923 ;; ***  popGetLabel  key=6, label offset 112
                      02924         .line   101; "gpio.c"   break ;
0325   2???           02925         GOTO    _00218_DS_
                      02926 ;;; /home/sdcc-builder/build/sdcc-build/orig/sdcc/src/pic14/gen.c:2316:resultRemat *{*
                      02927 ;;; /home/sdcc-builder/build/sdcc-build/orig/sdcc/src/pic14/gen.c:2760:genLabel *{*
                      02928 ;; ***  genLabel  2763
                      02929 ;;; /home/sdcc-builder/build/sdcc-build/orig/sdcc/src/pic14/gen.c:2316:resultRemat *{*
                      02930 ;;; /home/sdcc-builder/build/sdcc-build/orig/sdcc/src/pic14/gen.c:5418:genGenericShift *{*
                      02931 ;; ***  genGenericShift  5421
                      02932 ;;      694 register type nRegs=1
                      02933 ;;      694 register type nRegs=2
                      02934 ;; ***  mov2w  1381  offset=1
                      02935 ;; >>> /home/sdcc-builder/build/sdcc-build/orig/sdcc/src/pic14/gen.c:1384:mov2w
0326                  02936 _00216_DS_
                      02937         .line   103; "gpio.c"   ret = GET_BIT(PORTD,pin) ;
0326   3000           02938         MOVLW   0x00
                      02939 ;; >>> /home/sdcc-builder/build/sdcc-build/orig/sdcc/src/pic14/gen.c:1393:movwf
                      02940 ;;      1109 rIdx = r0x1058 
0327   ???? ????      02941         BANKSEL r0x1010
0329   00??           02942         MOVWF   r0x1010
                      02943 ;; ***  mov2w  1381  offset=0
                      02944 ;; >>> /home/sdcc-builder/build/sdcc-build/orig/sdcc/src/pic14/gen.c:1384:mov2w
032A   3001           02945         MOVLW   0x01
                      02946 ;; >>> /home/sdcc-builder/build/sdcc-build/orig/sdcc/src/pic14/gen.c:1393:movwf
                      02947 ;;      1109 rIdx = r0x1055 
032B   00??           02948         MOVWF   r0x100D
                      02949 ;; ***  addSign  861
                      02950 ;;; /home/sdcc-builder/build/sdcc-build/orig/sdcc/src/pic14/genarith.c:862:addSign *{*
gpasm-1.4.0 #1106 (Oct  6 2014) obj\Debug\gpi   5-11-2022  02:00:26         PAGE 57


LOC    OBJECT CODE    LINE  SOURCE TEXT
  VALUE

                      02951 ;; ***  mov2w  1381  offset=0
                      02952 ;; >>> /home/sdcc-builder/build/sdcc-build/orig/sdcc/src/pic14/gen.c:1386:mov2w
                      02953 ;;      1109 rIdx = r0x1056 
032C   08??           02954         MOVF    r0x100E,W
                      02955 ;; >>> /home/sdcc-builder/build/sdcc-build/orig/sdcc/src/pic14/gen.c:5492:genGenericShift
032D   3C00           02956         SUBLW   0x00
                      02957 ;; >>> /home/sdcc-builder/build/sdcc-build/orig/sdcc/src/pic14/gen.c:5494:genGenericShift
032E   1903           02958         BTFSC   STATUS,2
                      02959 ;; >>> /home/sdcc-builder/build/sdcc-build/orig/sdcc/src/pic14/gen.c:5495:genGenericShift
                      02960 ;; ***  popGetLabel  key=27, label offset 112
032F   2???           02961         GOTO    _00239_DS_
                      02962 ;;; /home/sdcc-builder/build/sdcc-build/orig/sdcc/src/pic14/gen.c:5369:genMultiAsm *{*
                      02963 ;; ***  genMultiAsm  5370
                      02964 ;; >>> /home/sdcc-builder/build/sdcc-build/orig/sdcc/src/pic14/gen.c:5387:genMultiAsm
                      02965 ;;      1109 rIdx = r0x1055 
0330                  02966 _00238_DS_
0330   ???? ????      02967         BANKSEL r0x100D
0332   0D??           02968         RLF     r0x100D,F
                      02969 ;; >>> /home/sdcc-builder/build/sdcc-build/orig/sdcc/src/pic14/gen.c:5387:genMultiAsm
                      02970 ;;      1109 rIdx = r0x1058 
0333   0D??           02971         RLF     r0x1010,F
                      02972 ;; >>> /home/sdcc-builder/build/sdcc-build/orig/sdcc/src/pic14/gen.c:5501:genGenericShift
0334   3E01           02973         ADDLW   0x01
                      02974 ;; >>> /home/sdcc-builder/build/sdcc-build/orig/sdcc/src/pic14/gen.c:5502:genGenericShift
0335   1C03           02975         BTFSS   STATUS,0
                      02976 ;; >>> /home/sdcc-builder/build/sdcc-build/orig/sdcc/src/pic14/gen.c:5503:genGenericShift
                      02977 ;; ***  popGetLabel  key=26, label offset 112
0336   2???           02978         GOTO    _00238_DS_
                      02979 ;;; /home/sdcc-builder/build/sdcc-build/orig/sdcc/src/pic14/gen.c:2316:resultRemat *{*
                      02980 ;;; /home/sdcc-builder/build/sdcc-build/orig/sdcc/src/pic14/gen.c:7120:genCast *{*
                      02981 ;; ***  genCast  7121
                      02982 ;; ***  aopForSym 315
                      02983 ;;      327 sym->rname = _PORTD, size = 1
                      02984 ;;      694 register type nRegs=2
                      02985 ;;      line = 7129 result AOP_REG=r0x1059, size=2, left -=-, size=0, right AOP_DIR=_PORTD, size=1
                      02986 ;; >>> /home/sdcc-builder/build/sdcc-build/orig/sdcc/src/pic14/gen.c:7298:genCast
                      02987 ;;      1009
                      02988 ;;      1028  _PORTD   offset=0
0337                  02989 _00239_DS_
0337   ???? ????      02990         BANKSEL _PORTD
0339   08??           02991         MOVF    _PORTD,W
                      02992 ;; >>> /home/sdcc-builder/build/sdcc-build/orig/sdcc/src/pic14/gen.c:7299:genCast
                      02993 ;;      1109 rIdx = r0x1059 
033A   ???? ????      02994         BANKSEL r0x1011
033C   00??           02995         MOVWF   r0x1011
                      02996 ;; ***  addSign  861
                      02997 ;;; /home/sdcc-builder/build/sdcc-build/orig/sdcc/src/pic14/genarith.c:862:addSign *{*
                      02998 ;; >>> /home/sdcc-builder/build/sdcc-build/orig/sdcc/src/pic14/genarith.c:881:addSign
                      02999 ;;      1109 rIdx = r0x105A 
033D   01??           03000         CLRF    r0x1012
                      03001 ;;; /home/sdcc-builder/build/sdcc-build/orig/sdcc/src/pic14/gen.c:2316:resultRemat *{*
                      03002 ;;; /home/sdcc-builder/build/sdcc-build/orig/sdcc/src/pic14/gen.c:3919:genAnd *{*
                      03003 ;; ***  genAnd  3920
gpasm-1.4.0 #1106 (Oct  6 2014) obj\Debug\gpi   5-11-2022  02:00:26         PAGE 58


LOC    OBJECT CODE    LINE  SOURCE TEXT
  VALUE

                      03004 ;;      694 register type nRegs=2
                      03005 ;;      694 register type nRegs=2
                      03006 ;;      694 register type nRegs=2
                      03007 ;;      line = 3955 result AOP_REG=r0x1055, size=2, left AOP_REG=r0x1055, size=2, right AOP_REG=r0x1059,
                             size=2
                      03008 ;; >>> /home/sdcc-builder/build/sdcc-build/orig/sdcc/src/pic14/gen.c:4137:genAnd
                      03009 ;;      1109 rIdx = r0x1059 
033E   08??           03010         MOVF    r0x1011,W
                      03011 ;; >>> /home/sdcc-builder/build/sdcc-build/orig/sdcc/src/pic14/gen.c:4138:genAnd
                      03012 ;;      1109 rIdx = r0x1055 
033F   05??           03013         ANDWF   r0x100D,F
                      03014 ;; >>> /home/sdcc-builder/build/sdcc-build/orig/sdcc/src/pic14/gen.c:4137:genAnd
                      03015 ;;      1109 rIdx = r0x105A 
0340   3000           03016         MOVLW   0x00
                      03017 ;; >>> /home/sdcc-builder/build/sdcc-build/orig/sdcc/src/pic14/gen.c:4138:genAnd
                      03018 ;;      1109 rIdx = r0x1058 
0341   05??           03019         ANDWF   r0x1010,F
                      03020 ;;; /home/sdcc-builder/build/sdcc-build/orig/sdcc/src/pic14/gen.c:2316:resultRemat *{*
                      03021 ;;; /home/sdcc-builder/build/sdcc-build/orig/sdcc/src/pic14/gen.c:5418:genGenericShift *{*
                      03022 ;; ***  genGenericShift  5421
                      03023 ;;      694 register type nRegs=1
                      03024 ;;      694 register type nRegs=2
                      03025 ;;      694 register type nRegs=2
                      03026 ;; ***  mov2w  1381  offset=1
                      03027 ;; >>> /home/sdcc-builder/build/sdcc-build/orig/sdcc/src/pic14/gen.c:1386:mov2w
                      03028 ;;      1109 rIdx = r0x1058 
0342   08??           03029         MOVF    r0x1010,W
                      03030 ;; >>> /home/sdcc-builder/build/sdcc-build/orig/sdcc/src/pic14/gen.c:1393:movwf
                      03031 ;;      1109 rIdx = r0x105A 
0343   00??           03032         MOVWF   r0x1012
                      03033 ;; ***  mov2w  1381  offset=0
                      03034 ;; >>> /home/sdcc-builder/build/sdcc-build/orig/sdcc/src/pic14/gen.c:1386:mov2w
                      03035 ;;      1109 rIdx = r0x1055 
0344   08??           03036         MOVF    r0x100D,W
                      03037 ;; >>> /home/sdcc-builder/build/sdcc-build/orig/sdcc/src/pic14/gen.c:1393:movwf
                      03038 ;;      1109 rIdx = r0x1059 
0345   00??           03039         MOVWF   r0x1011
                      03040 ;; ***  addSign  861
                      03041 ;;; /home/sdcc-builder/build/sdcc-build/orig/sdcc/src/pic14/genarith.c:862:addSign *{*
                      03042 ;; ***  mov2w  1381  offset=0
                      03043 ;; >>> /home/sdcc-builder/build/sdcc-build/orig/sdcc/src/pic14/gen.c:1386:mov2w
                      03044 ;;      1109 rIdx = r0x1056 
0346   08??           03045         MOVF    r0x100E,W
                      03046 ;; >>> /home/sdcc-builder/build/sdcc-build/orig/sdcc/src/pic14/gen.c:5492:genGenericShift
0347   3C00           03047         SUBLW   0x00
                      03048 ;; >>> /home/sdcc-builder/build/sdcc-build/orig/sdcc/src/pic14/gen.c:5494:genGenericShift
0348   1903           03049         BTFSC   STATUS,2
                      03050 ;; >>> /home/sdcc-builder/build/sdcc-build/orig/sdcc/src/pic14/gen.c:5495:genGenericShift
                      03051 ;; ***  popGetLabel  key=29, label offset 112
0349   2???           03052         GOTO    _00241_DS_
                      03053 ;;; /home/sdcc-builder/build/sdcc-build/orig/sdcc/src/pic14/gen.c:5400:loadSignToC *{*
                      03054 ;; >>> /home/sdcc-builder/build/sdcc-build/orig/sdcc/src/pic14/gen.c:5403:loadSignToC
034A                  03055 _00240_DS_
gpasm-1.4.0 #1106 (Oct  6 2014) obj\Debug\gpi   5-11-2022  02:00:26         PAGE 59


LOC    OBJECT CODE    LINE  SOURCE TEXT
  VALUE

034A   1003           03056         BCF     STATUS,0
                      03057 ;; >>> /home/sdcc-builder/build/sdcc-build/orig/sdcc/src/pic14/gen.c:5404:loadSignToC
034B   ???? ????      03058         BANKSEL r0x1012
034D   1B??           03059         BTFSC   r0x1012,7
                      03060 ;; >>> /home/sdcc-builder/build/sdcc-build/orig/sdcc/src/pic14/gen.c:5405:loadSignToC
034E   1403           03061         BSF     STATUS,0
                      03062 ;;; /home/sdcc-builder/build/sdcc-build/orig/sdcc/src/pic14/gen.c:5369:genMultiAsm *{*
                      03063 ;; ***  genMultiAsm  5370
                      03064 ;; >>> /home/sdcc-builder/build/sdcc-build/orig/sdcc/src/pic14/gen.c:5387:genMultiAsm
                      03065 ;;      1109 rIdx = r0x105A 
034F   0C??           03066         RRF     r0x1012,F
                      03067 ;; >>> /home/sdcc-builder/build/sdcc-build/orig/sdcc/src/pic14/gen.c:5387:genMultiAsm
                      03068 ;;      1109 rIdx = r0x1059 
0350   0C??           03069         RRF     r0x1011,F
                      03070 ;; >>> /home/sdcc-builder/build/sdcc-build/orig/sdcc/src/pic14/gen.c:5501:genGenericShift
0351   3E01           03071         ADDLW   0x01
                      03072 ;; >>> /home/sdcc-builder/build/sdcc-build/orig/sdcc/src/pic14/gen.c:5502:genGenericShift
0352   1C03           03073         BTFSS   STATUS,0
                      03074 ;; >>> /home/sdcc-builder/build/sdcc-build/orig/sdcc/src/pic14/gen.c:5503:genGenericShift
                      03075 ;; ***  popGetLabel  key=28, label offset 112
0353   2???           03076         GOTO    _00240_DS_
                      03077 ;;; /home/sdcc-builder/build/sdcc-build/orig/sdcc/src/pic14/gen.c:2316:resultRemat *{*
                      03078 ;;; /home/sdcc-builder/build/sdcc-build/orig/sdcc/src/pic14/gen.c:7120:genCast *{*
                      03079 ;; ***  genCast  7121
                      03080 ;;      694 register type nRegs=2
                      03081 ;;      694 register type nRegs=1
                      03082 ;;      line = 7129 result AOP_REG=r0x1057, size=1, left -=-, size=0, right AOP_REG=r0x1059, size=2
                      03083 ;; ***  genCast  7253
                      03084 ;; >>> /home/sdcc-builder/build/sdcc-build/orig/sdcc/src/pic14/gen.c:7277:genCast
                      03085 ;;      1109 rIdx = r0x1059 
0354                  03086 _00241_DS_
0354   ???? ????      03087         BANKSEL r0x1011
0356   08??           03088         MOVF    r0x1011,W
                      03089 ;; >>> /home/sdcc-builder/build/sdcc-build/orig/sdcc/src/pic14/gen.c:7278:genCast
                      03090 ;;      1109 rIdx = r0x1057 
0357   00??           03091         MOVWF   r0x100F
                      03092 ;;; /home/sdcc-builder/build/sdcc-build/orig/sdcc/src/pic14/gen.c:2316:resultRemat *{*
                      03093 ;;; /home/sdcc-builder/build/sdcc-build/orig/sdcc/src/pic14/gen.c:2778:genGoto *{*
                      03094 ;; >>> /home/sdcc-builder/build/sdcc-build/orig/sdcc/src/pic14/gen.c:2780:genGoto
                      03095 ;; ***  popGetLabel  key=6, label offset 112
                      03096         .line   104; "gpio.c"   break ;
0358   2???           03097         GOTO    _00218_DS_
                      03098 ;;; /home/sdcc-builder/build/sdcc-build/orig/sdcc/src/pic14/gen.c:2316:resultRemat *{*
                      03099 ;;; /home/sdcc-builder/build/sdcc-build/orig/sdcc/src/pic14/gen.c:2760:genLabel *{*
                      03100 ;; ***  genLabel  2763
                      03101 ;;; /home/sdcc-builder/build/sdcc-build/orig/sdcc/src/pic14/gen.c:2316:resultRemat *{*
                      03102 ;;; /home/sdcc-builder/build/sdcc-build/orig/sdcc/src/pic14/gen.c:5418:genGenericShift *{*
                      03103 ;; ***  genGenericShift  5421
                      03104 ;;      694 register type nRegs=1
                      03105 ;;      694 register type nRegs=2
                      03106 ;; ***  mov2w  1381  offset=1
                      03107 ;; >>> /home/sdcc-builder/build/sdcc-build/orig/sdcc/src/pic14/gen.c:1384:mov2w
0359                  03108 _00217_DS_
gpasm-1.4.0 #1106 (Oct  6 2014) obj\Debug\gpi   5-11-2022  02:00:26         PAGE 60


LOC    OBJECT CODE    LINE  SOURCE TEXT
  VALUE

                      03109         .line   106; "gpio.c"   ret = GET_BIT(PORTE,pin) ;
0359   3000           03110         MOVLW   0x00
                      03111 ;; >>> /home/sdcc-builder/build/sdcc-build/orig/sdcc/src/pic14/gen.c:1393:movwf
                      03112 ;;      1109 rIdx = r0x1058 
035A   ???? ????      03113         BANKSEL r0x1010
035C   00??           03114         MOVWF   r0x1010
                      03115 ;; ***  mov2w  1381  offset=0
                      03116 ;; >>> /home/sdcc-builder/build/sdcc-build/orig/sdcc/src/pic14/gen.c:1384:mov2w
035D   3001           03117         MOVLW   0x01
                      03118 ;; >>> /home/sdcc-builder/build/sdcc-build/orig/sdcc/src/pic14/gen.c:1393:movwf
                      03119 ;;      1109 rIdx = r0x1055 
035E   00??           03120         MOVWF   r0x100D
                      03121 ;; ***  addSign  861
                      03122 ;;; /home/sdcc-builder/build/sdcc-build/orig/sdcc/src/pic14/genarith.c:862:addSign *{*
                      03123 ;; ***  mov2w  1381  offset=0
                      03124 ;; >>> /home/sdcc-builder/build/sdcc-build/orig/sdcc/src/pic14/gen.c:1386:mov2w
                      03125 ;;      1109 rIdx = r0x1056 
035F   08??           03126         MOVF    r0x100E,W
                      03127 ;; >>> /home/sdcc-builder/build/sdcc-build/orig/sdcc/src/pic14/gen.c:5492:genGenericShift
0360   3C00           03128         SUBLW   0x00
                      03129 ;; >>> /home/sdcc-builder/build/sdcc-build/orig/sdcc/src/pic14/gen.c:5494:genGenericShift
0361   1903           03130         BTFSC   STATUS,2
                      03131 ;; >>> /home/sdcc-builder/build/sdcc-build/orig/sdcc/src/pic14/gen.c:5495:genGenericShift
                      03132 ;; ***  popGetLabel  key=31, label offset 112
0362   2???           03133         GOTO    _00243_DS_
                      03134 ;;; /home/sdcc-builder/build/sdcc-build/orig/sdcc/src/pic14/gen.c:5369:genMultiAsm *{*
                      03135 ;; ***  genMultiAsm  5370
                      03136 ;; >>> /home/sdcc-builder/build/sdcc-build/orig/sdcc/src/pic14/gen.c:5387:genMultiAsm
                      03137 ;;      1109 rIdx = r0x1055 
0363                  03138 _00242_DS_
0363   ???? ????      03139         BANKSEL r0x100D
0365   0D??           03140         RLF     r0x100D,F
                      03141 ;; >>> /home/sdcc-builder/build/sdcc-build/orig/sdcc/src/pic14/gen.c:5387:genMultiAsm
                      03142 ;;      1109 rIdx = r0x1058 
0366   0D??           03143         RLF     r0x1010,F
                      03144 ;; >>> /home/sdcc-builder/build/sdcc-build/orig/sdcc/src/pic14/gen.c:5501:genGenericShift
0367   3E01           03145         ADDLW   0x01
                      03146 ;; >>> /home/sdcc-builder/build/sdcc-build/orig/sdcc/src/pic14/gen.c:5502:genGenericShift
0368   1C03           03147         BTFSS   STATUS,0
                      03148 ;; >>> /home/sdcc-builder/build/sdcc-build/orig/sdcc/src/pic14/gen.c:5503:genGenericShift
                      03149 ;; ***  popGetLabel  key=30, label offset 112
0369   2???           03150         GOTO    _00242_DS_
                      03151 ;;; /home/sdcc-builder/build/sdcc-build/orig/sdcc/src/pic14/gen.c:2316:resultRemat *{*
                      03152 ;;; /home/sdcc-builder/build/sdcc-build/orig/sdcc/src/pic14/gen.c:7120:genCast *{*
                      03153 ;; ***  genCast  7121
                      03154 ;; ***  aopForSym 315
                      03155 ;;      327 sym->rname = _PORTE, size = 1
                      03156 ;;      694 register type nRegs=2
                      03157 ;;      line = 7129 result AOP_REG=r0x1059, size=2, left -=-, size=0, right AOP_DIR=_PORTE, size=1
                      03158 ;; >>> /home/sdcc-builder/build/sdcc-build/orig/sdcc/src/pic14/gen.c:7298:genCast
                      03159 ;;      1009
                      03160 ;;      1028  _PORTE   offset=0
036A                  03161 _00243_DS_
gpasm-1.4.0 #1106 (Oct  6 2014) obj\Debug\gpi   5-11-2022  02:00:26         PAGE 61


LOC    OBJECT CODE    LINE  SOURCE TEXT
  VALUE

036A   ???? ????      03162         BANKSEL _PORTE
036C   08??           03163         MOVF    _PORTE,W
                      03164 ;; >>> /home/sdcc-builder/build/sdcc-build/orig/sdcc/src/pic14/gen.c:7299:genCast
                      03165 ;;      1109 rIdx = r0x1059 
036D   ???? ????      03166         BANKSEL r0x1011
036F   00??           03167         MOVWF   r0x1011
                      03168 ;; ***  addSign  861
                      03169 ;;; /home/sdcc-builder/build/sdcc-build/orig/sdcc/src/pic14/genarith.c:862:addSign *{*
                      03170 ;; >>> /home/sdcc-builder/build/sdcc-build/orig/sdcc/src/pic14/genarith.c:881:addSign
                      03171 ;;      1109 rIdx = r0x105A 
0370   01??           03172         CLRF    r0x1012
                      03173 ;;; /home/sdcc-builder/build/sdcc-build/orig/sdcc/src/pic14/gen.c:2316:resultRemat *{*
                      03174 ;;; /home/sdcc-builder/build/sdcc-build/orig/sdcc/src/pic14/gen.c:3919:genAnd *{*
                      03175 ;; ***  genAnd  3920
                      03176 ;;      694 register type nRegs=2
                      03177 ;;      694 register type nRegs=2
                      03178 ;;      694 register type nRegs=2
                      03179 ;;      line = 3955 result AOP_REG=r0x1055, size=2, left AOP_REG=r0x1055, size=2, right AOP_REG=r0x1059,
                             size=2
                      03180 ;; >>> /home/sdcc-builder/build/sdcc-build/orig/sdcc/src/pic14/gen.c:4137:genAnd
                      03181 ;;      1109 rIdx = r0x1059 
0371   08??           03182         MOVF    r0x1011,W
                      03183 ;; >>> /home/sdcc-builder/build/sdcc-build/orig/sdcc/src/pic14/gen.c:4138:genAnd
                      03184 ;;      1109 rIdx = r0x1055 
0372   05??           03185         ANDWF   r0x100D,F
                      03186 ;; >>> /home/sdcc-builder/build/sdcc-build/orig/sdcc/src/pic14/gen.c:4137:genAnd
                      03187 ;;      1109 rIdx = r0x105A 
0373   3000           03188         MOVLW   0x00
                      03189 ;; >>> /home/sdcc-builder/build/sdcc-build/orig/sdcc/src/pic14/gen.c:4138:genAnd
                      03190 ;;      1109 rIdx = r0x1058 
0374   05??           03191         ANDWF   r0x1010,F
                      03192 ;;; /home/sdcc-builder/build/sdcc-build/orig/sdcc/src/pic14/gen.c:2316:resultRemat *{*
                      03193 ;;; /home/sdcc-builder/build/sdcc-build/orig/sdcc/src/pic14/gen.c:5418:genGenericShift *{*
                      03194 ;; ***  genGenericShift  5421
                      03195 ;;      694 register type nRegs=1
                      03196 ;;      694 register type nRegs=2
                      03197 ;;      694 register type nRegs=2
                      03198 ;; ***  mov2w  1381  offset=1
                      03199 ;; >>> /home/sdcc-builder/build/sdcc-build/orig/sdcc/src/pic14/gen.c:1386:mov2w
                      03200 ;;      1109 rIdx = r0x1058 
0375   08??           03201         MOVF    r0x1010,W
                      03202 ;; >>> /home/sdcc-builder/build/sdcc-build/orig/sdcc/src/pic14/gen.c:1393:movwf
                      03203 ;;      1109 rIdx = r0x105A 
0376   00??           03204         MOVWF   r0x1012
                      03205 ;; ***  mov2w  1381  offset=0
                      03206 ;; >>> /home/sdcc-builder/build/sdcc-build/orig/sdcc/src/pic14/gen.c:1386:mov2w
                      03207 ;;      1109 rIdx = r0x1055 
0377   08??           03208         MOVF    r0x100D,W
                      03209 ;; >>> /home/sdcc-builder/build/sdcc-build/orig/sdcc/src/pic14/gen.c:1393:movwf
                      03210 ;;      1109 rIdx = r0x1059 
0378   00??           03211         MOVWF   r0x1011
                      03212 ;; ***  addSign  861
                      03213 ;;; /home/sdcc-builder/build/sdcc-build/orig/sdcc/src/pic14/genarith.c:862:addSign *{*
gpasm-1.4.0 #1106 (Oct  6 2014) obj\Debug\gpi   5-11-2022  02:00:26         PAGE 62


LOC    OBJECT CODE    LINE  SOURCE TEXT
  VALUE

                      03214 ;; ***  mov2w  1381  offset=0
                      03215 ;; >>> /home/sdcc-builder/build/sdcc-build/orig/sdcc/src/pic14/gen.c:1386:mov2w
                      03216 ;;      1109 rIdx = r0x1056 
0379   08??           03217         MOVF    r0x100E,W
                      03218 ;; >>> /home/sdcc-builder/build/sdcc-build/orig/sdcc/src/pic14/gen.c:5492:genGenericShift
037A   3C00           03219         SUBLW   0x00
                      03220 ;; >>> /home/sdcc-builder/build/sdcc-build/orig/sdcc/src/pic14/gen.c:5494:genGenericShift
037B   1903           03221         BTFSC   STATUS,2
                      03222 ;; >>> /home/sdcc-builder/build/sdcc-build/orig/sdcc/src/pic14/gen.c:5495:genGenericShift
                      03223 ;; ***  popGetLabel  key=33, label offset 112
037C   2???           03224         GOTO    _00245_DS_
                      03225 ;;; /home/sdcc-builder/build/sdcc-build/orig/sdcc/src/pic14/gen.c:5400:loadSignToC *{*
                      03226 ;; >>> /home/sdcc-builder/build/sdcc-build/orig/sdcc/src/pic14/gen.c:5403:loadSignToC
037D                  03227 _00244_DS_
037D   1003           03228         BCF     STATUS,0
                      03229 ;; >>> /home/sdcc-builder/build/sdcc-build/orig/sdcc/src/pic14/gen.c:5404:loadSignToC
037E   ???? ????      03230         BANKSEL r0x1012
0380   1B??           03231         BTFSC   r0x1012,7
                      03232 ;; >>> /home/sdcc-builder/build/sdcc-build/orig/sdcc/src/pic14/gen.c:5405:loadSignToC
0381   1403           03233         BSF     STATUS,0
                      03234 ;;; /home/sdcc-builder/build/sdcc-build/orig/sdcc/src/pic14/gen.c:5369:genMultiAsm *{*
                      03235 ;; ***  genMultiAsm  5370
                      03236 ;; >>> /home/sdcc-builder/build/sdcc-build/orig/sdcc/src/pic14/gen.c:5387:genMultiAsm
                      03237 ;;      1109 rIdx = r0x105A 
0382   0C??           03238         RRF     r0x1012,F
                      03239 ;; >>> /home/sdcc-builder/build/sdcc-build/orig/sdcc/src/pic14/gen.c:5387:genMultiAsm
                      03240 ;;      1109 rIdx = r0x1059 
0383   0C??           03241         RRF     r0x1011,F
                      03242 ;; >>> /home/sdcc-builder/build/sdcc-build/orig/sdcc/src/pic14/gen.c:5501:genGenericShift
0384   3E01           03243         ADDLW   0x01
                      03244 ;; >>> /home/sdcc-builder/build/sdcc-build/orig/sdcc/src/pic14/gen.c:5502:genGenericShift
0385   1C03           03245         BTFSS   STATUS,0
                      03246 ;; >>> /home/sdcc-builder/build/sdcc-build/orig/sdcc/src/pic14/gen.c:5503:genGenericShift
                      03247 ;; ***  popGetLabel  key=32, label offset 112
0386   2???           03248         GOTO    _00244_DS_
                      03249 ;;; /home/sdcc-builder/build/sdcc-build/orig/sdcc/src/pic14/gen.c:2316:resultRemat *{*
                      03250 ;;; /home/sdcc-builder/build/sdcc-build/orig/sdcc/src/pic14/gen.c:7120:genCast *{*
                      03251 ;; ***  genCast  7121
                      03252 ;;      694 register type nRegs=2
                      03253 ;;      694 register type nRegs=1
                      03254 ;;      line = 7129 result AOP_REG=r0x1057, size=1, left -=-, size=0, right AOP_REG=r0x1059, size=2
                      03255 ;; ***  genCast  7253
                      03256 ;; >>> /home/sdcc-builder/build/sdcc-build/orig/sdcc/src/pic14/gen.c:7277:genCast
                      03257 ;;      1109 rIdx = r0x1059 
0387                  03258 _00245_DS_
0387   ???? ????      03259         BANKSEL r0x1011
0389   08??           03260         MOVF    r0x1011,W
                      03261 ;; >>> /home/sdcc-builder/build/sdcc-build/orig/sdcc/src/pic14/gen.c:7278:genCast
                      03262 ;;      1109 rIdx = r0x1057 
038A   00??           03263         MOVWF   r0x100F
                      03264 ;;; /home/sdcc-builder/build/sdcc-build/orig/sdcc/src/pic14/gen.c:2316:resultRemat *{*
                      03265 ;;; /home/sdcc-builder/build/sdcc-build/orig/sdcc/src/pic14/gen.c:2760:genLabel *{*
                      03266 ;; ***  genLabel  2763
gpasm-1.4.0 #1106 (Oct  6 2014) obj\Debug\gpi   5-11-2022  02:00:26         PAGE 63


LOC    OBJECT CODE    LINE  SOURCE TEXT
  VALUE

                      03267 ;;; /home/sdcc-builder/build/sdcc-build/orig/sdcc/src/pic14/gen.c:2316:resultRemat *{*
                      03268 ;;; /home/sdcc-builder/build/sdcc-build/orig/sdcc/src/pic14/gen.c:2683:genRet *{*
                      03269 ;; ***  genRet  2685
                      03270 ;;      694 register type nRegs=1
                      03271 ;;; /home/sdcc-builder/build/sdcc-build/orig/sdcc/src/pic14/gen.c:1343:mov2w_op *{*
                      03272 ;; ***  mov2w  1381  offset=0
                      03273 ;; >>> /home/sdcc-builder/build/sdcc-build/orig/sdcc/src/pic14/gen.c:1386:mov2w
                      03274 ;;      1109 rIdx = r0x1057 
038B                  03275 _00218_DS_
                      03276         .line   109; "gpio.c"   return ret ;
038B   ???? ????      03277         BANKSEL r0x100F
038D   08??           03278         MOVF    r0x100F,W
                      03279 ;;; /home/sdcc-builder/build/sdcc-build/orig/sdcc/src/pic14/gen.c:2316:resultRemat *{*
                      03280 ;;; /home/sdcc-builder/build/sdcc-build/orig/sdcc/src/pic14/gen.c:2760:genLabel *{*
                      03281 ;; ***  genLabel  2763
                      03282 ;;; /home/sdcc-builder/build/sdcc-build/orig/sdcc/src/pic14/gen.c:2316:resultRemat *{*
                      03283 ;;; /home/sdcc-builder/build/sdcc-build/orig/sdcc/src/pic14/gen.c:2528:genEndFunction *{*
                      03284 ;; ***  genEndFunction  2530
038E   0008           03285         RETURN  
                      03286 ; exit point of _GPIO_GetPinState
                      03287 ;;; /home/sdcc-builder/build/sdcc-build/orig/sdcc/src/pic14/gen.c:7426:genpic14Code *{*
                      03288 
                      03289 ;***
                      03290 ;  pBlock Stats: dbName = C
                      03291 ;***
                      03292 ;entry:  _GPIO_SetPortState     ;Function start
                      03293 ; 2 exit points
                      03294 ;has an exit
                      03295 ;3 compiler assigned registers:
                      03296 ;   r0x1013
                      03297 ;   STK00
                      03298 ;   r0x1014
                      03299 ;; Starting pCode block
                      03300 ;;; /home/sdcc-builder/build/sdcc-build/orig/sdcc/src/pic14/gen.c:2316:resultRemat *{*
                      03301 ;;; /home/sdcc-builder/build/sdcc-build/orig/sdcc/src/pic14/gen.c:2760:genLabel *{*
                      03302 ;; ***  genLabel  2763
                      03303 ;;; /home/sdcc-builder/build/sdcc-build/orig/sdcc/src/pic14/gen.c:2316:resultRemat *{*
                      03304 ;;; /home/sdcc-builder/build/sdcc-build/orig/sdcc/src/pic14/gen.c:2340:genFunction *{*
                      03305 ;; ***  genFunction  2342 curr label offset=58previous max_key=33 
038F                  03306 _GPIO_SetPortState      ;Function start
                      03307 ; 2 exit points
                      03308 ;;; /home/sdcc-builder/build/sdcc-build/orig/sdcc/src/pic14/gen.c:2316:resultRemat *{*
                      03309 ;;; /home/sdcc-builder/build/sdcc-build/orig/sdcc/src/pic14/gen.c:7358:genReceive *{*
                      03310 ;; ***  genReceive  7359
                      03311 ;;      694 register type nRegs=1
                      03312 ;;; /home/sdcc-builder/build/sdcc-build/orig/sdcc/src/pic14/gen.c:1907:assignResultValue *{*
                      03313 ;; ***  assignResultValue  1909
                      03314 ;;      line = 1911 result -=-, size=0, left AOP_REG=r0x1053, size=1, right -=-, size=0
                      03315 ;; >>> /home/sdcc-builder/build/sdcc-build/orig/sdcc/src/pic14/gen.c:1393:movwf
                      03316 ;;      1109 rIdx = r0x1053 
                      03317         .line   67; "gpio.c"    void GPIO_SetPortState(tPORT port , unsigned char portState )
038F   ???? ????      03318         BANKSEL r0x1013
0391   00??           03319         MOVWF   r0x1013
gpasm-1.4.0 #1106 (Oct  6 2014) obj\Debug\gpi   5-11-2022  02:00:26         PAGE 64


LOC    OBJECT CODE    LINE  SOURCE TEXT
  VALUE

                      03320 ;;; /home/sdcc-builder/build/sdcc-build/orig/sdcc/src/pic14/gen.c:2316:resultRemat *{*
                      03321 ;;; /home/sdcc-builder/build/sdcc-build/orig/sdcc/src/pic14/gen.c:7358:genReceive *{*
                      03322 ;; ***  genReceive  7359
                      03323 ;;      694 register type nRegs=1
                      03324 ;;; /home/sdcc-builder/build/sdcc-build/orig/sdcc/src/pic14/gen.c:1907:assignResultValue *{*
                      03325 ;; ***  assignResultValue  1909
                      03326 ;;      line = 1911 result -=-, size=0, left AOP_REG=r0x1054, size=1, right -=-, size=0
                      03327 ;; >>> /home/sdcc-builder/build/sdcc-build/orig/sdcc/src/pic14/gen.c:1423:get_returnvalue
                      03328 ;; ***  popRegFromIdx,1042  , rIdx=0x7f
0392   08??           03329         MOVF    STK00,W
                      03330 ;; >>> /home/sdcc-builder/build/sdcc-build/orig/sdcc/src/pic14/gen.c:1393:movwf
                      03331 ;;      1109 rIdx = r0x1054 
0393   00??           03332         MOVWF   r0x1014
                      03333 ;;; /home/sdcc-builder/build/sdcc-build/orig/sdcc/src/pic14/gen.c:2316:resultRemat *{*
                      03334 ;;; /home/sdcc-builder/build/sdcc-build/orig/sdcc/src/pic14/gen.c:3547:genCmpGt *{*
                      03335 ;; ***  genCmpGt  3548
                      03336 ;;      694 register type nRegs=1
                      03337 ;;; /home/sdcc-builder/build/sdcc-build/orig/sdcc/src/pic14/gen.c:3294:genCmp *{*
                      03338 ;;swapping arguments (AOP_TYPEs 1/2)
                      03339 ;;unsigned compare: left >= lit(0x5=5), size=1
                      03340 ;; >>> /home/sdcc-builder/build/sdcc-build/orig/sdcc/src/pic14/gen.c:3265:pic14_mov2w_regOrLit
                      03341         .line   69; "gpio.c"    switch(port)
0394   3005           03342         MOVLW   0x05
                      03343 ;; >>> /home/sdcc-builder/build/sdcc-build/orig/sdcc/src/pic14/gen.c:3432:genCmp
                      03344 ;;      1109 rIdx = r0x1053 
0395   02??           03345         SUBWF   r0x1013,W
                      03346 ;;; /home/sdcc-builder/build/sdcc-build/orig/sdcc/src/pic14/gen.c:3237:genSkipc *{*
                      03347 ;; >>> /home/sdcc-builder/build/sdcc-build/orig/sdcc/src/pic14/gen.c:3242:genSkipc
0396   1803           03348         BTFSC   STATUS,0
                      03349 ;; >>> /home/sdcc-builder/build/sdcc-build/orig/sdcc/src/pic14/gen.c:3246:genSkipc
                      03350 ;; ***  popGetLabel  key=7, label offset 95
0397   2???           03351         GOTO    _00202_DS_
                      03352 ;;genSkipc:3247: created from rifx:027A5DF4
                      03353 ;;; /home/sdcc-builder/build/sdcc-build/orig/sdcc/src/pic14/gen.c:2316:resultRemat *{*
                      03354 ;;; /home/sdcc-builder/build/sdcc-build/orig/sdcc/src/pic14/gen.c:2316:resultRemat *{*
                      03355 ;;; /home/sdcc-builder/build/sdcc-build/orig/sdcc/src/pic14/gen.c:7071:genJumpTab *{*
                      03356 ;; ***  genJumpTab  7072
                      03357 ;;      694 register type nRegs=1
                      03358 ;; >>> /home/sdcc-builder/build/sdcc-build/orig/sdcc/src/pic14/gen.c:7087:genJumpTab
                      03359 ;; ***  popGetLabel  key=13, label offset 95
0398   30??           03360         MOVLW   HIGH(_00208_DS_)
                      03361 ;; >>> /home/sdcc-builder/build/sdcc-build/orig/sdcc/src/pic14/gen.c:7088:genJumpTab
0399   1283 1303      03362         BANKSEL PCLATH
039B   008A           03363         MOVWF   PCLATH
                      03364 ;; >>> /home/sdcc-builder/build/sdcc-build/orig/sdcc/src/pic14/gen.c:7089:genJumpTab
                      03365 ;; ***  popGetLabel  key=13, label offset 95
039C   30??           03366         MOVLW   _00208_DS_
                      03367 ;; >>> /home/sdcc-builder/build/sdcc-build/orig/sdcc/src/pic14/gen.c:7090:genJumpTab
                      03368 ;;      1109 rIdx = r0x1053 
039D   ???? ????      03369         BANKSEL r0x1013
039F   07??           03370         ADDWF   r0x1013,W
                      03371 ;; >>> /home/sdcc-builder/build/sdcc-build/orig/sdcc/src/pic14/gen.c:7091:genJumpTab
03A0   1C03           03372         BTFSS   STATUS,0
gpasm-1.4.0 #1106 (Oct  6 2014) obj\Debug\gpi   5-11-2022  02:00:26         PAGE 65


LOC    OBJECT CODE    LINE  SOURCE TEXT
  VALUE

03A1   2???           03373         GOTO    _00005_DS_
                      03374 ;; >>> /home/sdcc-builder/build/sdcc-build/orig/sdcc/src/pic14/gen.c:7092:genJumpTab
03A2   1283 1303      03375         BANKSEL PCLATH
03A4   0A8A           03376         INCF    PCLATH,F
                      03377 ;; >>> /home/sdcc-builder/build/sdcc-build/orig/sdcc/src/pic14/gen.c:7093:genJumpTab
03A5                  03378 _00005_DS_
03A5   0082           03379         MOVWF   PCL
                      03380 ;; >>> /home/sdcc-builder/build/sdcc-build/orig/sdcc/src/pic14/gen.c:7102:genJumpTab
                      03381 ;; ***  popGetLabel  key=1, label offset 95
03A6                  03382 _00208_DS_
03A6   2???           03383         GOTO    _00196_DS_
                      03384 ;; >>> /home/sdcc-builder/build/sdcc-build/orig/sdcc/src/pic14/gen.c:7102:genJumpTab
                      03385 ;; ***  popGetLabel  key=2, label offset 95
03A7   2???           03386         GOTO    _00197_DS_
                      03387 ;; >>> /home/sdcc-builder/build/sdcc-build/orig/sdcc/src/pic14/gen.c:7102:genJumpTab
                      03388 ;; ***  popGetLabel  key=3, label offset 95
03A8   2???           03389         GOTO    _00198_DS_
                      03390 ;; >>> /home/sdcc-builder/build/sdcc-build/orig/sdcc/src/pic14/gen.c:7102:genJumpTab
                      03391 ;; ***  popGetLabel  key=4, label offset 95
03A9   2???           03392         GOTO    _00199_DS_
                      03393 ;; >>> /home/sdcc-builder/build/sdcc-build/orig/sdcc/src/pic14/gen.c:7102:genJumpTab
                      03394 ;; ***  popGetLabel  key=5, label offset 95
03AA   2???           03395         GOTO    _00200_DS_
                      03396 ;;; /home/sdcc-builder/build/sdcc-build/orig/sdcc/src/pic14/gen.c:2316:resultRemat *{*
                      03397 ;;; /home/sdcc-builder/build/sdcc-build/orig/sdcc/src/pic14/gen.c:2760:genLabel *{*
                      03398 ;; ***  genLabel  2763
                      03399 ;;; /home/sdcc-builder/build/sdcc-build/orig/sdcc/src/pic14/gen.c:2316:resultRemat *{*
                      03400 ;;; /home/sdcc-builder/build/sdcc-build/orig/sdcc/src/pic14/gen.c:6927:genAssign *{*
                      03401 ;; ***  genAssign  6928
                      03402 ;;      694 register type nRegs=1
                      03403 ;; ***  aopForSym 315
                      03404 ;;      327 sym->rname = _PORTA, size = 1
                      03405 ;;      line = 6937 result AOP_DIR=_PORTA, size=1, left -=-, size=0, right AOP_REG=r0x1054, size=1
                      03406 ;; ***  genAssign  7023
                      03407 ;;; /home/sdcc-builder/build/sdcc-build/orig/sdcc/src/pic14/gen.c:1343:mov2w_op *{*
                      03408 ;; ***  mov2w  1381  offset=0
                      03409 ;; >>> /home/sdcc-builder/build/sdcc-build/orig/sdcc/src/pic14/gen.c:1386:mov2w
                      03410 ;;      1109 rIdx = r0x1054 
03AB                  03411 _00196_DS_
                      03412         .line   72; "gpio.c"    PORTA = portState ;
03AB   ???? ????      03413         BANKSEL r0x1014
03AD   08??           03414         MOVF    r0x1014,W
                      03415 ;; >>> /home/sdcc-builder/build/sdcc-build/orig/sdcc/src/pic14/gen.c:7050:genAssign
                      03416 ;;      1009
                      03417 ;;      1028  _PORTA   offset=0
03AE   ???? ????      03418         BANKSEL _PORTA
03B0   00??           03419         MOVWF   _PORTA
                      03420 ;;; /home/sdcc-builder/build/sdcc-build/orig/sdcc/src/pic14/gen.c:2316:resultRemat *{*
                      03421 ;;; /home/sdcc-builder/build/sdcc-build/orig/sdcc/src/pic14/gen.c:2778:genGoto *{*
                      03422 ;; >>> /home/sdcc-builder/build/sdcc-build/orig/sdcc/src/pic14/gen.c:2780:genGoto
                      03423 ;; ***  popGetLabel  key=7, label offset 95
                      03424         .line   73; "gpio.c"    break ;
03B1   2???           03425         GOTO    _00202_DS_
gpasm-1.4.0 #1106 (Oct  6 2014) obj\Debug\gpi   5-11-2022  02:00:26         PAGE 66


LOC    OBJECT CODE    LINE  SOURCE TEXT
  VALUE

                      03426 ;;; /home/sdcc-builder/build/sdcc-build/orig/sdcc/src/pic14/gen.c:2316:resultRemat *{*
                      03427 ;;; /home/sdcc-builder/build/sdcc-build/orig/sdcc/src/pic14/gen.c:2760:genLabel *{*
                      03428 ;; ***  genLabel  2763
                      03429 ;;; /home/sdcc-builder/build/sdcc-build/orig/sdcc/src/pic14/gen.c:2316:resultRemat *{*
                      03430 ;;; /home/sdcc-builder/build/sdcc-build/orig/sdcc/src/pic14/gen.c:6927:genAssign *{*
                      03431 ;; ***  genAssign  6928
                      03432 ;;      694 register type nRegs=1
                      03433 ;; ***  aopForSym 315
                      03434 ;;      327 sym->rname = _PORTB, size = 1
                      03435 ;;      line = 6937 result AOP_DIR=_PORTB, size=1, left -=-, size=0, right AOP_REG=r0x1054, size=1
                      03436 ;; ***  genAssign  7023
                      03437 ;;; /home/sdcc-builder/build/sdcc-build/orig/sdcc/src/pic14/gen.c:1343:mov2w_op *{*
                      03438 ;; ***  mov2w  1381  offset=0
                      03439 ;; >>> /home/sdcc-builder/build/sdcc-build/orig/sdcc/src/pic14/gen.c:1386:mov2w
                      03440 ;;      1109 rIdx = r0x1054 
03B2                  03441 _00197_DS_
                      03442         .line   75; "gpio.c"    PORTB = portState ;
03B2   ???? ????      03443         BANKSEL r0x1014
03B4   08??           03444         MOVF    r0x1014,W
                      03445 ;; >>> /home/sdcc-builder/build/sdcc-build/orig/sdcc/src/pic14/gen.c:7050:genAssign
                      03446 ;;      1009
                      03447 ;;      1028  _PORTB   offset=0
03B5   ???? ????      03448         BANKSEL _PORTB
03B7   00??           03449         MOVWF   _PORTB
                      03450 ;;; /home/sdcc-builder/build/sdcc-build/orig/sdcc/src/pic14/gen.c:2316:resultRemat *{*
                      03451 ;;; /home/sdcc-builder/build/sdcc-build/orig/sdcc/src/pic14/gen.c:2778:genGoto *{*
                      03452 ;; >>> /home/sdcc-builder/build/sdcc-build/orig/sdcc/src/pic14/gen.c:2780:genGoto
                      03453 ;; ***  popGetLabel  key=7, label offset 95
                      03454         .line   76; "gpio.c"    break ;
03B8   2???           03455         GOTO    _00202_DS_
                      03456 ;;; /home/sdcc-builder/build/sdcc-build/orig/sdcc/src/pic14/gen.c:2316:resultRemat *{*
                      03457 ;;; /home/sdcc-builder/build/sdcc-build/orig/sdcc/src/pic14/gen.c:2760:genLabel *{*
                      03458 ;; ***  genLabel  2763
                      03459 ;;; /home/sdcc-builder/build/sdcc-build/orig/sdcc/src/pic14/gen.c:2316:resultRemat *{*
                      03460 ;;; /home/sdcc-builder/build/sdcc-build/orig/sdcc/src/pic14/gen.c:6927:genAssign *{*
                      03461 ;; ***  genAssign  6928
                      03462 ;;      694 register type nRegs=1
                      03463 ;; ***  aopForSym 315
                      03464 ;;      327 sym->rname = _PORTC, size = 1
                      03465 ;;      line = 6937 result AOP_DIR=_PORTC, size=1, left -=-, size=0, right AOP_REG=r0x1054, size=1
                      03466 ;; ***  genAssign  7023
                      03467 ;;; /home/sdcc-builder/build/sdcc-build/orig/sdcc/src/pic14/gen.c:1343:mov2w_op *{*
                      03468 ;; ***  mov2w  1381  offset=0
                      03469 ;; >>> /home/sdcc-builder/build/sdcc-build/orig/sdcc/src/pic14/gen.c:1386:mov2w
                      03470 ;;      1109 rIdx = r0x1054 
03B9                  03471 _00198_DS_
                      03472         .line   78; "gpio.c"    PORTC = portState ;
03B9   ???? ????      03473         BANKSEL r0x1014
03BB   08??           03474         MOVF    r0x1014,W
                      03475 ;; >>> /home/sdcc-builder/build/sdcc-build/orig/sdcc/src/pic14/gen.c:7050:genAssign
                      03476 ;;      1009
                      03477 ;;      1028  _PORTC   offset=0
03BC   ???? ????      03478         BANKSEL _PORTC
gpasm-1.4.0 #1106 (Oct  6 2014) obj\Debug\gpi   5-11-2022  02:00:26         PAGE 67


LOC    OBJECT CODE    LINE  SOURCE TEXT
  VALUE

03BE   00??           03479         MOVWF   _PORTC
                      03480 ;;; /home/sdcc-builder/build/sdcc-build/orig/sdcc/src/pic14/gen.c:2316:resultRemat *{*
                      03481 ;;; /home/sdcc-builder/build/sdcc-build/orig/sdcc/src/pic14/gen.c:2778:genGoto *{*
                      03482 ;; >>> /home/sdcc-builder/build/sdcc-build/orig/sdcc/src/pic14/gen.c:2780:genGoto
                      03483 ;; ***  popGetLabel  key=7, label offset 95
                      03484         .line   79; "gpio.c"    break ;
03BF   2???           03485         GOTO    _00202_DS_
                      03486 ;;; /home/sdcc-builder/build/sdcc-build/orig/sdcc/src/pic14/gen.c:2316:resultRemat *{*
                      03487 ;;; /home/sdcc-builder/build/sdcc-build/orig/sdcc/src/pic14/gen.c:2760:genLabel *{*
                      03488 ;; ***  genLabel  2763
                      03489 ;;; /home/sdcc-builder/build/sdcc-build/orig/sdcc/src/pic14/gen.c:2316:resultRemat *{*
                      03490 ;;; /home/sdcc-builder/build/sdcc-build/orig/sdcc/src/pic14/gen.c:6927:genAssign *{*
                      03491 ;; ***  genAssign  6928
                      03492 ;;      694 register type nRegs=1
                      03493 ;; ***  aopForSym 315
                      03494 ;;      327 sym->rname = _PORTD, size = 1
                      03495 ;;      line = 6937 result AOP_DIR=_PORTD, size=1, left -=-, size=0, right AOP_REG=r0x1054, size=1
                      03496 ;; ***  genAssign  7023
                      03497 ;;; /home/sdcc-builder/build/sdcc-build/orig/sdcc/src/pic14/gen.c:1343:mov2w_op *{*
                      03498 ;; ***  mov2w  1381  offset=0
                      03499 ;; >>> /home/sdcc-builder/build/sdcc-build/orig/sdcc/src/pic14/gen.c:1386:mov2w
                      03500 ;;      1109 rIdx = r0x1054 
03C0                  03501 _00199_DS_
                      03502         .line   81; "gpio.c"    PORTD = portState ;
03C0   ???? ????      03503         BANKSEL r0x1014
03C2   08??           03504         MOVF    r0x1014,W
                      03505 ;; >>> /home/sdcc-builder/build/sdcc-build/orig/sdcc/src/pic14/gen.c:7050:genAssign
                      03506 ;;      1009
                      03507 ;;      1028  _PORTD   offset=0
03C3   ???? ????      03508         BANKSEL _PORTD
03C5   00??           03509         MOVWF   _PORTD
                      03510 ;;; /home/sdcc-builder/build/sdcc-build/orig/sdcc/src/pic14/gen.c:2316:resultRemat *{*
                      03511 ;;; /home/sdcc-builder/build/sdcc-build/orig/sdcc/src/pic14/gen.c:2778:genGoto *{*
                      03512 ;; >>> /home/sdcc-builder/build/sdcc-build/orig/sdcc/src/pic14/gen.c:2780:genGoto
                      03513 ;; ***  popGetLabel  key=7, label offset 95
                      03514         .line   82; "gpio.c"    break ;
03C6   2???           03515         GOTO    _00202_DS_
                      03516 ;;; /home/sdcc-builder/build/sdcc-build/orig/sdcc/src/pic14/gen.c:2316:resultRemat *{*
                      03517 ;;; /home/sdcc-builder/build/sdcc-build/orig/sdcc/src/pic14/gen.c:2760:genLabel *{*
                      03518 ;; ***  genLabel  2763
                      03519 ;;; /home/sdcc-builder/build/sdcc-build/orig/sdcc/src/pic14/gen.c:2316:resultRemat *{*
                      03520 ;;; /home/sdcc-builder/build/sdcc-build/orig/sdcc/src/pic14/gen.c:6927:genAssign *{*
                      03521 ;; ***  genAssign  6928
                      03522 ;;      694 register type nRegs=1
                      03523 ;; ***  aopForSym 315
                      03524 ;;      327 sym->rname = _PORTE, size = 1
                      03525 ;;      line = 6937 result AOP_DIR=_PORTE, size=1, left -=-, size=0, right AOP_REG=r0x1054, size=1
                      03526 ;; ***  genAssign  7023
                      03527 ;;; /home/sdcc-builder/build/sdcc-build/orig/sdcc/src/pic14/gen.c:1343:mov2w_op *{*
                      03528 ;; ***  mov2w  1381  offset=0
                      03529 ;; >>> /home/sdcc-builder/build/sdcc-build/orig/sdcc/src/pic14/gen.c:1386:mov2w
                      03530 ;;      1109 rIdx = r0x1054 
03C7                  03531 _00200_DS_
gpasm-1.4.0 #1106 (Oct  6 2014) obj\Debug\gpi   5-11-2022  02:00:26         PAGE 68


LOC    OBJECT CODE    LINE  SOURCE TEXT
  VALUE

                      03532         .line   84; "gpio.c"    PORTE = portState ;
03C7   ???? ????      03533         BANKSEL r0x1014
03C9   08??           03534         MOVF    r0x1014,W
                      03535 ;; >>> /home/sdcc-builder/build/sdcc-build/orig/sdcc/src/pic14/gen.c:7050:genAssign
                      03536 ;;      1009
                      03537 ;;      1028  _PORTE   offset=0
03CA   ???? ????      03538         BANKSEL _PORTE
03CC   00??           03539         MOVWF   _PORTE
                      03540 ;;; /home/sdcc-builder/build/sdcc-build/orig/sdcc/src/pic14/gen.c:2316:resultRemat *{*
                      03541 ;;; /home/sdcc-builder/build/sdcc-build/orig/sdcc/src/pic14/gen.c:2760:genLabel *{*
                      03542 ;; ***  genLabel  2763
                      03543 ;;; /home/sdcc-builder/build/sdcc-build/orig/sdcc/src/pic14/gen.c:2316:resultRemat *{*
                      03544 ;;; /home/sdcc-builder/build/sdcc-build/orig/sdcc/src/pic14/gen.c:2528:genEndFunction *{*
                      03545 ;; ***  genEndFunction  2530
03CD                  03546 _00202_DS_
                      03547         .line   86; "gpio.c"    }
03CD   0008           03548         RETURN  
                      03549 ; exit point of _GPIO_SetPortState
                      03550 ;;; /home/sdcc-builder/build/sdcc-build/orig/sdcc/src/pic14/gen.c:7426:genpic14Code *{*
                      03551 
                      03552 ;***
                      03553 ;  pBlock Stats: dbName = C
                      03554 ;***
                      03555 ;entry:  _GPIO_SetPinState      ;Function start
                      03556 ; 2 exit points
                      03557 ;has an exit
                      03558 ;6 compiler assigned registers:
                      03559 ;   r0x1015
                      03560 ;   STK00
                      03561 ;   r0x1016
                      03562 ;   STK01
                      03563 ;   r0x1017
                      03564 ;   r0x1018
                      03565 ;; Starting pCode block
                      03566 ;;; /home/sdcc-builder/build/sdcc-build/orig/sdcc/src/pic14/gen.c:2316:resultRemat *{*
                      03567 ;;; /home/sdcc-builder/build/sdcc-build/orig/sdcc/src/pic14/gen.c:2760:genLabel *{*
                      03568 ;; ***  genLabel  2763
                      03569 ;;; /home/sdcc-builder/build/sdcc-build/orig/sdcc/src/pic14/gen.c:2316:resultRemat *{*
                      03570 ;;; /home/sdcc-builder/build/sdcc-build/orig/sdcc/src/pic14/gen.c:2340:genFunction *{*
                      03571 ;; ***  genFunction  2342 curr label offset=41previous max_key=13 
03CE                  03572 _GPIO_SetPinState       ;Function start
                      03573 ; 2 exit points
                      03574 ;;; /home/sdcc-builder/build/sdcc-build/orig/sdcc/src/pic14/gen.c:2316:resultRemat *{*
                      03575 ;;; /home/sdcc-builder/build/sdcc-build/orig/sdcc/src/pic14/gen.c:7358:genReceive *{*
                      03576 ;; ***  genReceive  7359
                      03577 ;;      694 register type nRegs=1
                      03578 ;;; /home/sdcc-builder/build/sdcc-build/orig/sdcc/src/pic14/gen.c:1907:assignResultValue *{*
                      03579 ;; ***  assignResultValue  1909
                      03580 ;;      line = 1911 result -=-, size=0, left AOP_REG=r0x104E, size=1, right -=-, size=0
                      03581 ;; >>> /home/sdcc-builder/build/sdcc-build/orig/sdcc/src/pic14/gen.c:1393:movwf
                      03582 ;;      1109 rIdx = r0x104E 
                      03583         .line   46; "gpio.c"    void GPIO_SetPinState(tPORT port ,unsigned char pin, unsigned char pinSt
                            ate )
gpasm-1.4.0 #1106 (Oct  6 2014) obj\Debug\gpi   5-11-2022  02:00:26         PAGE 69


LOC    OBJECT CODE    LINE  SOURCE TEXT
  VALUE

03CE   ???? ????      03584         BANKSEL r0x1015
03D0   00??           03585         MOVWF   r0x1015
                      03586 ;;; /home/sdcc-builder/build/sdcc-build/orig/sdcc/src/pic14/gen.c:2316:resultRemat *{*
                      03587 ;;; /home/sdcc-builder/build/sdcc-build/orig/sdcc/src/pic14/gen.c:7358:genReceive *{*
                      03588 ;; ***  genReceive  7359
                      03589 ;;      694 register type nRegs=1
                      03590 ;;; /home/sdcc-builder/build/sdcc-build/orig/sdcc/src/pic14/gen.c:1907:assignResultValue *{*
                      03591 ;; ***  assignResultValue  1909
                      03592 ;;      line = 1911 result -=-, size=0, left AOP_REG=r0x104F, size=1, right -=-, size=0
                      03593 ;; >>> /home/sdcc-builder/build/sdcc-build/orig/sdcc/src/pic14/gen.c:1423:get_returnvalue
                      03594 ;; ***  popRegFromIdx,1042  , rIdx=0x7f
03D1   08??           03595         MOVF    STK00,W
                      03596 ;; >>> /home/sdcc-builder/build/sdcc-build/orig/sdcc/src/pic14/gen.c:1393:movwf
                      03597 ;;      1109 rIdx = r0x104F 
03D2   00??           03598         MOVWF   r0x1016
                      03599 ;;; /home/sdcc-builder/build/sdcc-build/orig/sdcc/src/pic14/gen.c:2316:resultRemat *{*
                      03600 ;;; /home/sdcc-builder/build/sdcc-build/orig/sdcc/src/pic14/gen.c:7358:genReceive *{*
                      03601 ;; ***  genReceive  7359
                      03602 ;;      694 register type nRegs=1
                      03603 ;;; /home/sdcc-builder/build/sdcc-build/orig/sdcc/src/pic14/gen.c:1907:assignResultValue *{*
                      03604 ;; ***  assignResultValue  1909
                      03605 ;;      line = 1911 result -=-, size=0, left AOP_REG=r0x1050, size=1, right -=-, size=0
                      03606 ;; >>> /home/sdcc-builder/build/sdcc-build/orig/sdcc/src/pic14/gen.c:1423:get_returnvalue
                      03607 ;; ***  popRegFromIdx,1042  , rIdx=0x7e
03D3   08??           03608         MOVF    STK01,W
                      03609 ;; >>> /home/sdcc-builder/build/sdcc-build/orig/sdcc/src/pic14/gen.c:1393:movwf
                      03610 ;;      1109 rIdx = r0x1050 
03D4   00??           03611         MOVWF   r0x1017
                      03612 ;;; /home/sdcc-builder/build/sdcc-build/orig/sdcc/src/pic14/gen.c:2316:resultRemat *{*
                      03613 ;;; /home/sdcc-builder/build/sdcc-build/orig/sdcc/src/pic14/gen.c:3547:genCmpGt *{*
                      03614 ;; ***  genCmpGt  3548
                      03615 ;;      694 register type nRegs=1
                      03616 ;;; /home/sdcc-builder/build/sdcc-build/orig/sdcc/src/pic14/gen.c:3294:genCmp *{*
                      03617 ;;swapping arguments (AOP_TYPEs 1/2)
                      03618 ;;unsigned compare: left >= lit(0x5=5), size=1
                      03619 ;; >>> /home/sdcc-builder/build/sdcc-build/orig/sdcc/src/pic14/gen.c:3265:pic14_mov2w_regOrLit
                      03620         .line   48; "gpio.c"    switch(port)
03D5   3005           03621         MOVLW   0x05
                      03622 ;; >>> /home/sdcc-builder/build/sdcc-build/orig/sdcc/src/pic14/gen.c:3432:genCmp
                      03623 ;;      1109 rIdx = r0x104E 
03D6   02??           03624         SUBWF   r0x1015,W
                      03625 ;;; /home/sdcc-builder/build/sdcc-build/orig/sdcc/src/pic14/gen.c:3237:genSkipc *{*
                      03626 ;; >>> /home/sdcc-builder/build/sdcc-build/orig/sdcc/src/pic14/gen.c:3242:genSkipc
03D7   1803           03627         BTFSC   STATUS,0
                      03628 ;; >>> /home/sdcc-builder/build/sdcc-build/orig/sdcc/src/pic14/gen.c:3246:genSkipc
                      03629 ;; ***  popGetLabel  key=7, label offset 58
03D8   2???           03630         GOTO    _00165_DS_
                      03631 ;;genSkipc:3247: created from rifx:027A5DF4
                      03632 ;;; /home/sdcc-builder/build/sdcc-build/orig/sdcc/src/pic14/gen.c:2316:resultRemat *{*
                      03633 ;;; /home/sdcc-builder/build/sdcc-build/orig/sdcc/src/pic14/gen.c:2316:resultRemat *{*
                      03634 ;;; /home/sdcc-builder/build/sdcc-build/orig/sdcc/src/pic14/gen.c:7071:genJumpTab *{*
                      03635 ;; ***  genJumpTab  7072
                      03636 ;;      694 register type nRegs=1
gpasm-1.4.0 #1106 (Oct  6 2014) obj\Debug\gpi   5-11-2022  02:00:26         PAGE 70


LOC    OBJECT CODE    LINE  SOURCE TEXT
  VALUE

                      03637 ;; >>> /home/sdcc-builder/build/sdcc-build/orig/sdcc/src/pic14/gen.c:7087:genJumpTab
                      03638 ;; ***  popGetLabel  key=13, label offset 58
03D9   30??           03639         MOVLW   HIGH(_00171_DS_)
                      03640 ;; >>> /home/sdcc-builder/build/sdcc-build/orig/sdcc/src/pic14/gen.c:7088:genJumpTab
03DA   1283 1303      03641         BANKSEL PCLATH
03DC   008A           03642         MOVWF   PCLATH
                      03643 ;; >>> /home/sdcc-builder/build/sdcc-build/orig/sdcc/src/pic14/gen.c:7089:genJumpTab
                      03644 ;; ***  popGetLabel  key=13, label offset 58
03DD   30??           03645         MOVLW   _00171_DS_
                      03646 ;; >>> /home/sdcc-builder/build/sdcc-build/orig/sdcc/src/pic14/gen.c:7090:genJumpTab
                      03647 ;;      1109 rIdx = r0x104E 
03DE   ???? ????      03648         BANKSEL r0x1015
03E0   07??           03649         ADDWF   r0x1015,W
                      03650 ;; >>> /home/sdcc-builder/build/sdcc-build/orig/sdcc/src/pic14/gen.c:7091:genJumpTab
03E1   1C03           03651         BTFSS   STATUS,0
03E2   2???           03652         GOTO    _00006_DS_
                      03653 ;; >>> /home/sdcc-builder/build/sdcc-build/orig/sdcc/src/pic14/gen.c:7092:genJumpTab
03E3   1283 1303      03654         BANKSEL PCLATH
03E5   0A8A           03655         INCF    PCLATH,F
                      03656 ;; >>> /home/sdcc-builder/build/sdcc-build/orig/sdcc/src/pic14/gen.c:7093:genJumpTab
03E6                  03657 _00006_DS_
03E6   0082           03658         MOVWF   PCL
                      03659 ;; >>> /home/sdcc-builder/build/sdcc-build/orig/sdcc/src/pic14/gen.c:7102:genJumpTab
                      03660 ;; ***  popGetLabel  key=1, label offset 58
03E7                  03661 _00171_DS_
03E7   2???           03662         GOTO    _00159_DS_
                      03663 ;; >>> /home/sdcc-builder/build/sdcc-build/orig/sdcc/src/pic14/gen.c:7102:genJumpTab
                      03664 ;; ***  popGetLabel  key=2, label offset 58
03E8   2???           03665         GOTO    _00160_DS_
                      03666 ;; >>> /home/sdcc-builder/build/sdcc-build/orig/sdcc/src/pic14/gen.c:7102:genJumpTab
                      03667 ;; ***  popGetLabel  key=3, label offset 58
03E9   2???           03668         GOTO    _00161_DS_
                      03669 ;; >>> /home/sdcc-builder/build/sdcc-build/orig/sdcc/src/pic14/gen.c:7102:genJumpTab
                      03670 ;; ***  popGetLabel  key=4, label offset 58
03EA   2???           03671         GOTO    _00162_DS_
                      03672 ;; >>> /home/sdcc-builder/build/sdcc-build/orig/sdcc/src/pic14/gen.c:7102:genJumpTab
                      03673 ;; ***  popGetLabel  key=5, label offset 58
03EB   2???           03674         GOTO    _00163_DS_
                      03675 ;;; /home/sdcc-builder/build/sdcc-build/orig/sdcc/src/pic14/gen.c:2316:resultRemat *{*
                      03676 ;;; /home/sdcc-builder/build/sdcc-build/orig/sdcc/src/pic14/gen.c:2760:genLabel *{*
                      03677 ;; ***  genLabel  2763
                      03678 ;;; /home/sdcc-builder/build/sdcc-build/orig/sdcc/src/pic14/gen.c:2316:resultRemat *{*
                      03679 ;;; /home/sdcc-builder/build/sdcc-build/orig/sdcc/src/pic14/gen.c:5418:genGenericShift *{*
                      03680 ;; ***  genGenericShift  5421
                      03681 ;;      694 register type nRegs=1
                      03682 ;;      694 register type nRegs=1
                      03683 ;; ***  mov2w  1381  offset=0
                      03684 ;; >>> /home/sdcc-builder/build/sdcc-build/orig/sdcc/src/pic14/gen.c:1384:mov2w
03EC                  03685 _00159_DS_
                      03686         .line   51; "gpio.c"    SET_REGISTER_BIT(PORTA,pin,pinState) ;
03EC   3001           03687         MOVLW   0x01
                      03688 ;; >>> /home/sdcc-builder/build/sdcc-build/orig/sdcc/src/pic14/gen.c:1393:movwf
                      03689 ;;      1109 rIdx = r0x104E 
gpasm-1.4.0 #1106 (Oct  6 2014) obj\Debug\gpi   5-11-2022  02:00:26         PAGE 71


LOC    OBJECT CODE    LINE  SOURCE TEXT
  VALUE

03ED   ???? ????      03690         BANKSEL r0x1015
03EF   00??           03691         MOVWF   r0x1015
                      03692 ;; ***  addSign  861
                      03693 ;;; /home/sdcc-builder/build/sdcc-build/orig/sdcc/src/pic14/genarith.c:862:addSign *{*
                      03694 ;; ***  mov2w  1381  offset=0
                      03695 ;; >>> /home/sdcc-builder/build/sdcc-build/orig/sdcc/src/pic14/gen.c:1386:mov2w
                      03696 ;;      1109 rIdx = r0x104F 
03F0   08??           03697         MOVF    r0x1016,W
                      03698 ;; >>> /home/sdcc-builder/build/sdcc-build/orig/sdcc/src/pic14/gen.c:5492:genGenericShift
03F1   3C00           03699         SUBLW   0x00
                      03700 ;; >>> /home/sdcc-builder/build/sdcc-build/orig/sdcc/src/pic14/gen.c:5494:genGenericShift
03F2   1903           03701         BTFSC   STATUS,2
                      03702 ;; >>> /home/sdcc-builder/build/sdcc-build/orig/sdcc/src/pic14/gen.c:5495:genGenericShift
                      03703 ;; ***  popGetLabel  key=15, label offset 58
03F3   2???           03704         GOTO    _00173_DS_
                      03705 ;;; /home/sdcc-builder/build/sdcc-build/orig/sdcc/src/pic14/gen.c:5369:genMultiAsm *{*
                      03706 ;; ***  genMultiAsm  5370
                      03707 ;; >>> /home/sdcc-builder/build/sdcc-build/orig/sdcc/src/pic14/gen.c:5387:genMultiAsm
                      03708 ;;      1109 rIdx = r0x104E 
03F4                  03709 _00172_DS_
03F4   ???? ????      03710         BANKSEL r0x1015
03F6   0D??           03711         RLF     r0x1015,F
                      03712 ;; >>> /home/sdcc-builder/build/sdcc-build/orig/sdcc/src/pic14/gen.c:5501:genGenericShift
03F7   3E01           03713         ADDLW   0x01
                      03714 ;; >>> /home/sdcc-builder/build/sdcc-build/orig/sdcc/src/pic14/gen.c:5502:genGenericShift
03F8   1C03           03715         BTFSS   STATUS,0
                      03716 ;; >>> /home/sdcc-builder/build/sdcc-build/orig/sdcc/src/pic14/gen.c:5503:genGenericShift
                      03717 ;; ***  popGetLabel  key=14, label offset 58
03F9   2???           03718         GOTO    _00172_DS_
                      03719 ;;; /home/sdcc-builder/build/sdcc-build/orig/sdcc/src/pic14/gen.c:2316:resultRemat *{*
                      03720 ;;; /home/sdcc-builder/build/sdcc-build/orig/sdcc/src/pic14/gen.c:1609:genCpl *{*
                      03721 ;; ***  genCpl  1611
                      03722 ;;      694 register type nRegs=1
                      03723 ;;      694 register type nRegs=1
                      03724 ;; >>> /home/sdcc-builder/build/sdcc-build/orig/sdcc/src/pic14/gen.c:1631:genCpl
                      03725 ;;      1109 rIdx = r0x104E 
03FA                  03726 _00173_DS_
03FA   ???? ????      03727         BANKSEL r0x1015
03FC   09??           03728         COMF    r0x1015,F
03FD   ???? ????      03729         BANKSEL _PORTA
03FF   08??           03730         MOVF    _PORTA,W
                      03731 ;; >>> /home/sdcc-builder/build/sdcc-build/orig/sdcc/src/pic14/gen.c:4138:genAnd
                      03732 ;;      1109 rIdx = r0x104E 
0400   ???? ????      03733         BANKSEL r0x1015
0402   05??           03734         ANDWF   r0x1015,F
                      03735 ;;; /home/sdcc-builder/build/sdcc-build/orig/sdcc/src/pic14/gen.c:2316:resultRemat *{*
                      03736 ;;; /home/sdcc-builder/build/sdcc-build/orig/sdcc/src/pic14/gen.c:5418:genGenericShift *{*
                      03737 ;; ***  genGenericShift  5421
                      03738 ;;      694 register type nRegs=1
                      03739 ;;      694 register type nRegs=1
                      03740 ;;      694 register type nRegs=1
                      03741 ;; ***  mov2w  1381  offset=0
                      03742 ;; >>> /home/sdcc-builder/build/sdcc-build/orig/sdcc/src/pic14/gen.c:1386:mov2w
gpasm-1.4.0 #1106 (Oct  6 2014) obj\Debug\gpi   5-11-2022  02:00:26         PAGE 72


LOC    OBJECT CODE    LINE  SOURCE TEXT
  VALUE

                      03743 ;;      1109 rIdx = r0x1050 
0403   08??           03744         MOVF    r0x1017,W
                      03745 ;; >>> /home/sdcc-builder/build/sdcc-build/orig/sdcc/src/pic14/gen.c:1393:movwf
                      03746 ;;      1109 rIdx = r0x1051 
0404   00??           03747         MOVWF   r0x1018
                      03748 ;; ***  addSign  861
                      03749 ;;; /home/sdcc-builder/build/sdcc-build/orig/sdcc/src/pic14/genarith.c:862:addSign *{*
                      03750 ;; ***  mov2w  1381  offset=0
                      03751 ;; >>> /home/sdcc-builder/build/sdcc-build/orig/sdcc/src/pic14/gen.c:1386:mov2w
                      03752 ;;      1109 rIdx = r0x104F 
0405   08??           03753         MOVF    r0x1016,W
                      03754 ;; >>> /home/sdcc-builder/build/sdcc-build/orig/sdcc/src/pic14/gen.c:5492:genGenericShift
0406   3C00           03755         SUBLW   0x00
                      03756 ;; >>> /home/sdcc-builder/build/sdcc-build/orig/sdcc/src/pic14/gen.c:5494:genGenericShift
0407   1903           03757         BTFSC   STATUS,2
                      03758 ;; >>> /home/sdcc-builder/build/sdcc-build/orig/sdcc/src/pic14/gen.c:5495:genGenericShift
                      03759 ;; ***  popGetLabel  key=17, label offset 58
0408   2???           03760         GOTO    _00175_DS_
                      03761 ;;; /home/sdcc-builder/build/sdcc-build/orig/sdcc/src/pic14/gen.c:5369:genMultiAsm *{*
                      03762 ;; ***  genMultiAsm  5370
                      03763 ;; >>> /home/sdcc-builder/build/sdcc-build/orig/sdcc/src/pic14/gen.c:5387:genMultiAsm
                      03764 ;;      1109 rIdx = r0x1051 
0409                  03765 _00174_DS_
0409   ???? ????      03766         BANKSEL r0x1018
040B   0D??           03767         RLF     r0x1018,F
                      03768 ;; >>> /home/sdcc-builder/build/sdcc-build/orig/sdcc/src/pic14/gen.c:5501:genGenericShift
040C   3E01           03769         ADDLW   0x01
                      03770 ;; >>> /home/sdcc-builder/build/sdcc-build/orig/sdcc/src/pic14/gen.c:5502:genGenericShift
040D   1C03           03771         BTFSS   STATUS,0
                      03772 ;; >>> /home/sdcc-builder/build/sdcc-build/orig/sdcc/src/pic14/gen.c:5503:genGenericShift
                      03773 ;; ***  popGetLabel  key=16, label offset 58
040E   2???           03774         GOTO    _00174_DS_
                      03775 ;;; /home/sdcc-builder/build/sdcc-build/orig/sdcc/src/pic14/gen.c:2316:resultRemat *{*
                      03776 ;;; /home/sdcc-builder/build/sdcc-build/orig/sdcc/src/pic14/gen.c:4220:genOr *{*
                      03777 ;; ***  genOr  4221
                      03778 ;;      694 register type nRegs=1
                      03779 ;;      694 register type nRegs=1
                      03780 ;; ***  aopForSym 315
                      03781 ;;      327 sym->rname = _PORTA, size = 1
                      03782 ;;      line = 4227 result AOP_DIR=_PORTA, size=1, left AOP_REG=r0x104E, size=1, right AOP_REG=r0x1051, 
                            size=1
                      03783 ;;      line = 4253 result AOP_DIR=_PORTA, size=1, left AOP_REG=r0x104E, size=1, right AOP_REG=r0x1051, 
                            size=1
                      03784 ;; >>> /home/sdcc-builder/build/sdcc-build/orig/sdcc/src/pic14/gen.c:4479:genOr
                      03785 ;;      1109 rIdx = r0x1051 
040F                  03786 _00175_DS_
040F   ???? ????      03787         BANKSEL r0x1018
0411   08??           03788         MOVF    r0x1018,W
                      03789 ;; >>> /home/sdcc-builder/build/sdcc-build/orig/sdcc/src/pic14/gen.c:4480:genOr
                      03790 ;;      1109 rIdx = r0x104E 
0412   04??           03791         IORWF   r0x1015,W
                      03792 ;; >>> /home/sdcc-builder/build/sdcc-build/orig/sdcc/src/pic14/gen.c:4481:genOr
                      03793 ;;      1009
gpasm-1.4.0 #1106 (Oct  6 2014) obj\Debug\gpi   5-11-2022  02:00:26         PAGE 73


LOC    OBJECT CODE    LINE  SOURCE TEXT
  VALUE

                      03794 ;;      1028  _PORTA   offset=0
0413   ???? ????      03795         BANKSEL _PORTA
0415   00??           03796         MOVWF   _PORTA
                      03797 ;;; /home/sdcc-builder/build/sdcc-build/orig/sdcc/src/pic14/gen.c:2316:resultRemat *{*
                      03798 ;;; /home/sdcc-builder/build/sdcc-build/orig/sdcc/src/pic14/gen.c:2778:genGoto *{*
                      03799 ;; >>> /home/sdcc-builder/build/sdcc-build/orig/sdcc/src/pic14/gen.c:2780:genGoto
                      03800 ;; ***  popGetLabel  key=7, label offset 58
                      03801         .line   52; "gpio.c"    break ;
0416   2???           03802         GOTO    _00165_DS_
                      03803 ;;; /home/sdcc-builder/build/sdcc-build/orig/sdcc/src/pic14/gen.c:2316:resultRemat *{*
                      03804 ;;; /home/sdcc-builder/build/sdcc-build/orig/sdcc/src/pic14/gen.c:2760:genLabel *{*
                      03805 ;; ***  genLabel  2763
                      03806 ;;; /home/sdcc-builder/build/sdcc-build/orig/sdcc/src/pic14/gen.c:2316:resultRemat *{*
                      03807 ;;; /home/sdcc-builder/build/sdcc-build/orig/sdcc/src/pic14/gen.c:5418:genGenericShift *{*
                      03808 ;; ***  genGenericShift  5421
                      03809 ;;      694 register type nRegs=1
                      03810 ;;      694 register type nRegs=1
                      03811 ;; ***  mov2w  1381  offset=0
                      03812 ;; >>> /home/sdcc-builder/build/sdcc-build/orig/sdcc/src/pic14/gen.c:1384:mov2w
0417                  03813 _00160_DS_
                      03814         .line   54; "gpio.c"    SET_REGISTER_BIT(PORTB,pin,pinState) ;
0417   3001           03815         MOVLW   0x01
                      03816 ;; >>> /home/sdcc-builder/build/sdcc-build/orig/sdcc/src/pic14/gen.c:1393:movwf
                      03817 ;;      1109 rIdx = r0x104E 
0418   ???? ????      03818         BANKSEL r0x1015
041A   00??           03819         MOVWF   r0x1015
                      03820 ;; ***  addSign  861
                      03821 ;;; /home/sdcc-builder/build/sdcc-build/orig/sdcc/src/pic14/genarith.c:862:addSign *{*
                      03822 ;; ***  mov2w  1381  offset=0
                      03823 ;; >>> /home/sdcc-builder/build/sdcc-build/orig/sdcc/src/pic14/gen.c:1386:mov2w
                      03824 ;;      1109 rIdx = r0x104F 
041B   08??           03825         MOVF    r0x1016,W
                      03826 ;; >>> /home/sdcc-builder/build/sdcc-build/orig/sdcc/src/pic14/gen.c:5492:genGenericShift
041C   3C00           03827         SUBLW   0x00
                      03828 ;; >>> /home/sdcc-builder/build/sdcc-build/orig/sdcc/src/pic14/gen.c:5494:genGenericShift
041D   1903           03829         BTFSC   STATUS,2
                      03830 ;; >>> /home/sdcc-builder/build/sdcc-build/orig/sdcc/src/pic14/gen.c:5495:genGenericShift
                      03831 ;; ***  popGetLabel  key=19, label offset 58
041E   2???           03832         GOTO    _00177_DS_
                      03833 ;;; /home/sdcc-builder/build/sdcc-build/orig/sdcc/src/pic14/gen.c:5369:genMultiAsm *{*
                      03834 ;; ***  genMultiAsm  5370
                      03835 ;; >>> /home/sdcc-builder/build/sdcc-build/orig/sdcc/src/pic14/gen.c:5387:genMultiAsm
                      03836 ;;      1109 rIdx = r0x104E 
041F                  03837 _00176_DS_
041F   ???? ????      03838         BANKSEL r0x1015
0421   0D??           03839         RLF     r0x1015,F
                      03840 ;; >>> /home/sdcc-builder/build/sdcc-build/orig/sdcc/src/pic14/gen.c:5501:genGenericShift
0422   3E01           03841         ADDLW   0x01
                      03842 ;; >>> /home/sdcc-builder/build/sdcc-build/orig/sdcc/src/pic14/gen.c:5502:genGenericShift
0423   1C03           03843         BTFSS   STATUS,0
                      03844 ;; >>> /home/sdcc-builder/build/sdcc-build/orig/sdcc/src/pic14/gen.c:5503:genGenericShift
                      03845 ;; ***  popGetLabel  key=18, label offset 58
0424   2???           03846         GOTO    _00176_DS_
gpasm-1.4.0 #1106 (Oct  6 2014) obj\Debug\gpi   5-11-2022  02:00:26         PAGE 74


LOC    OBJECT CODE    LINE  SOURCE TEXT
  VALUE

                      03847 ;;; /home/sdcc-builder/build/sdcc-build/orig/sdcc/src/pic14/gen.c:2316:resultRemat *{*
                      03848 ;;; /home/sdcc-builder/build/sdcc-build/orig/sdcc/src/pic14/gen.c:1609:genCpl *{*
                      03849 ;; ***  genCpl  1611
                      03850 ;;      694 register type nRegs=1
                      03851 ;;      694 register type nRegs=1
                      03852 ;; >>> /home/sdcc-builder/build/sdcc-build/orig/sdcc/src/pic14/gen.c:1631:genCpl
                      03853 ;;      1109 rIdx = r0x104E 
0425                  03854 _00177_DS_
0425   ???? ????      03855         BANKSEL r0x1015
0427   09??           03856         COMF    r0x1015,F
0428   ???? ????      03857         BANKSEL _PORTB
042A   08??           03858         MOVF    _PORTB,W
                      03859 ;; >>> /home/sdcc-builder/build/sdcc-build/orig/sdcc/src/pic14/gen.c:4138:genAnd
                      03860 ;;      1109 rIdx = r0x104E 
042B   ???? ????      03861         BANKSEL r0x1015
042D   05??           03862         ANDWF   r0x1015,F
                      03863 ;;; /home/sdcc-builder/build/sdcc-build/orig/sdcc/src/pic14/gen.c:2316:resultRemat *{*
                      03864 ;;; /home/sdcc-builder/build/sdcc-build/orig/sdcc/src/pic14/gen.c:5418:genGenericShift *{*
                      03865 ;; ***  genGenericShift  5421
                      03866 ;;      694 register type nRegs=1
                      03867 ;;      694 register type nRegs=1
                      03868 ;;      694 register type nRegs=1
                      03869 ;; ***  mov2w  1381  offset=0
                      03870 ;; >>> /home/sdcc-builder/build/sdcc-build/orig/sdcc/src/pic14/gen.c:1386:mov2w
                      03871 ;;      1109 rIdx = r0x1050 
042E   08??           03872         MOVF    r0x1017,W
                      03873 ;; >>> /home/sdcc-builder/build/sdcc-build/orig/sdcc/src/pic14/gen.c:1393:movwf
                      03874 ;;      1109 rIdx = r0x1051 
042F   00??           03875         MOVWF   r0x1018
                      03876 ;; ***  addSign  861
                      03877 ;;; /home/sdcc-builder/build/sdcc-build/orig/sdcc/src/pic14/genarith.c:862:addSign *{*
                      03878 ;; ***  mov2w  1381  offset=0
                      03879 ;; >>> /home/sdcc-builder/build/sdcc-build/orig/sdcc/src/pic14/gen.c:1386:mov2w
                      03880 ;;      1109 rIdx = r0x104F 
0430   08??           03881         MOVF    r0x1016,W
                      03882 ;; >>> /home/sdcc-builder/build/sdcc-build/orig/sdcc/src/pic14/gen.c:5492:genGenericShift
0431   3C00           03883         SUBLW   0x00
                      03884 ;; >>> /home/sdcc-builder/build/sdcc-build/orig/sdcc/src/pic14/gen.c:5494:genGenericShift
0432   1903           03885         BTFSC   STATUS,2
                      03886 ;; >>> /home/sdcc-builder/build/sdcc-build/orig/sdcc/src/pic14/gen.c:5495:genGenericShift
                      03887 ;; ***  popGetLabel  key=21, label offset 58
0433   2???           03888         GOTO    _00179_DS_
                      03889 ;;; /home/sdcc-builder/build/sdcc-build/orig/sdcc/src/pic14/gen.c:5369:genMultiAsm *{*
                      03890 ;; ***  genMultiAsm  5370
                      03891 ;; >>> /home/sdcc-builder/build/sdcc-build/orig/sdcc/src/pic14/gen.c:5387:genMultiAsm
                      03892 ;;      1109 rIdx = r0x1051 
0434                  03893 _00178_DS_
0434   ???? ????      03894         BANKSEL r0x1018
0436   0D??           03895         RLF     r0x1018,F
                      03896 ;; >>> /home/sdcc-builder/build/sdcc-build/orig/sdcc/src/pic14/gen.c:5501:genGenericShift
0437   3E01           03897         ADDLW   0x01
                      03898 ;; >>> /home/sdcc-builder/build/sdcc-build/orig/sdcc/src/pic14/gen.c:5502:genGenericShift
0438   1C03           03899         BTFSS   STATUS,0
gpasm-1.4.0 #1106 (Oct  6 2014) obj\Debug\gpi   5-11-2022  02:00:26         PAGE 75


LOC    OBJECT CODE    LINE  SOURCE TEXT
  VALUE

                      03900 ;; >>> /home/sdcc-builder/build/sdcc-build/orig/sdcc/src/pic14/gen.c:5503:genGenericShift
                      03901 ;; ***  popGetLabel  key=20, label offset 58
0439   2???           03902         GOTO    _00178_DS_
                      03903 ;;; /home/sdcc-builder/build/sdcc-build/orig/sdcc/src/pic14/gen.c:2316:resultRemat *{*
                      03904 ;;; /home/sdcc-builder/build/sdcc-build/orig/sdcc/src/pic14/gen.c:4220:genOr *{*
                      03905 ;; ***  genOr  4221
                      03906 ;;      694 register type nRegs=1
                      03907 ;;      694 register type nRegs=1
                      03908 ;; ***  aopForSym 315
                      03909 ;;      327 sym->rname = _PORTB, size = 1
                      03910 ;;      line = 4227 result AOP_DIR=_PORTB, size=1, left AOP_REG=r0x104E, size=1, right AOP_REG=r0x1051, 
                            size=1
                      03911 ;;      line = 4253 result AOP_DIR=_PORTB, size=1, left AOP_REG=r0x104E, size=1, right AOP_REG=r0x1051, 
                            size=1
                      03912 ;; >>> /home/sdcc-builder/build/sdcc-build/orig/sdcc/src/pic14/gen.c:4479:genOr
                      03913 ;;      1109 rIdx = r0x1051 
043A                  03914 _00179_DS_
043A   ???? ????      03915         BANKSEL r0x1018
043C   08??           03916         MOVF    r0x1018,W
                      03917 ;; >>> /home/sdcc-builder/build/sdcc-build/orig/sdcc/src/pic14/gen.c:4480:genOr
                      03918 ;;      1109 rIdx = r0x104E 
043D   04??           03919         IORWF   r0x1015,W
                      03920 ;; >>> /home/sdcc-builder/build/sdcc-build/orig/sdcc/src/pic14/gen.c:4481:genOr
                      03921 ;;      1009
                      03922 ;;      1028  _PORTB   offset=0
043E   ???? ????      03923         BANKSEL _PORTB
0440   00??           03924         MOVWF   _PORTB
                      03925 ;;; /home/sdcc-builder/build/sdcc-build/orig/sdcc/src/pic14/gen.c:2316:resultRemat *{*
                      03926 ;;; /home/sdcc-builder/build/sdcc-build/orig/sdcc/src/pic14/gen.c:2778:genGoto *{*
                      03927 ;; >>> /home/sdcc-builder/build/sdcc-build/orig/sdcc/src/pic14/gen.c:2780:genGoto
                      03928 ;; ***  popGetLabel  key=7, label offset 58
                      03929         .line   55; "gpio.c"    break ;
0441   2???           03930         GOTO    _00165_DS_
                      03931 ;;; /home/sdcc-builder/build/sdcc-build/orig/sdcc/src/pic14/gen.c:2316:resultRemat *{*
                      03932 ;;; /home/sdcc-builder/build/sdcc-build/orig/sdcc/src/pic14/gen.c:2760:genLabel *{*
                      03933 ;; ***  genLabel  2763
                      03934 ;;; /home/sdcc-builder/build/sdcc-build/orig/sdcc/src/pic14/gen.c:2316:resultRemat *{*
                      03935 ;;; /home/sdcc-builder/build/sdcc-build/orig/sdcc/src/pic14/gen.c:5418:genGenericShift *{*
                      03936 ;; ***  genGenericShift  5421
                      03937 ;;      694 register type nRegs=1
                      03938 ;;      694 register type nRegs=1
                      03939 ;; ***  mov2w  1381  offset=0
                      03940 ;; >>> /home/sdcc-builder/build/sdcc-build/orig/sdcc/src/pic14/gen.c:1384:mov2w
0442                  03941 _00161_DS_
                      03942         .line   57; "gpio.c"    SET_REGISTER_BIT(PORTC,pin,pinState) ;
0442   3001           03943         MOVLW   0x01
                      03944 ;; >>> /home/sdcc-builder/build/sdcc-build/orig/sdcc/src/pic14/gen.c:1393:movwf
                      03945 ;;      1109 rIdx = r0x104E 
0443   ???? ????      03946         BANKSEL r0x1015
0445   00??           03947         MOVWF   r0x1015
                      03948 ;; ***  addSign  861
                      03949 ;;; /home/sdcc-builder/build/sdcc-build/orig/sdcc/src/pic14/genarith.c:862:addSign *{*
                      03950 ;; ***  mov2w  1381  offset=0
gpasm-1.4.0 #1106 (Oct  6 2014) obj\Debug\gpi   5-11-2022  02:00:26         PAGE 76


LOC    OBJECT CODE    LINE  SOURCE TEXT
  VALUE

                      03951 ;; >>> /home/sdcc-builder/build/sdcc-build/orig/sdcc/src/pic14/gen.c:1386:mov2w
                      03952 ;;      1109 rIdx = r0x104F 
0446   08??           03953         MOVF    r0x1016,W
                      03954 ;; >>> /home/sdcc-builder/build/sdcc-build/orig/sdcc/src/pic14/gen.c:5492:genGenericShift
0447   3C00           03955         SUBLW   0x00
                      03956 ;; >>> /home/sdcc-builder/build/sdcc-build/orig/sdcc/src/pic14/gen.c:5494:genGenericShift
0448   1903           03957         BTFSC   STATUS,2
                      03958 ;; >>> /home/sdcc-builder/build/sdcc-build/orig/sdcc/src/pic14/gen.c:5495:genGenericShift
                      03959 ;; ***  popGetLabel  key=23, label offset 58
0449   2???           03960         GOTO    _00181_DS_
                      03961 ;;; /home/sdcc-builder/build/sdcc-build/orig/sdcc/src/pic14/gen.c:5369:genMultiAsm *{*
                      03962 ;; ***  genMultiAsm  5370
                      03963 ;; >>> /home/sdcc-builder/build/sdcc-build/orig/sdcc/src/pic14/gen.c:5387:genMultiAsm
                      03964 ;;      1109 rIdx = r0x104E 
044A                  03965 _00180_DS_
044A   ???? ????      03966         BANKSEL r0x1015
044C   0D??           03967         RLF     r0x1015,F
                      03968 ;; >>> /home/sdcc-builder/build/sdcc-build/orig/sdcc/src/pic14/gen.c:5501:genGenericShift
044D   3E01           03969         ADDLW   0x01
                      03970 ;; >>> /home/sdcc-builder/build/sdcc-build/orig/sdcc/src/pic14/gen.c:5502:genGenericShift
044E   1C03           03971         BTFSS   STATUS,0
                      03972 ;; >>> /home/sdcc-builder/build/sdcc-build/orig/sdcc/src/pic14/gen.c:5503:genGenericShift
                      03973 ;; ***  popGetLabel  key=22, label offset 58
044F   2???           03974         GOTO    _00180_DS_
                      03975 ;;; /home/sdcc-builder/build/sdcc-build/orig/sdcc/src/pic14/gen.c:2316:resultRemat *{*
                      03976 ;;; /home/sdcc-builder/build/sdcc-build/orig/sdcc/src/pic14/gen.c:1609:genCpl *{*
                      03977 ;; ***  genCpl  1611
                      03978 ;;      694 register type nRegs=1
                      03979 ;;      694 register type nRegs=1
                      03980 ;; >>> /home/sdcc-builder/build/sdcc-build/orig/sdcc/src/pic14/gen.c:1631:genCpl
                      03981 ;;      1109 rIdx = r0x104E 
0450                  03982 _00181_DS_
0450   ???? ????      03983         BANKSEL r0x1015
0452   09??           03984         COMF    r0x1015,F
0453   ???? ????      03985         BANKSEL _PORTC
0455   08??           03986         MOVF    _PORTC,W
                      03987 ;; >>> /home/sdcc-builder/build/sdcc-build/orig/sdcc/src/pic14/gen.c:4138:genAnd
                      03988 ;;      1109 rIdx = r0x104E 
0456   ???? ????      03989         BANKSEL r0x1015
0458   05??           03990         ANDWF   r0x1015,F
                      03991 ;;; /home/sdcc-builder/build/sdcc-build/orig/sdcc/src/pic14/gen.c:2316:resultRemat *{*
                      03992 ;;; /home/sdcc-builder/build/sdcc-build/orig/sdcc/src/pic14/gen.c:5418:genGenericShift *{*
                      03993 ;; ***  genGenericShift  5421
                      03994 ;;      694 register type nRegs=1
                      03995 ;;      694 register type nRegs=1
                      03996 ;;      694 register type nRegs=1
                      03997 ;; ***  mov2w  1381  offset=0
                      03998 ;; >>> /home/sdcc-builder/build/sdcc-build/orig/sdcc/src/pic14/gen.c:1386:mov2w
                      03999 ;;      1109 rIdx = r0x1050 
0459   08??           04000         MOVF    r0x1017,W
                      04001 ;; >>> /home/sdcc-builder/build/sdcc-build/orig/sdcc/src/pic14/gen.c:1393:movwf
                      04002 ;;      1109 rIdx = r0x1051 
045A   00??           04003         MOVWF   r0x1018
gpasm-1.4.0 #1106 (Oct  6 2014) obj\Debug\gpi   5-11-2022  02:00:26         PAGE 77


LOC    OBJECT CODE    LINE  SOURCE TEXT
  VALUE

                      04004 ;; ***  addSign  861
                      04005 ;;; /home/sdcc-builder/build/sdcc-build/orig/sdcc/src/pic14/genarith.c:862:addSign *{*
                      04006 ;; ***  mov2w  1381  offset=0
                      04007 ;; >>> /home/sdcc-builder/build/sdcc-build/orig/sdcc/src/pic14/gen.c:1386:mov2w
                      04008 ;;      1109 rIdx = r0x104F 
045B   08??           04009         MOVF    r0x1016,W
                      04010 ;; >>> /home/sdcc-builder/build/sdcc-build/orig/sdcc/src/pic14/gen.c:5492:genGenericShift
045C   3C00           04011         SUBLW   0x00
                      04012 ;; >>> /home/sdcc-builder/build/sdcc-build/orig/sdcc/src/pic14/gen.c:5494:genGenericShift
045D   1903           04013         BTFSC   STATUS,2
                      04014 ;; >>> /home/sdcc-builder/build/sdcc-build/orig/sdcc/src/pic14/gen.c:5495:genGenericShift
                      04015 ;; ***  popGetLabel  key=25, label offset 58
045E   2???           04016         GOTO    _00183_DS_
                      04017 ;;; /home/sdcc-builder/build/sdcc-build/orig/sdcc/src/pic14/gen.c:5369:genMultiAsm *{*
                      04018 ;; ***  genMultiAsm  5370
                      04019 ;; >>> /home/sdcc-builder/build/sdcc-build/orig/sdcc/src/pic14/gen.c:5387:genMultiAsm
                      04020 ;;      1109 rIdx = r0x1051 
045F                  04021 _00182_DS_
045F   ???? ????      04022         BANKSEL r0x1018
0461   0D??           04023         RLF     r0x1018,F
                      04024 ;; >>> /home/sdcc-builder/build/sdcc-build/orig/sdcc/src/pic14/gen.c:5501:genGenericShift
0462   3E01           04025         ADDLW   0x01
                      04026 ;; >>> /home/sdcc-builder/build/sdcc-build/orig/sdcc/src/pic14/gen.c:5502:genGenericShift
0463   1C03           04027         BTFSS   STATUS,0
                      04028 ;; >>> /home/sdcc-builder/build/sdcc-build/orig/sdcc/src/pic14/gen.c:5503:genGenericShift
                      04029 ;; ***  popGetLabel  key=24, label offset 58
0464   2???           04030         GOTO    _00182_DS_
                      04031 ;;; /home/sdcc-builder/build/sdcc-build/orig/sdcc/src/pic14/gen.c:2316:resultRemat *{*
                      04032 ;;; /home/sdcc-builder/build/sdcc-build/orig/sdcc/src/pic14/gen.c:4220:genOr *{*
                      04033 ;; ***  genOr  4221
                      04034 ;;      694 register type nRegs=1
                      04035 ;;      694 register type nRegs=1
                      04036 ;; ***  aopForSym 315
                      04037 ;;      327 sym->rname = _PORTC, size = 1
                      04038 ;;      line = 4227 result AOP_DIR=_PORTC, size=1, left AOP_REG=r0x104E, size=1, right AOP_REG=r0x1051, 
                            size=1
                      04039 ;;      line = 4253 result AOP_DIR=_PORTC, size=1, left AOP_REG=r0x104E, size=1, right AOP_REG=r0x1051, 
                            size=1
                      04040 ;; >>> /home/sdcc-builder/build/sdcc-build/orig/sdcc/src/pic14/gen.c:4479:genOr
                      04041 ;;      1109 rIdx = r0x1051 
0465                  04042 _00183_DS_
0465   ???? ????      04043         BANKSEL r0x1018
0467   08??           04044         MOVF    r0x1018,W
                      04045 ;; >>> /home/sdcc-builder/build/sdcc-build/orig/sdcc/src/pic14/gen.c:4480:genOr
                      04046 ;;      1109 rIdx = r0x104E 
0468   04??           04047         IORWF   r0x1015,W
                      04048 ;; >>> /home/sdcc-builder/build/sdcc-build/orig/sdcc/src/pic14/gen.c:4481:genOr
                      04049 ;;      1009
                      04050 ;;      1028  _PORTC   offset=0
0469   ???? ????      04051         BANKSEL _PORTC
046B   00??           04052         MOVWF   _PORTC
                      04053 ;;; /home/sdcc-builder/build/sdcc-build/orig/sdcc/src/pic14/gen.c:2316:resultRemat *{*
                      04054 ;;; /home/sdcc-builder/build/sdcc-build/orig/sdcc/src/pic14/gen.c:2778:genGoto *{*
gpasm-1.4.0 #1106 (Oct  6 2014) obj\Debug\gpi   5-11-2022  02:00:26         PAGE 78


LOC    OBJECT CODE    LINE  SOURCE TEXT
  VALUE

                      04055 ;; >>> /home/sdcc-builder/build/sdcc-build/orig/sdcc/src/pic14/gen.c:2780:genGoto
                      04056 ;; ***  popGetLabel  key=7, label offset 58
                      04057         .line   58; "gpio.c"    break ;
046C   2???           04058         GOTO    _00165_DS_
                      04059 ;;; /home/sdcc-builder/build/sdcc-build/orig/sdcc/src/pic14/gen.c:2316:resultRemat *{*
                      04060 ;;; /home/sdcc-builder/build/sdcc-build/orig/sdcc/src/pic14/gen.c:2760:genLabel *{*
                      04061 ;; ***  genLabel  2763
                      04062 ;;; /home/sdcc-builder/build/sdcc-build/orig/sdcc/src/pic14/gen.c:2316:resultRemat *{*
                      04063 ;;; /home/sdcc-builder/build/sdcc-build/orig/sdcc/src/pic14/gen.c:5418:genGenericShift *{*
                      04064 ;; ***  genGenericShift  5421
                      04065 ;;      694 register type nRegs=1
                      04066 ;;      694 register type nRegs=1
                      04067 ;; ***  mov2w  1381  offset=0
                      04068 ;; >>> /home/sdcc-builder/build/sdcc-build/orig/sdcc/src/pic14/gen.c:1384:mov2w
046D                  04069 _00162_DS_
                      04070         .line   60; "gpio.c"    SET_REGISTER_BIT(PORTD,pin,pinState) ;
046D   3001           04071         MOVLW   0x01
                      04072 ;; >>> /home/sdcc-builder/build/sdcc-build/orig/sdcc/src/pic14/gen.c:1393:movwf
                      04073 ;;      1109 rIdx = r0x104E 
046E   ???? ????      04074         BANKSEL r0x1015
0470   00??           04075         MOVWF   r0x1015
                      04076 ;; ***  addSign  861
                      04077 ;;; /home/sdcc-builder/build/sdcc-build/orig/sdcc/src/pic14/genarith.c:862:addSign *{*
                      04078 ;; ***  mov2w  1381  offset=0
                      04079 ;; >>> /home/sdcc-builder/build/sdcc-build/orig/sdcc/src/pic14/gen.c:1386:mov2w
                      04080 ;;      1109 rIdx = r0x104F 
0471   08??           04081         MOVF    r0x1016,W
                      04082 ;; >>> /home/sdcc-builder/build/sdcc-build/orig/sdcc/src/pic14/gen.c:5492:genGenericShift
0472   3C00           04083         SUBLW   0x00
                      04084 ;; >>> /home/sdcc-builder/build/sdcc-build/orig/sdcc/src/pic14/gen.c:5494:genGenericShift
0473   1903           04085         BTFSC   STATUS,2
                      04086 ;; >>> /home/sdcc-builder/build/sdcc-build/orig/sdcc/src/pic14/gen.c:5495:genGenericShift
                      04087 ;; ***  popGetLabel  key=27, label offset 58
0474   2???           04088         GOTO    _00185_DS_
                      04089 ;;; /home/sdcc-builder/build/sdcc-build/orig/sdcc/src/pic14/gen.c:5369:genMultiAsm *{*
                      04090 ;; ***  genMultiAsm  5370
                      04091 ;; >>> /home/sdcc-builder/build/sdcc-build/orig/sdcc/src/pic14/gen.c:5387:genMultiAsm
                      04092 ;;      1109 rIdx = r0x104E 
0475                  04093 _00184_DS_
0475   ???? ????      04094         BANKSEL r0x1015
0477   0D??           04095         RLF     r0x1015,F
                      04096 ;; >>> /home/sdcc-builder/build/sdcc-build/orig/sdcc/src/pic14/gen.c:5501:genGenericShift
0478   3E01           04097         ADDLW   0x01
                      04098 ;; >>> /home/sdcc-builder/build/sdcc-build/orig/sdcc/src/pic14/gen.c:5502:genGenericShift
0479   1C03           04099         BTFSS   STATUS,0
                      04100 ;; >>> /home/sdcc-builder/build/sdcc-build/orig/sdcc/src/pic14/gen.c:5503:genGenericShift
                      04101 ;; ***  popGetLabel  key=26, label offset 58
047A   2???           04102         GOTO    _00184_DS_
                      04103 ;;; /home/sdcc-builder/build/sdcc-build/orig/sdcc/src/pic14/gen.c:2316:resultRemat *{*
                      04104 ;;; /home/sdcc-builder/build/sdcc-build/orig/sdcc/src/pic14/gen.c:1609:genCpl *{*
                      04105 ;; ***  genCpl  1611
                      04106 ;;      694 register type nRegs=1
                      04107 ;;      694 register type nRegs=1
gpasm-1.4.0 #1106 (Oct  6 2014) obj\Debug\gpi   5-11-2022  02:00:26         PAGE 79


LOC    OBJECT CODE    LINE  SOURCE TEXT
  VALUE

                      04108 ;; >>> /home/sdcc-builder/build/sdcc-build/orig/sdcc/src/pic14/gen.c:1631:genCpl
                      04109 ;;      1109 rIdx = r0x104E 
047B                  04110 _00185_DS_
047B   ???? ????      04111         BANKSEL r0x1015
047D   09??           04112         COMF    r0x1015,F
047E   ???? ????      04113         BANKSEL _PORTD
0480   08??           04114         MOVF    _PORTD,W
                      04115 ;; >>> /home/sdcc-builder/build/sdcc-build/orig/sdcc/src/pic14/gen.c:4138:genAnd
                      04116 ;;      1109 rIdx = r0x104E 
0481   ???? ????      04117         BANKSEL r0x1015
0483   05??           04118         ANDWF   r0x1015,F
                      04119 ;;; /home/sdcc-builder/build/sdcc-build/orig/sdcc/src/pic14/gen.c:2316:resultRemat *{*
                      04120 ;;; /home/sdcc-builder/build/sdcc-build/orig/sdcc/src/pic14/gen.c:5418:genGenericShift *{*
                      04121 ;; ***  genGenericShift  5421
                      04122 ;;      694 register type nRegs=1
                      04123 ;;      694 register type nRegs=1
                      04124 ;;      694 register type nRegs=1
                      04125 ;; ***  mov2w  1381  offset=0
                      04126 ;; >>> /home/sdcc-builder/build/sdcc-build/orig/sdcc/src/pic14/gen.c:1386:mov2w
                      04127 ;;      1109 rIdx = r0x1050 
0484   08??           04128         MOVF    r0x1017,W
                      04129 ;; >>> /home/sdcc-builder/build/sdcc-build/orig/sdcc/src/pic14/gen.c:1393:movwf
                      04130 ;;      1109 rIdx = r0x1051 
0485   00??           04131         MOVWF   r0x1018
                      04132 ;; ***  addSign  861
                      04133 ;;; /home/sdcc-builder/build/sdcc-build/orig/sdcc/src/pic14/genarith.c:862:addSign *{*
                      04134 ;; ***  mov2w  1381  offset=0
                      04135 ;; >>> /home/sdcc-builder/build/sdcc-build/orig/sdcc/src/pic14/gen.c:1386:mov2w
                      04136 ;;      1109 rIdx = r0x104F 
0486   08??           04137         MOVF    r0x1016,W
                      04138 ;; >>> /home/sdcc-builder/build/sdcc-build/orig/sdcc/src/pic14/gen.c:5492:genGenericShift
0487   3C00           04139         SUBLW   0x00
                      04140 ;; >>> /home/sdcc-builder/build/sdcc-build/orig/sdcc/src/pic14/gen.c:5494:genGenericShift
0488   1903           04141         BTFSC   STATUS,2
                      04142 ;; >>> /home/sdcc-builder/build/sdcc-build/orig/sdcc/src/pic14/gen.c:5495:genGenericShift
                      04143 ;; ***  popGetLabel  key=29, label offset 58
0489   2???           04144         GOTO    _00187_DS_
                      04145 ;;; /home/sdcc-builder/build/sdcc-build/orig/sdcc/src/pic14/gen.c:5369:genMultiAsm *{*
                      04146 ;; ***  genMultiAsm  5370
                      04147 ;; >>> /home/sdcc-builder/build/sdcc-build/orig/sdcc/src/pic14/gen.c:5387:genMultiAsm
                      04148 ;;      1109 rIdx = r0x1051 
048A                  04149 _00186_DS_
048A   ???? ????      04150         BANKSEL r0x1018
048C   0D??           04151         RLF     r0x1018,F
                      04152 ;; >>> /home/sdcc-builder/build/sdcc-build/orig/sdcc/src/pic14/gen.c:5501:genGenericShift
048D   3E01           04153         ADDLW   0x01
                      04154 ;; >>> /home/sdcc-builder/build/sdcc-build/orig/sdcc/src/pic14/gen.c:5502:genGenericShift
048E   1C03           04155         BTFSS   STATUS,0
                      04156 ;; >>> /home/sdcc-builder/build/sdcc-build/orig/sdcc/src/pic14/gen.c:5503:genGenericShift
                      04157 ;; ***  popGetLabel  key=28, label offset 58
048F   2???           04158         GOTO    _00186_DS_
                      04159 ;;; /home/sdcc-builder/build/sdcc-build/orig/sdcc/src/pic14/gen.c:2316:resultRemat *{*
                      04160 ;;; /home/sdcc-builder/build/sdcc-build/orig/sdcc/src/pic14/gen.c:4220:genOr *{*
gpasm-1.4.0 #1106 (Oct  6 2014) obj\Debug\gpi   5-11-2022  02:00:26         PAGE 80


LOC    OBJECT CODE    LINE  SOURCE TEXT
  VALUE

                      04161 ;; ***  genOr  4221
                      04162 ;;      694 register type nRegs=1
                      04163 ;;      694 register type nRegs=1
                      04164 ;; ***  aopForSym 315
                      04165 ;;      327 sym->rname = _PORTD, size = 1
                      04166 ;;      line = 4227 result AOP_DIR=_PORTD, size=1, left AOP_REG=r0x104E, size=1, right AOP_REG=r0x1051, 
                            size=1
                      04167 ;;      line = 4253 result AOP_DIR=_PORTD, size=1, left AOP_REG=r0x104E, size=1, right AOP_REG=r0x1051, 
                            size=1
                      04168 ;; >>> /home/sdcc-builder/build/sdcc-build/orig/sdcc/src/pic14/gen.c:4479:genOr
                      04169 ;;      1109 rIdx = r0x1051 
0490                  04170 _00187_DS_
0490   ???? ????      04171         BANKSEL r0x1018
0492   08??           04172         MOVF    r0x1018,W
                      04173 ;; >>> /home/sdcc-builder/build/sdcc-build/orig/sdcc/src/pic14/gen.c:4480:genOr
                      04174 ;;      1109 rIdx = r0x104E 
0493   04??           04175         IORWF   r0x1015,W
                      04176 ;; >>> /home/sdcc-builder/build/sdcc-build/orig/sdcc/src/pic14/gen.c:4481:genOr
                      04177 ;;      1009
                      04178 ;;      1028  _PORTD   offset=0
0494   ???? ????      04179         BANKSEL _PORTD
0496   00??           04180         MOVWF   _PORTD
                      04181 ;;; /home/sdcc-builder/build/sdcc-build/orig/sdcc/src/pic14/gen.c:2316:resultRemat *{*
                      04182 ;;; /home/sdcc-builder/build/sdcc-build/orig/sdcc/src/pic14/gen.c:2778:genGoto *{*
                      04183 ;; >>> /home/sdcc-builder/build/sdcc-build/orig/sdcc/src/pic14/gen.c:2780:genGoto
                      04184 ;; ***  popGetLabel  key=7, label offset 58
                      04185         .line   61; "gpio.c"    break ;
0497   2???           04186         GOTO    _00165_DS_
                      04187 ;;; /home/sdcc-builder/build/sdcc-build/orig/sdcc/src/pic14/gen.c:2316:resultRemat *{*
                      04188 ;;; /home/sdcc-builder/build/sdcc-build/orig/sdcc/src/pic14/gen.c:2760:genLabel *{*
                      04189 ;; ***  genLabel  2763
                      04190 ;;; /home/sdcc-builder/build/sdcc-build/orig/sdcc/src/pic14/gen.c:2316:resultRemat *{*
                      04191 ;;; /home/sdcc-builder/build/sdcc-build/orig/sdcc/src/pic14/gen.c:5418:genGenericShift *{*
                      04192 ;; ***  genGenericShift  5421
                      04193 ;;      694 register type nRegs=1
                      04194 ;;      694 register type nRegs=1
                      04195 ;; ***  mov2w  1381  offset=0
                      04196 ;; >>> /home/sdcc-builder/build/sdcc-build/orig/sdcc/src/pic14/gen.c:1384:mov2w
0498                  04197 _00163_DS_
                      04198         .line   63; "gpio.c"    SET_REGISTER_BIT(PORTE,pin,pinState) ;
0498   3001           04199         MOVLW   0x01
                      04200 ;; >>> /home/sdcc-builder/build/sdcc-build/orig/sdcc/src/pic14/gen.c:1393:movwf
                      04201 ;;      1109 rIdx = r0x104E 
0499   ???? ????      04202         BANKSEL r0x1015
049B   00??           04203         MOVWF   r0x1015
                      04204 ;; ***  addSign  861
                      04205 ;;; /home/sdcc-builder/build/sdcc-build/orig/sdcc/src/pic14/genarith.c:862:addSign *{*
                      04206 ;; ***  mov2w  1381  offset=0
                      04207 ;; >>> /home/sdcc-builder/build/sdcc-build/orig/sdcc/src/pic14/gen.c:1386:mov2w
                      04208 ;;      1109 rIdx = r0x104F 
049C   08??           04209         MOVF    r0x1016,W
                      04210 ;; >>> /home/sdcc-builder/build/sdcc-build/orig/sdcc/src/pic14/gen.c:5492:genGenericShift
049D   3C00           04211         SUBLW   0x00
gpasm-1.4.0 #1106 (Oct  6 2014) obj\Debug\gpi   5-11-2022  02:00:26         PAGE 81


LOC    OBJECT CODE    LINE  SOURCE TEXT
  VALUE

                      04212 ;; >>> /home/sdcc-builder/build/sdcc-build/orig/sdcc/src/pic14/gen.c:5494:genGenericShift
049E   1903           04213         BTFSC   STATUS,2
                      04214 ;; >>> /home/sdcc-builder/build/sdcc-build/orig/sdcc/src/pic14/gen.c:5495:genGenericShift
                      04215 ;; ***  popGetLabel  key=31, label offset 58
049F   2???           04216         GOTO    _00189_DS_
                      04217 ;;; /home/sdcc-builder/build/sdcc-build/orig/sdcc/src/pic14/gen.c:5369:genMultiAsm *{*
                      04218 ;; ***  genMultiAsm  5370
                      04219 ;; >>> /home/sdcc-builder/build/sdcc-build/orig/sdcc/src/pic14/gen.c:5387:genMultiAsm
                      04220 ;;      1109 rIdx = r0x104E 
04A0                  04221 _00188_DS_
04A0   ???? ????      04222         BANKSEL r0x1015
04A2   0D??           04223         RLF     r0x1015,F
                      04224 ;; >>> /home/sdcc-builder/build/sdcc-build/orig/sdcc/src/pic14/gen.c:5501:genGenericShift
04A3   3E01           04225         ADDLW   0x01
                      04226 ;; >>> /home/sdcc-builder/build/sdcc-build/orig/sdcc/src/pic14/gen.c:5502:genGenericShift
04A4   1C03           04227         BTFSS   STATUS,0
                      04228 ;; >>> /home/sdcc-builder/build/sdcc-build/orig/sdcc/src/pic14/gen.c:5503:genGenericShift
                      04229 ;; ***  popGetLabel  key=30, label offset 58
04A5   2???           04230         GOTO    _00188_DS_
                      04231 ;;; /home/sdcc-builder/build/sdcc-build/orig/sdcc/src/pic14/gen.c:2316:resultRemat *{*
                      04232 ;;; /home/sdcc-builder/build/sdcc-build/orig/sdcc/src/pic14/gen.c:1609:genCpl *{*
                      04233 ;; ***  genCpl  1611
                      04234 ;;      694 register type nRegs=1
                      04235 ;;      694 register type nRegs=1
                      04236 ;; >>> /home/sdcc-builder/build/sdcc-build/orig/sdcc/src/pic14/gen.c:1631:genCpl
                      04237 ;;      1109 rIdx = r0x104E 
04A6                  04238 _00189_DS_
04A6   ???? ????      04239         BANKSEL r0x1015
04A8   09??           04240         COMF    r0x1015,F
04A9   ???? ????      04241         BANKSEL _PORTE
04AB   08??           04242         MOVF    _PORTE,W
                      04243 ;; >>> /home/sdcc-builder/build/sdcc-build/orig/sdcc/src/pic14/gen.c:4138:genAnd
                      04244 ;;      1109 rIdx = r0x104E 
04AC   ???? ????      04245         BANKSEL r0x1015
04AE   05??           04246         ANDWF   r0x1015,F
                      04247 ;;; /home/sdcc-builder/build/sdcc-build/orig/sdcc/src/pic14/gen.c:2316:resultRemat *{*
                      04248 ;;; /home/sdcc-builder/build/sdcc-build/orig/sdcc/src/pic14/gen.c:5418:genGenericShift *{*
                      04249 ;; ***  genGenericShift  5421
                      04250 ;;      694 register type nRegs=1
                      04251 ;;      694 register type nRegs=1
                      04252 ;;      694 register type nRegs=1
                      04253 ;; ***  mov2w  1381  offset=0
                      04254 ;; >>> /home/sdcc-builder/build/sdcc-build/orig/sdcc/src/pic14/gen.c:1386:mov2w
                      04255 ;;      1109 rIdx = r0x1050 
04AF   08??           04256         MOVF    r0x1017,W
                      04257 ;; >>> /home/sdcc-builder/build/sdcc-build/orig/sdcc/src/pic14/gen.c:1393:movwf
                      04258 ;;      1109 rIdx = r0x1051 
04B0   00??           04259         MOVWF   r0x1018
                      04260 ;; ***  addSign  861
                      04261 ;;; /home/sdcc-builder/build/sdcc-build/orig/sdcc/src/pic14/genarith.c:862:addSign *{*
                      04262 ;; ***  mov2w  1381  offset=0
                      04263 ;; >>> /home/sdcc-builder/build/sdcc-build/orig/sdcc/src/pic14/gen.c:1386:mov2w
                      04264 ;;      1109 rIdx = r0x104F 
gpasm-1.4.0 #1106 (Oct  6 2014) obj\Debug\gpi   5-11-2022  02:00:26         PAGE 82


LOC    OBJECT CODE    LINE  SOURCE TEXT
  VALUE

04B1   08??           04265         MOVF    r0x1016,W
                      04266 ;; >>> /home/sdcc-builder/build/sdcc-build/orig/sdcc/src/pic14/gen.c:5492:genGenericShift
04B2   3C00           04267         SUBLW   0x00
                      04268 ;; >>> /home/sdcc-builder/build/sdcc-build/orig/sdcc/src/pic14/gen.c:5494:genGenericShift
04B3   1903           04269         BTFSC   STATUS,2
                      04270 ;; >>> /home/sdcc-builder/build/sdcc-build/orig/sdcc/src/pic14/gen.c:5495:genGenericShift
                      04271 ;; ***  popGetLabel  key=33, label offset 58
04B4   2???           04272         GOTO    _00191_DS_
                      04273 ;;; /home/sdcc-builder/build/sdcc-build/orig/sdcc/src/pic14/gen.c:5369:genMultiAsm *{*
                      04274 ;; ***  genMultiAsm  5370
                      04275 ;; >>> /home/sdcc-builder/build/sdcc-build/orig/sdcc/src/pic14/gen.c:5387:genMultiAsm
                      04276 ;;      1109 rIdx = r0x1051 
04B5                  04277 _00190_DS_
04B5   ???? ????      04278         BANKSEL r0x1018
04B7   0D??           04279         RLF     r0x1018,F
                      04280 ;; >>> /home/sdcc-builder/build/sdcc-build/orig/sdcc/src/pic14/gen.c:5501:genGenericShift
04B8   3E01           04281         ADDLW   0x01
                      04282 ;; >>> /home/sdcc-builder/build/sdcc-build/orig/sdcc/src/pic14/gen.c:5502:genGenericShift
04B9   1C03           04283         BTFSS   STATUS,0
                      04284 ;; >>> /home/sdcc-builder/build/sdcc-build/orig/sdcc/src/pic14/gen.c:5503:genGenericShift
                      04285 ;; ***  popGetLabel  key=32, label offset 58
04BA   2???           04286         GOTO    _00190_DS_
                      04287 ;;; /home/sdcc-builder/build/sdcc-build/orig/sdcc/src/pic14/gen.c:2316:resultRemat *{*
                      04288 ;;; /home/sdcc-builder/build/sdcc-build/orig/sdcc/src/pic14/gen.c:4220:genOr *{*
                      04289 ;; ***  genOr  4221
                      04290 ;;      694 register type nRegs=1
                      04291 ;;      694 register type nRegs=1
                      04292 ;; ***  aopForSym 315
                      04293 ;;      327 sym->rname = _PORTE, size = 1
                      04294 ;;      line = 4227 result AOP_DIR=_PORTE, size=1, left AOP_REG=r0x104E, size=1, right AOP_REG=r0x1051, 
                            size=1
                      04295 ;;      line = 4253 result AOP_DIR=_PORTE, size=1, left AOP_REG=r0x104E, size=1, right AOP_REG=r0x1051, 
                            size=1
                      04296 ;; >>> /home/sdcc-builder/build/sdcc-build/orig/sdcc/src/pic14/gen.c:4479:genOr
                      04297 ;;      1109 rIdx = r0x1051 
04BB                  04298 _00191_DS_
04BB   ???? ????      04299         BANKSEL r0x1018
04BD   08??           04300         MOVF    r0x1018,W
                      04301 ;; >>> /home/sdcc-builder/build/sdcc-build/orig/sdcc/src/pic14/gen.c:4480:genOr
                      04302 ;;      1109 rIdx = r0x104E 
04BE   04??           04303         IORWF   r0x1015,W
                      04304 ;; >>> /home/sdcc-builder/build/sdcc-build/orig/sdcc/src/pic14/gen.c:4481:genOr
                      04305 ;;      1009
                      04306 ;;      1028  _PORTE   offset=0
04BF   ???? ????      04307         BANKSEL _PORTE
04C1   00??           04308         MOVWF   _PORTE
                      04309 ;;; /home/sdcc-builder/build/sdcc-build/orig/sdcc/src/pic14/gen.c:2316:resultRemat *{*
                      04310 ;;; /home/sdcc-builder/build/sdcc-build/orig/sdcc/src/pic14/gen.c:2760:genLabel *{*
                      04311 ;; ***  genLabel  2763
                      04312 ;;; /home/sdcc-builder/build/sdcc-build/orig/sdcc/src/pic14/gen.c:2316:resultRemat *{*
                      04313 ;;; /home/sdcc-builder/build/sdcc-build/orig/sdcc/src/pic14/gen.c:2528:genEndFunction *{*
                      04314 ;; ***  genEndFunction  2530
04C2                  04315 _00165_DS_
gpasm-1.4.0 #1106 (Oct  6 2014) obj\Debug\gpi   5-11-2022  02:00:26         PAGE 83


LOC    OBJECT CODE    LINE  SOURCE TEXT
  VALUE

                      04316         .line   65; "gpio.c"    }
04C2   0008           04317         RETURN  
                      04318 ; exit point of _GPIO_SetPinState
                      04319 ;;; /home/sdcc-builder/build/sdcc-build/orig/sdcc/src/pic14/gen.c:7426:genpic14Code *{*
                      04320 
                      04321 ;***
                      04322 ;  pBlock Stats: dbName = C
                      04323 ;***
                      04324 ;entry:  _GPIO_InitPort ;Function start
                      04325 ; 2 exit points
                      04326 ;has an exit
                      04327 ;3 compiler assigned registers:
                      04328 ;   r0x1019
                      04329 ;   STK00
                      04330 ;   r0x101A
                      04331 ;; Starting pCode block
                      04332 ;;; /home/sdcc-builder/build/sdcc-build/orig/sdcc/src/pic14/gen.c:2316:resultRemat *{*
                      04333 ;;; /home/sdcc-builder/build/sdcc-build/orig/sdcc/src/pic14/gen.c:2760:genLabel *{*
                      04334 ;; ***  genLabel  2763
                      04335 ;;; /home/sdcc-builder/build/sdcc-build/orig/sdcc/src/pic14/gen.c:2316:resultRemat *{*
                      04336 ;;; /home/sdcc-builder/build/sdcc-build/orig/sdcc/src/pic14/gen.c:2340:genFunction *{*
                      04337 ;; ***  genFunction  2342 curr label offset=4previous max_key=33 
04C3                  04338 _GPIO_InitPort  ;Function start
                      04339 ; 2 exit points
                      04340 ;;; /home/sdcc-builder/build/sdcc-build/orig/sdcc/src/pic14/gen.c:2316:resultRemat *{*
                      04341 ;;; /home/sdcc-builder/build/sdcc-build/orig/sdcc/src/pic14/gen.c:7358:genReceive *{*
                      04342 ;; ***  genReceive  7359
                      04343 ;;      694 register type nRegs=1
                      04344 ;;; /home/sdcc-builder/build/sdcc-build/orig/sdcc/src/pic14/gen.c:1907:assignResultValue *{*
                      04345 ;; ***  assignResultValue  1909
                      04346 ;;      line = 1911 result -=-, size=0, left AOP_REG=r0x104C, size=1, right -=-, size=0
                      04347 ;; >>> /home/sdcc-builder/build/sdcc-build/orig/sdcc/src/pic14/gen.c:1393:movwf
                      04348 ;;      1109 rIdx = r0x104C 
                      04349         .line   25; "gpio.c"    void GPIO_InitPort(tPORT port,unsigned char portDirection )
04C3   ???? ????      04350         BANKSEL r0x1019
04C5   00??           04351         MOVWF   r0x1019
                      04352 ;;; /home/sdcc-builder/build/sdcc-build/orig/sdcc/src/pic14/gen.c:2316:resultRemat *{*
                      04353 ;;; /home/sdcc-builder/build/sdcc-build/orig/sdcc/src/pic14/gen.c:7358:genReceive *{*
                      04354 ;; ***  genReceive  7359
                      04355 ;;      694 register type nRegs=1
                      04356 ;;; /home/sdcc-builder/build/sdcc-build/orig/sdcc/src/pic14/gen.c:1907:assignResultValue *{*
                      04357 ;; ***  assignResultValue  1909
                      04358 ;;      line = 1911 result -=-, size=0, left AOP_REG=r0x104D, size=1, right -=-, size=0
                      04359 ;; >>> /home/sdcc-builder/build/sdcc-build/orig/sdcc/src/pic14/gen.c:1423:get_returnvalue
                      04360 ;; ***  popRegFromIdx,1042  , rIdx=0x7f
04C6   08??           04361         MOVF    STK00,W
                      04362 ;; >>> /home/sdcc-builder/build/sdcc-build/orig/sdcc/src/pic14/gen.c:1393:movwf
                      04363 ;;      1109 rIdx = r0x104D 
04C7   00??           04364         MOVWF   r0x101A
                      04365 ;;; /home/sdcc-builder/build/sdcc-build/orig/sdcc/src/pic14/gen.c:2316:resultRemat *{*
                      04366 ;;; /home/sdcc-builder/build/sdcc-build/orig/sdcc/src/pic14/gen.c:3547:genCmpGt *{*
                      04367 ;; ***  genCmpGt  3548
                      04368 ;;      694 register type nRegs=1
gpasm-1.4.0 #1106 (Oct  6 2014) obj\Debug\gpi   5-11-2022  02:00:26         PAGE 84


LOC    OBJECT CODE    LINE  SOURCE TEXT
  VALUE

                      04369 ;;; /home/sdcc-builder/build/sdcc-build/orig/sdcc/src/pic14/gen.c:3294:genCmp *{*
                      04370 ;;swapping arguments (AOP_TYPEs 1/2)
                      04371 ;;unsigned compare: left >= lit(0x5=5), size=1
                      04372 ;; >>> /home/sdcc-builder/build/sdcc-build/orig/sdcc/src/pic14/gen.c:3265:pic14_mov2w_regOrLit
                      04373         .line   27; "gpio.c"    switch(port)
04C8   3005           04374         MOVLW   0x05
                      04375 ;; >>> /home/sdcc-builder/build/sdcc-build/orig/sdcc/src/pic14/gen.c:3432:genCmp
                      04376 ;;      1109 rIdx = r0x104C 
04C9   02??           04377         SUBWF   r0x1019,W
                      04378 ;;; /home/sdcc-builder/build/sdcc-build/orig/sdcc/src/pic14/gen.c:3237:genSkipc *{*
                      04379 ;; >>> /home/sdcc-builder/build/sdcc-build/orig/sdcc/src/pic14/gen.c:3242:genSkipc
04CA   1803           04380         BTFSC   STATUS,0
                      04381 ;; >>> /home/sdcc-builder/build/sdcc-build/orig/sdcc/src/pic14/gen.c:3246:genSkipc
                      04382 ;; ***  popGetLabel  key=7, label offset 41
04CB   2???           04383         GOTO    _00148_DS_
                      04384 ;;genSkipc:3247: created from rifx:027A5DF4
                      04385 ;;; /home/sdcc-builder/build/sdcc-build/orig/sdcc/src/pic14/gen.c:2316:resultRemat *{*
                      04386 ;;; /home/sdcc-builder/build/sdcc-build/orig/sdcc/src/pic14/gen.c:2316:resultRemat *{*
                      04387 ;;; /home/sdcc-builder/build/sdcc-build/orig/sdcc/src/pic14/gen.c:7071:genJumpTab *{*
                      04388 ;; ***  genJumpTab  7072
                      04389 ;;      694 register type nRegs=1
                      04390 ;; >>> /home/sdcc-builder/build/sdcc-build/orig/sdcc/src/pic14/gen.c:7087:genJumpTab
                      04391 ;; ***  popGetLabel  key=13, label offset 41
04CC   30??           04392         MOVLW   HIGH(_00154_DS_)
                      04393 ;; >>> /home/sdcc-builder/build/sdcc-build/orig/sdcc/src/pic14/gen.c:7088:genJumpTab
04CD   1283 1303      04394         BANKSEL PCLATH
04CF   008A           04395         MOVWF   PCLATH
                      04396 ;; >>> /home/sdcc-builder/build/sdcc-build/orig/sdcc/src/pic14/gen.c:7089:genJumpTab
                      04397 ;; ***  popGetLabel  key=13, label offset 41
04D0   30??           04398         MOVLW   _00154_DS_
                      04399 ;; >>> /home/sdcc-builder/build/sdcc-build/orig/sdcc/src/pic14/gen.c:7090:genJumpTab
                      04400 ;;      1109 rIdx = r0x104C 
04D1   ???? ????      04401         BANKSEL r0x1019
04D3   07??           04402         ADDWF   r0x1019,W
                      04403 ;; >>> /home/sdcc-builder/build/sdcc-build/orig/sdcc/src/pic14/gen.c:7091:genJumpTab
04D4   1C03           04404         BTFSS   STATUS,0
04D5   2???           04405         GOTO    _00007_DS_
                      04406 ;; >>> /home/sdcc-builder/build/sdcc-build/orig/sdcc/src/pic14/gen.c:7092:genJumpTab
04D6   1283 1303      04407         BANKSEL PCLATH
04D8   0A8A           04408         INCF    PCLATH,F
                      04409 ;; >>> /home/sdcc-builder/build/sdcc-build/orig/sdcc/src/pic14/gen.c:7093:genJumpTab
04D9                  04410 _00007_DS_
04D9   0082           04411         MOVWF   PCL
                      04412 ;; >>> /home/sdcc-builder/build/sdcc-build/orig/sdcc/src/pic14/gen.c:7102:genJumpTab
                      04413 ;; ***  popGetLabel  key=1, label offset 41
04DA                  04414 _00154_DS_
04DA   2???           04415         GOTO    _00142_DS_
                      04416 ;; >>> /home/sdcc-builder/build/sdcc-build/orig/sdcc/src/pic14/gen.c:7102:genJumpTab
                      04417 ;; ***  popGetLabel  key=2, label offset 41
04DB   2???           04418         GOTO    _00143_DS_
                      04419 ;; >>> /home/sdcc-builder/build/sdcc-build/orig/sdcc/src/pic14/gen.c:7102:genJumpTab
                      04420 ;; ***  popGetLabel  key=3, label offset 41
04DC   2???           04421         GOTO    _00144_DS_
gpasm-1.4.0 #1106 (Oct  6 2014) obj\Debug\gpi   5-11-2022  02:00:26         PAGE 85


LOC    OBJECT CODE    LINE  SOURCE TEXT
  VALUE

                      04422 ;; >>> /home/sdcc-builder/build/sdcc-build/orig/sdcc/src/pic14/gen.c:7102:genJumpTab
                      04423 ;; ***  popGetLabel  key=4, label offset 41
04DD   2???           04424         GOTO    _00145_DS_
                      04425 ;; >>> /home/sdcc-builder/build/sdcc-build/orig/sdcc/src/pic14/gen.c:7102:genJumpTab
                      04426 ;; ***  popGetLabel  key=5, label offset 41
04DE   2???           04427         GOTO    _00146_DS_
                      04428 ;;; /home/sdcc-builder/build/sdcc-build/orig/sdcc/src/pic14/gen.c:2316:resultRemat *{*
                      04429 ;;; /home/sdcc-builder/build/sdcc-build/orig/sdcc/src/pic14/gen.c:2760:genLabel *{*
                      04430 ;; ***  genLabel  2763
                      04431 ;;; /home/sdcc-builder/build/sdcc-build/orig/sdcc/src/pic14/gen.c:2316:resultRemat *{*
                      04432 ;;; /home/sdcc-builder/build/sdcc-build/orig/sdcc/src/pic14/gen.c:6927:genAssign *{*
                      04433 ;; ***  genAssign  6928
                      04434 ;;      694 register type nRegs=1
                      04435 ;; ***  aopForSym 315
                      04436 ;;      327 sym->rname = _TRISA, size = 1
                      04437 ;;      line = 6937 result AOP_DIR=_TRISA, size=1, left -=-, size=0, right AOP_REG=r0x104D, size=1
                      04438 ;; ***  genAssign  7023
                      04439 ;;; /home/sdcc-builder/build/sdcc-build/orig/sdcc/src/pic14/gen.c:1343:mov2w_op *{*
                      04440 ;; ***  mov2w  1381  offset=0
                      04441 ;; >>> /home/sdcc-builder/build/sdcc-build/orig/sdcc/src/pic14/gen.c:1386:mov2w
                      04442 ;;      1109 rIdx = r0x104D 
04DF                  04443 _00142_DS_
                      04444         .line   30; "gpio.c"    TRISA = portDirection ;
04DF   ???? ????      04445         BANKSEL r0x101A
04E1   08??           04446         MOVF    r0x101A,W
                      04447 ;; >>> /home/sdcc-builder/build/sdcc-build/orig/sdcc/src/pic14/gen.c:7050:genAssign
                      04448 ;;      1009
                      04449 ;;      1028  _TRISA   offset=0
04E2   ???? ????      04450         BANKSEL _TRISA
04E4   00??           04451         MOVWF   _TRISA
                      04452 ;;; /home/sdcc-builder/build/sdcc-build/orig/sdcc/src/pic14/gen.c:2316:resultRemat *{*
                      04453 ;;; /home/sdcc-builder/build/sdcc-build/orig/sdcc/src/pic14/gen.c:2778:genGoto *{*
                      04454 ;; >>> /home/sdcc-builder/build/sdcc-build/orig/sdcc/src/pic14/gen.c:2780:genGoto
                      04455 ;; ***  popGetLabel  key=7, label offset 41
                      04456         .line   31; "gpio.c"    break ;
04E5   2???           04457         GOTO    _00148_DS_
                      04458 ;;; /home/sdcc-builder/build/sdcc-build/orig/sdcc/src/pic14/gen.c:2316:resultRemat *{*
                      04459 ;;; /home/sdcc-builder/build/sdcc-build/orig/sdcc/src/pic14/gen.c:2760:genLabel *{*
                      04460 ;; ***  genLabel  2763
                      04461 ;;; /home/sdcc-builder/build/sdcc-build/orig/sdcc/src/pic14/gen.c:2316:resultRemat *{*
                      04462 ;;; /home/sdcc-builder/build/sdcc-build/orig/sdcc/src/pic14/gen.c:6927:genAssign *{*
                      04463 ;; ***  genAssign  6928
                      04464 ;;      694 register type nRegs=1
                      04465 ;; ***  aopForSym 315
                      04466 ;;      327 sym->rname = _TRISB, size = 1
                      04467 ;;      line = 6937 result AOP_DIR=_TRISB, size=1, left -=-, size=0, right AOP_REG=r0x104D, size=1
                      04468 ;; ***  genAssign  7023
                      04469 ;;; /home/sdcc-builder/build/sdcc-build/orig/sdcc/src/pic14/gen.c:1343:mov2w_op *{*
                      04470 ;; ***  mov2w  1381  offset=0
                      04471 ;; >>> /home/sdcc-builder/build/sdcc-build/orig/sdcc/src/pic14/gen.c:1386:mov2w
                      04472 ;;      1109 rIdx = r0x104D 
04E6                  04473 _00143_DS_
                      04474         .line   33; "gpio.c"    TRISB = portDirection ;
gpasm-1.4.0 #1106 (Oct  6 2014) obj\Debug\gpi   5-11-2022  02:00:26         PAGE 86


LOC    OBJECT CODE    LINE  SOURCE TEXT
  VALUE

04E6   ???? ????      04475         BANKSEL r0x101A
04E8   08??           04476         MOVF    r0x101A,W
                      04477 ;; >>> /home/sdcc-builder/build/sdcc-build/orig/sdcc/src/pic14/gen.c:7050:genAssign
                      04478 ;;      1009
                      04479 ;;      1028  _TRISB   offset=0
04E9   ???? ????      04480         BANKSEL _TRISB
04EB   00??           04481         MOVWF   _TRISB
                      04482 ;;; /home/sdcc-builder/build/sdcc-build/orig/sdcc/src/pic14/gen.c:2316:resultRemat *{*
                      04483 ;;; /home/sdcc-builder/build/sdcc-build/orig/sdcc/src/pic14/gen.c:2778:genGoto *{*
                      04484 ;; >>> /home/sdcc-builder/build/sdcc-build/orig/sdcc/src/pic14/gen.c:2780:genGoto
                      04485 ;; ***  popGetLabel  key=7, label offset 41
                      04486         .line   34; "gpio.c"    break ;
04EC   2???           04487         GOTO    _00148_DS_
                      04488 ;;; /home/sdcc-builder/build/sdcc-build/orig/sdcc/src/pic14/gen.c:2316:resultRemat *{*
                      04489 ;;; /home/sdcc-builder/build/sdcc-build/orig/sdcc/src/pic14/gen.c:2760:genLabel *{*
                      04490 ;; ***  genLabel  2763
                      04491 ;;; /home/sdcc-builder/build/sdcc-build/orig/sdcc/src/pic14/gen.c:2316:resultRemat *{*
                      04492 ;;; /home/sdcc-builder/build/sdcc-build/orig/sdcc/src/pic14/gen.c:6927:genAssign *{*
                      04493 ;; ***  genAssign  6928
                      04494 ;;      694 register type nRegs=1
                      04495 ;; ***  aopForSym 315
                      04496 ;;      327 sym->rname = _TRISC, size = 1
                      04497 ;;      line = 6937 result AOP_DIR=_TRISC, size=1, left -=-, size=0, right AOP_REG=r0x104D, size=1
                      04498 ;; ***  genAssign  7023
                      04499 ;;; /home/sdcc-builder/build/sdcc-build/orig/sdcc/src/pic14/gen.c:1343:mov2w_op *{*
                      04500 ;; ***  mov2w  1381  offset=0
                      04501 ;; >>> /home/sdcc-builder/build/sdcc-build/orig/sdcc/src/pic14/gen.c:1386:mov2w
                      04502 ;;      1109 rIdx = r0x104D 
04ED                  04503 _00144_DS_
                      04504         .line   36; "gpio.c"    TRISC = portDirection ;
04ED   ???? ????      04505         BANKSEL r0x101A
04EF   08??           04506         MOVF    r0x101A,W
                      04507 ;; >>> /home/sdcc-builder/build/sdcc-build/orig/sdcc/src/pic14/gen.c:7050:genAssign
                      04508 ;;      1009
                      04509 ;;      1028  _TRISC   offset=0
04F0   ???? ????      04510         BANKSEL _TRISC
04F2   00??           04511         MOVWF   _TRISC
                      04512 ;;; /home/sdcc-builder/build/sdcc-build/orig/sdcc/src/pic14/gen.c:2316:resultRemat *{*
                      04513 ;;; /home/sdcc-builder/build/sdcc-build/orig/sdcc/src/pic14/gen.c:2778:genGoto *{*
                      04514 ;; >>> /home/sdcc-builder/build/sdcc-build/orig/sdcc/src/pic14/gen.c:2780:genGoto
                      04515 ;; ***  popGetLabel  key=7, label offset 41
                      04516         .line   37; "gpio.c"    break ;
04F3   2???           04517         GOTO    _00148_DS_
                      04518 ;;; /home/sdcc-builder/build/sdcc-build/orig/sdcc/src/pic14/gen.c:2316:resultRemat *{*
                      04519 ;;; /home/sdcc-builder/build/sdcc-build/orig/sdcc/src/pic14/gen.c:2760:genLabel *{*
                      04520 ;; ***  genLabel  2763
                      04521 ;;; /home/sdcc-builder/build/sdcc-build/orig/sdcc/src/pic14/gen.c:2316:resultRemat *{*
                      04522 ;;; /home/sdcc-builder/build/sdcc-build/orig/sdcc/src/pic14/gen.c:6927:genAssign *{*
                      04523 ;; ***  genAssign  6928
                      04524 ;;      694 register type nRegs=1
                      04525 ;; ***  aopForSym 315
                      04526 ;;      327 sym->rname = _TRISD, size = 1
                      04527 ;;      line = 6937 result AOP_DIR=_TRISD, size=1, left -=-, size=0, right AOP_REG=r0x104D, size=1
gpasm-1.4.0 #1106 (Oct  6 2014) obj\Debug\gpi   5-11-2022  02:00:26         PAGE 87


LOC    OBJECT CODE    LINE  SOURCE TEXT
  VALUE

                      04528 ;; ***  genAssign  7023
                      04529 ;;; /home/sdcc-builder/build/sdcc-build/orig/sdcc/src/pic14/gen.c:1343:mov2w_op *{*
                      04530 ;; ***  mov2w  1381  offset=0
                      04531 ;; >>> /home/sdcc-builder/build/sdcc-build/orig/sdcc/src/pic14/gen.c:1386:mov2w
                      04532 ;;      1109 rIdx = r0x104D 
04F4                  04533 _00145_DS_
                      04534         .line   39; "gpio.c"    TRISD = portDirection ;
04F4   ???? ????      04535         BANKSEL r0x101A
04F6   08??           04536         MOVF    r0x101A,W
                      04537 ;; >>> /home/sdcc-builder/build/sdcc-build/orig/sdcc/src/pic14/gen.c:7050:genAssign
                      04538 ;;      1009
                      04539 ;;      1028  _TRISD   offset=0
04F7   ???? ????      04540         BANKSEL _TRISD
04F9   00??           04541         MOVWF   _TRISD
                      04542 ;;; /home/sdcc-builder/build/sdcc-build/orig/sdcc/src/pic14/gen.c:2316:resultRemat *{*
                      04543 ;;; /home/sdcc-builder/build/sdcc-build/orig/sdcc/src/pic14/gen.c:2778:genGoto *{*
                      04544 ;; >>> /home/sdcc-builder/build/sdcc-build/orig/sdcc/src/pic14/gen.c:2780:genGoto
                      04545 ;; ***  popGetLabel  key=7, label offset 41
                      04546         .line   40; "gpio.c"    break ;
04FA   2???           04547         GOTO    _00148_DS_
                      04548 ;;; /home/sdcc-builder/build/sdcc-build/orig/sdcc/src/pic14/gen.c:2316:resultRemat *{*
                      04549 ;;; /home/sdcc-builder/build/sdcc-build/orig/sdcc/src/pic14/gen.c:2760:genLabel *{*
                      04550 ;; ***  genLabel  2763
                      04551 ;;; /home/sdcc-builder/build/sdcc-build/orig/sdcc/src/pic14/gen.c:2316:resultRemat *{*
                      04552 ;;; /home/sdcc-builder/build/sdcc-build/orig/sdcc/src/pic14/gen.c:6927:genAssign *{*
                      04553 ;; ***  genAssign  6928
                      04554 ;;      694 register type nRegs=1
                      04555 ;; ***  aopForSym 315
                      04556 ;;      327 sym->rname = _TRISE, size = 1
                      04557 ;;      line = 6937 result AOP_DIR=_TRISE, size=1, left -=-, size=0, right AOP_REG=r0x104D, size=1
                      04558 ;; ***  genAssign  7023
                      04559 ;;; /home/sdcc-builder/build/sdcc-build/orig/sdcc/src/pic14/gen.c:1343:mov2w_op *{*
                      04560 ;; ***  mov2w  1381  offset=0
                      04561 ;; >>> /home/sdcc-builder/build/sdcc-build/orig/sdcc/src/pic14/gen.c:1386:mov2w
                      04562 ;;      1109 rIdx = r0x104D 
04FB                  04563 _00146_DS_
                      04564         .line   42; "gpio.c"    TRISE = portDirection ;
04FB   ???? ????      04565         BANKSEL r0x101A
04FD   08??           04566         MOVF    r0x101A,W
                      04567 ;; >>> /home/sdcc-builder/build/sdcc-build/orig/sdcc/src/pic14/gen.c:7050:genAssign
                      04568 ;;      1009
                      04569 ;;      1028  _TRISE   offset=0
04FE   ???? ????      04570         BANKSEL _TRISE
0500   00??           04571         MOVWF   _TRISE
                      04572 ;;; /home/sdcc-builder/build/sdcc-build/orig/sdcc/src/pic14/gen.c:2316:resultRemat *{*
                      04573 ;;; /home/sdcc-builder/build/sdcc-build/orig/sdcc/src/pic14/gen.c:2760:genLabel *{*
                      04574 ;; ***  genLabel  2763
                      04575 ;;; /home/sdcc-builder/build/sdcc-build/orig/sdcc/src/pic14/gen.c:2316:resultRemat *{*
                      04576 ;;; /home/sdcc-builder/build/sdcc-build/orig/sdcc/src/pic14/gen.c:2528:genEndFunction *{*
                      04577 ;; ***  genEndFunction  2530
0501                  04578 _00148_DS_
                      04579         .line   44; "gpio.c"    }
0501   0008           04580         RETURN  
gpasm-1.4.0 #1106 (Oct  6 2014) obj\Debug\gpi   5-11-2022  02:00:26         PAGE 88


LOC    OBJECT CODE    LINE  SOURCE TEXT
  VALUE

                      04581 ; exit point of _GPIO_InitPort
                      04582 ;;; /home/sdcc-builder/build/sdcc-build/orig/sdcc/src/pic14/gen.c:7426:genpic14Code *{*
                      04583 
                      04584 ;***
                      04585 ;  pBlock Stats: dbName = C
                      04586 ;***
                      04587 ;entry:  _GPIO_InitPin  ;Function start
                      04588 ; 2 exit points
                      04589 ;has an exit
                      04590 ;6 compiler assigned registers:
                      04591 ;   r0x101B
                      04592 ;   STK00
                      04593 ;   r0x101C
                      04594 ;   STK01
                      04595 ;   r0x101D
                      04596 ;   r0x101E
                      04597 ;; Starting pCode block
                      04598 ;;; /home/sdcc-builder/build/sdcc-build/orig/sdcc/src/pic14/gen.c:2316:resultRemat *{*
                      04599 ;;; /home/sdcc-builder/build/sdcc-build/orig/sdcc/src/pic14/gen.c:2760:genLabel *{*
                      04600 ;; ***  genLabel  2763
                      04601 ;;; /home/sdcc-builder/build/sdcc-build/orig/sdcc/src/pic14/gen.c:2316:resultRemat *{*
                      04602 ;;; /home/sdcc-builder/build/sdcc-build/orig/sdcc/src/pic14/gen.c:2340:genFunction *{*
                      04603 ;; ***  genFunction  2342 curr label offset=0previous max_key=0 
0502                  04604 _GPIO_InitPin   ;Function start
                      04605 ; 2 exit points
                      04606 ;;; /home/sdcc-builder/build/sdcc-build/orig/sdcc/src/pic14/gen.c:2316:resultRemat *{*
                      04607 ;;; /home/sdcc-builder/build/sdcc-build/orig/sdcc/src/pic14/gen.c:7358:genReceive *{*
                      04608 ;; ***  genReceive  7359
                      04609 ;;      694 register type nRegs=1
                      04610 ;;; /home/sdcc-builder/build/sdcc-build/orig/sdcc/src/pic14/gen.c:1907:assignResultValue *{*
                      04611 ;; ***  assignResultValue  1909
                      04612 ;;      line = 1911 result -=-, size=0, left AOP_REG=r0x1048, size=1, right -=-, size=0
                      04613 ;; >>> /home/sdcc-builder/build/sdcc-build/orig/sdcc/src/pic14/gen.c:1393:movwf
                      04614 ;;      1109 rIdx = r0x1048 
                      04615         .line   4; "gpio.c"     void GPIO_InitPin(tPORT port,unsigned char pin,tPIN_DIRECTION pinDirecti
                            on )
0502   ???? ????      04616         BANKSEL r0x101B
0504   00??           04617         MOVWF   r0x101B
                      04618 ;;; /home/sdcc-builder/build/sdcc-build/orig/sdcc/src/pic14/gen.c:2316:resultRemat *{*
                      04619 ;;; /home/sdcc-builder/build/sdcc-build/orig/sdcc/src/pic14/gen.c:7358:genReceive *{*
                      04620 ;; ***  genReceive  7359
                      04621 ;;      694 register type nRegs=1
                      04622 ;;; /home/sdcc-builder/build/sdcc-build/orig/sdcc/src/pic14/gen.c:1907:assignResultValue *{*
                      04623 ;; ***  assignResultValue  1909
                      04624 ;;      line = 1911 result -=-, size=0, left AOP_REG=r0x1049, size=1, right -=-, size=0
                      04625 ;; >>> /home/sdcc-builder/build/sdcc-build/orig/sdcc/src/pic14/gen.c:1423:get_returnvalue
                      04626 ;; ***  popRegFromIdx,1042  , rIdx=0x7f
0505   08??           04627         MOVF    STK00,W
                      04628 ;; >>> /home/sdcc-builder/build/sdcc-build/orig/sdcc/src/pic14/gen.c:1393:movwf
                      04629 ;;      1109 rIdx = r0x1049 
0506   00??           04630         MOVWF   r0x101C
                      04631 ;;; /home/sdcc-builder/build/sdcc-build/orig/sdcc/src/pic14/gen.c:2316:resultRemat *{*
                      04632 ;;; /home/sdcc-builder/build/sdcc-build/orig/sdcc/src/pic14/gen.c:7358:genReceive *{*
gpasm-1.4.0 #1106 (Oct  6 2014) obj\Debug\gpi   5-11-2022  02:00:26         PAGE 89


LOC    OBJECT CODE    LINE  SOURCE TEXT
  VALUE

                      04633 ;; ***  genReceive  7359
                      04634 ;;      694 register type nRegs=1
                      04635 ;;; /home/sdcc-builder/build/sdcc-build/orig/sdcc/src/pic14/gen.c:1907:assignResultValue *{*
                      04636 ;; ***  assignResultValue  1909
                      04637 ;;      line = 1911 result -=-, size=0, left AOP_REG=r0x104A, size=1, right -=-, size=0
                      04638 ;; >>> /home/sdcc-builder/build/sdcc-build/orig/sdcc/src/pic14/gen.c:1423:get_returnvalue
                      04639 ;; ***  popRegFromIdx,1042  , rIdx=0x7e
0507   08??           04640         MOVF    STK01,W
                      04641 ;; >>> /home/sdcc-builder/build/sdcc-build/orig/sdcc/src/pic14/gen.c:1393:movwf
                      04642 ;;      1109 rIdx = r0x104A 
0508   00??           04643         MOVWF   r0x101D
                      04644 ;;; /home/sdcc-builder/build/sdcc-build/orig/sdcc/src/pic14/gen.c:2316:resultRemat *{*
                      04645 ;;; /home/sdcc-builder/build/sdcc-build/orig/sdcc/src/pic14/gen.c:3547:genCmpGt *{*
                      04646 ;; ***  genCmpGt  3548
                      04647 ;;      694 register type nRegs=1
                      04648 ;;; /home/sdcc-builder/build/sdcc-build/orig/sdcc/src/pic14/gen.c:3294:genCmp *{*
                      04649 ;;swapping arguments (AOP_TYPEs 1/2)
                      04650 ;;unsigned compare: left >= lit(0x5=5), size=1
                      04651 ;; >>> /home/sdcc-builder/build/sdcc-build/orig/sdcc/src/pic14/gen.c:3265:pic14_mov2w_regOrLit
                      04652         .line   6; "gpio.c"     switch(port)
0509   3005           04653         MOVLW   0x05
                      04654 ;; >>> /home/sdcc-builder/build/sdcc-build/orig/sdcc/src/pic14/gen.c:3432:genCmp
                      04655 ;;      1109 rIdx = r0x1048 
050A   02??           04656         SUBWF   r0x101B,W
                      04657 ;;; /home/sdcc-builder/build/sdcc-build/orig/sdcc/src/pic14/gen.c:3237:genSkipc *{*
                      04658 ;; >>> /home/sdcc-builder/build/sdcc-build/orig/sdcc/src/pic14/gen.c:3242:genSkipc
050B   1803           04659         BTFSC   STATUS,0
                      04660 ;; >>> /home/sdcc-builder/build/sdcc-build/orig/sdcc/src/pic14/gen.c:3246:genSkipc
                      04661 ;; ***  popGetLabel  key=7, label offset 4
050C   2???           04662         GOTO    _00111_DS_
                      04663 ;;genSkipc:3247: created from rifx:027A5DF4
                      04664 ;;; /home/sdcc-builder/build/sdcc-build/orig/sdcc/src/pic14/gen.c:2316:resultRemat *{*
                      04665 ;;; /home/sdcc-builder/build/sdcc-build/orig/sdcc/src/pic14/gen.c:2316:resultRemat *{*
                      04666 ;;; /home/sdcc-builder/build/sdcc-build/orig/sdcc/src/pic14/gen.c:7071:genJumpTab *{*
                      04667 ;; ***  genJumpTab  7072
                      04668 ;;      694 register type nRegs=1
                      04669 ;; >>> /home/sdcc-builder/build/sdcc-build/orig/sdcc/src/pic14/gen.c:7087:genJumpTab
                      04670 ;; ***  popGetLabel  key=13, label offset 4
050D   30??           04671         MOVLW   HIGH(_00117_DS_)
                      04672 ;; >>> /home/sdcc-builder/build/sdcc-build/orig/sdcc/src/pic14/gen.c:7088:genJumpTab
050E   1283 1303      04673         BANKSEL PCLATH
0510   008A           04674         MOVWF   PCLATH
                      04675 ;; >>> /home/sdcc-builder/build/sdcc-build/orig/sdcc/src/pic14/gen.c:7089:genJumpTab
                      04676 ;; ***  popGetLabel  key=13, label offset 4
0511   30??           04677         MOVLW   _00117_DS_
                      04678 ;; >>> /home/sdcc-builder/build/sdcc-build/orig/sdcc/src/pic14/gen.c:7090:genJumpTab
                      04679 ;;      1109 rIdx = r0x1048 
0512   ???? ????      04680         BANKSEL r0x101B
0514   07??           04681         ADDWF   r0x101B,W
                      04682 ;; >>> /home/sdcc-builder/build/sdcc-build/orig/sdcc/src/pic14/gen.c:7091:genJumpTab
0515   1C03           04683         BTFSS   STATUS,0
0516   2???           04684         GOTO    _00008_DS_
                      04685 ;; >>> /home/sdcc-builder/build/sdcc-build/orig/sdcc/src/pic14/gen.c:7092:genJumpTab
gpasm-1.4.0 #1106 (Oct  6 2014) obj\Debug\gpi   5-11-2022  02:00:26         PAGE 90


LOC    OBJECT CODE    LINE  SOURCE TEXT
  VALUE

0517   1283 1303      04686         BANKSEL PCLATH
0519   0A8A           04687         INCF    PCLATH,F
                      04688 ;; >>> /home/sdcc-builder/build/sdcc-build/orig/sdcc/src/pic14/gen.c:7093:genJumpTab
051A                  04689 _00008_DS_
051A   0082           04690         MOVWF   PCL
                      04691 ;; >>> /home/sdcc-builder/build/sdcc-build/orig/sdcc/src/pic14/gen.c:7102:genJumpTab
                      04692 ;; ***  popGetLabel  key=1, label offset 4
051B                  04693 _00117_DS_
051B   2???           04694         GOTO    _00105_DS_
                      04695 ;; >>> /home/sdcc-builder/build/sdcc-build/orig/sdcc/src/pic14/gen.c:7102:genJumpTab
                      04696 ;; ***  popGetLabel  key=2, label offset 4
051C   2???           04697         GOTO    _00106_DS_
                      04698 ;; >>> /home/sdcc-builder/build/sdcc-build/orig/sdcc/src/pic14/gen.c:7102:genJumpTab
                      04699 ;; ***  popGetLabel  key=3, label offset 4
051D   2???           04700         GOTO    _00107_DS_
                      04701 ;; >>> /home/sdcc-builder/build/sdcc-build/orig/sdcc/src/pic14/gen.c:7102:genJumpTab
                      04702 ;; ***  popGetLabel  key=4, label offset 4
051E   2???           04703         GOTO    _00108_DS_
                      04704 ;; >>> /home/sdcc-builder/build/sdcc-build/orig/sdcc/src/pic14/gen.c:7102:genJumpTab
                      04705 ;; ***  popGetLabel  key=5, label offset 4
051F   2???           04706         GOTO    _00109_DS_
                      04707 ;;; /home/sdcc-builder/build/sdcc-build/orig/sdcc/src/pic14/gen.c:2316:resultRemat *{*
                      04708 ;;; /home/sdcc-builder/build/sdcc-build/orig/sdcc/src/pic14/gen.c:2760:genLabel *{*
                      04709 ;; ***  genLabel  2763
                      04710 ;;; /home/sdcc-builder/build/sdcc-build/orig/sdcc/src/pic14/gen.c:2316:resultRemat *{*
                      04711 ;;; /home/sdcc-builder/build/sdcc-build/orig/sdcc/src/pic14/gen.c:5418:genGenericShift *{*
                      04712 ;; ***  genGenericShift  5421
                      04713 ;;      694 register type nRegs=1
                      04714 ;;      694 register type nRegs=1
                      04715 ;; ***  mov2w  1381  offset=0
                      04716 ;; >>> /home/sdcc-builder/build/sdcc-build/orig/sdcc/src/pic14/gen.c:1384:mov2w
0520                  04717 _00105_DS_
                      04718         .line   9; "gpio.c"     SET_REGISTER_BIT(TRISA,pin,pinDirection) ;
0520   3001           04719         MOVLW   0x01
                      04720 ;; >>> /home/sdcc-builder/build/sdcc-build/orig/sdcc/src/pic14/gen.c:1393:movwf
                      04721 ;;      1109 rIdx = r0x1048 
0521   ???? ????      04722         BANKSEL r0x101B
0523   00??           04723         MOVWF   r0x101B
                      04724 ;; ***  addSign  861
                      04725 ;;; /home/sdcc-builder/build/sdcc-build/orig/sdcc/src/pic14/genarith.c:862:addSign *{*
                      04726 ;; ***  mov2w  1381  offset=0
                      04727 ;; >>> /home/sdcc-builder/build/sdcc-build/orig/sdcc/src/pic14/gen.c:1386:mov2w
                      04728 ;;      1109 rIdx = r0x1049 
0524   08??           04729         MOVF    r0x101C,W
                      04730 ;; >>> /home/sdcc-builder/build/sdcc-build/orig/sdcc/src/pic14/gen.c:5492:genGenericShift
0525   3C00           04731         SUBLW   0x00
                      04732 ;; >>> /home/sdcc-builder/build/sdcc-build/orig/sdcc/src/pic14/gen.c:5494:genGenericShift
0526   1903           04733         BTFSC   STATUS,2
                      04734 ;; >>> /home/sdcc-builder/build/sdcc-build/orig/sdcc/src/pic14/gen.c:5495:genGenericShift
                      04735 ;; ***  popGetLabel  key=15, label offset 4
0527   2???           04736         GOTO    _00119_DS_
                      04737 ;;; /home/sdcc-builder/build/sdcc-build/orig/sdcc/src/pic14/gen.c:5369:genMultiAsm *{*
                      04738 ;; ***  genMultiAsm  5370
gpasm-1.4.0 #1106 (Oct  6 2014) obj\Debug\gpi   5-11-2022  02:00:26         PAGE 91


LOC    OBJECT CODE    LINE  SOURCE TEXT
  VALUE

                      04739 ;; >>> /home/sdcc-builder/build/sdcc-build/orig/sdcc/src/pic14/gen.c:5387:genMultiAsm
                      04740 ;;      1109 rIdx = r0x1048 
0528                  04741 _00118_DS_
0528   ???? ????      04742         BANKSEL r0x101B
052A   0D??           04743         RLF     r0x101B,F
                      04744 ;; >>> /home/sdcc-builder/build/sdcc-build/orig/sdcc/src/pic14/gen.c:5501:genGenericShift
052B   3E01           04745         ADDLW   0x01
                      04746 ;; >>> /home/sdcc-builder/build/sdcc-build/orig/sdcc/src/pic14/gen.c:5502:genGenericShift
052C   1C03           04747         BTFSS   STATUS,0
                      04748 ;; >>> /home/sdcc-builder/build/sdcc-build/orig/sdcc/src/pic14/gen.c:5503:genGenericShift
                      04749 ;; ***  popGetLabel  key=14, label offset 4
052D   2???           04750         GOTO    _00118_DS_
                      04751 ;;; /home/sdcc-builder/build/sdcc-build/orig/sdcc/src/pic14/gen.c:2316:resultRemat *{*
                      04752 ;;; /home/sdcc-builder/build/sdcc-build/orig/sdcc/src/pic14/gen.c:1609:genCpl *{*
                      04753 ;; ***  genCpl  1611
                      04754 ;;      694 register type nRegs=1
                      04755 ;;      694 register type nRegs=1
                      04756 ;; >>> /home/sdcc-builder/build/sdcc-build/orig/sdcc/src/pic14/gen.c:1631:genCpl
                      04757 ;;      1109 rIdx = r0x1048 
052E                  04758 _00119_DS_
052E   ???? ????      04759         BANKSEL r0x101B
0530   09??           04760         COMF    r0x101B,F
0531   ???? ????      04761         BANKSEL _TRISA
0533   08??           04762         MOVF    _TRISA,W
                      04763 ;; >>> /home/sdcc-builder/build/sdcc-build/orig/sdcc/src/pic14/gen.c:4138:genAnd
                      04764 ;;      1109 rIdx = r0x1048 
0534   ???? ????      04765         BANKSEL r0x101B
0536   05??           04766         ANDWF   r0x101B,F
                      04767 ;;; /home/sdcc-builder/build/sdcc-build/orig/sdcc/src/pic14/gen.c:2316:resultRemat *{*
                      04768 ;;; /home/sdcc-builder/build/sdcc-build/orig/sdcc/src/pic14/gen.c:5418:genGenericShift *{*
                      04769 ;; ***  genGenericShift  5421
                      04770 ;;      694 register type nRegs=1
                      04771 ;;      694 register type nRegs=1
                      04772 ;;      694 register type nRegs=1
                      04773 ;; ***  mov2w  1381  offset=0
                      04774 ;; >>> /home/sdcc-builder/build/sdcc-build/orig/sdcc/src/pic14/gen.c:1386:mov2w
                      04775 ;;      1109 rIdx = r0x104A 
0537   08??           04776         MOVF    r0x101D,W
                      04777 ;; >>> /home/sdcc-builder/build/sdcc-build/orig/sdcc/src/pic14/gen.c:1393:movwf
                      04778 ;;      1109 rIdx = r0x104B 
0538   00??           04779         MOVWF   r0x101E
                      04780 ;; ***  addSign  861
                      04781 ;;; /home/sdcc-builder/build/sdcc-build/orig/sdcc/src/pic14/genarith.c:862:addSign *{*
                      04782 ;; ***  mov2w  1381  offset=0
                      04783 ;; >>> /home/sdcc-builder/build/sdcc-build/orig/sdcc/src/pic14/gen.c:1386:mov2w
                      04784 ;;      1109 rIdx = r0x1049 
0539   08??           04785         MOVF    r0x101C,W
                      04786 ;; >>> /home/sdcc-builder/build/sdcc-build/orig/sdcc/src/pic14/gen.c:5492:genGenericShift
053A   3C00           04787         SUBLW   0x00
                      04788 ;; >>> /home/sdcc-builder/build/sdcc-build/orig/sdcc/src/pic14/gen.c:5494:genGenericShift
053B   1903           04789         BTFSC   STATUS,2
                      04790 ;; >>> /home/sdcc-builder/build/sdcc-build/orig/sdcc/src/pic14/gen.c:5495:genGenericShift
                      04791 ;; ***  popGetLabel  key=17, label offset 4
gpasm-1.4.0 #1106 (Oct  6 2014) obj\Debug\gpi   5-11-2022  02:00:26         PAGE 92


LOC    OBJECT CODE    LINE  SOURCE TEXT
  VALUE

053C   2???           04792         GOTO    _00121_DS_
                      04793 ;;; /home/sdcc-builder/build/sdcc-build/orig/sdcc/src/pic14/gen.c:5369:genMultiAsm *{*
                      04794 ;; ***  genMultiAsm  5370
                      04795 ;; >>> /home/sdcc-builder/build/sdcc-build/orig/sdcc/src/pic14/gen.c:5387:genMultiAsm
                      04796 ;;      1109 rIdx = r0x104B 
053D                  04797 _00120_DS_
053D   ???? ????      04798         BANKSEL r0x101E
053F   0D??           04799         RLF     r0x101E,F
                      04800 ;; >>> /home/sdcc-builder/build/sdcc-build/orig/sdcc/src/pic14/gen.c:5501:genGenericShift
0540   3E01           04801         ADDLW   0x01
                      04802 ;; >>> /home/sdcc-builder/build/sdcc-build/orig/sdcc/src/pic14/gen.c:5502:genGenericShift
0541   1C03           04803         BTFSS   STATUS,0
                      04804 ;; >>> /home/sdcc-builder/build/sdcc-build/orig/sdcc/src/pic14/gen.c:5503:genGenericShift
                      04805 ;; ***  popGetLabel  key=16, label offset 4
0542   2???           04806         GOTO    _00120_DS_
                      04807 ;;; /home/sdcc-builder/build/sdcc-build/orig/sdcc/src/pic14/gen.c:2316:resultRemat *{*
                      04808 ;;; /home/sdcc-builder/build/sdcc-build/orig/sdcc/src/pic14/gen.c:4220:genOr *{*
                      04809 ;; ***  genOr  4221
                      04810 ;;      694 register type nRegs=1
                      04811 ;;      694 register type nRegs=1
                      04812 ;; ***  aopForSym 315
                      04813 ;;      327 sym->rname = _TRISA, size = 1
                      04814 ;;      line = 4227 result AOP_DIR=_TRISA, size=1, left AOP_REG=r0x1048, size=1, right AOP_REG=r0x104B, 
                            size=1
                      04815 ;;      line = 4253 result AOP_DIR=_TRISA, size=1, left AOP_REG=r0x1048, size=1, right AOP_REG=r0x104B, 
                            size=1
                      04816 ;; >>> /home/sdcc-builder/build/sdcc-build/orig/sdcc/src/pic14/gen.c:4479:genOr
                      04817 ;;      1109 rIdx = r0x104B 
0543                  04818 _00121_DS_
0543   ???? ????      04819         BANKSEL r0x101E
0545   08??           04820         MOVF    r0x101E,W
                      04821 ;; >>> /home/sdcc-builder/build/sdcc-build/orig/sdcc/src/pic14/gen.c:4480:genOr
                      04822 ;;      1109 rIdx = r0x1048 
0546   04??           04823         IORWF   r0x101B,W
                      04824 ;; >>> /home/sdcc-builder/build/sdcc-build/orig/sdcc/src/pic14/gen.c:4481:genOr
                      04825 ;;      1009
                      04826 ;;      1028  _TRISA   offset=0
0547   ???? ????      04827         BANKSEL _TRISA
0549   00??           04828         MOVWF   _TRISA
                      04829 ;;; /home/sdcc-builder/build/sdcc-build/orig/sdcc/src/pic14/gen.c:2316:resultRemat *{*
                      04830 ;;; /home/sdcc-builder/build/sdcc-build/orig/sdcc/src/pic14/gen.c:2778:genGoto *{*
                      04831 ;; >>> /home/sdcc-builder/build/sdcc-build/orig/sdcc/src/pic14/gen.c:2780:genGoto
                      04832 ;; ***  popGetLabel  key=7, label offset 4
                      04833         .line   10; "gpio.c"    break ;
054A   2???           04834         GOTO    _00111_DS_
                      04835 ;;; /home/sdcc-builder/build/sdcc-build/orig/sdcc/src/pic14/gen.c:2316:resultRemat *{*
                      04836 ;;; /home/sdcc-builder/build/sdcc-build/orig/sdcc/src/pic14/gen.c:2760:genLabel *{*
                      04837 ;; ***  genLabel  2763
                      04838 ;;; /home/sdcc-builder/build/sdcc-build/orig/sdcc/src/pic14/gen.c:2316:resultRemat *{*
                      04839 ;;; /home/sdcc-builder/build/sdcc-build/orig/sdcc/src/pic14/gen.c:5418:genGenericShift *{*
                      04840 ;; ***  genGenericShift  5421
                      04841 ;;      694 register type nRegs=1
                      04842 ;;      694 register type nRegs=1
gpasm-1.4.0 #1106 (Oct  6 2014) obj\Debug\gpi   5-11-2022  02:00:26         PAGE 93


LOC    OBJECT CODE    LINE  SOURCE TEXT
  VALUE

                      04843 ;; ***  mov2w  1381  offset=0
                      04844 ;; >>> /home/sdcc-builder/build/sdcc-build/orig/sdcc/src/pic14/gen.c:1384:mov2w
054B                  04845 _00106_DS_
                      04846         .line   12; "gpio.c"    SET_REGISTER_BIT(TRISB,pin,pinDirection) ;
054B   3001           04847         MOVLW   0x01
                      04848 ;; >>> /home/sdcc-builder/build/sdcc-build/orig/sdcc/src/pic14/gen.c:1393:movwf
                      04849 ;;      1109 rIdx = r0x1048 
054C   ???? ????      04850         BANKSEL r0x101B
054E   00??           04851         MOVWF   r0x101B
                      04852 ;; ***  addSign  861
                      04853 ;;; /home/sdcc-builder/build/sdcc-build/orig/sdcc/src/pic14/genarith.c:862:addSign *{*
                      04854 ;; ***  mov2w  1381  offset=0
                      04855 ;; >>> /home/sdcc-builder/build/sdcc-build/orig/sdcc/src/pic14/gen.c:1386:mov2w
                      04856 ;;      1109 rIdx = r0x1049 
054F   08??           04857         MOVF    r0x101C,W
                      04858 ;; >>> /home/sdcc-builder/build/sdcc-build/orig/sdcc/src/pic14/gen.c:5492:genGenericShift
0550   3C00           04859         SUBLW   0x00
                      04860 ;; >>> /home/sdcc-builder/build/sdcc-build/orig/sdcc/src/pic14/gen.c:5494:genGenericShift
0551   1903           04861         BTFSC   STATUS,2
                      04862 ;; >>> /home/sdcc-builder/build/sdcc-build/orig/sdcc/src/pic14/gen.c:5495:genGenericShift
                      04863 ;; ***  popGetLabel  key=19, label offset 4
0552   2???           04864         GOTO    _00123_DS_
                      04865 ;;; /home/sdcc-builder/build/sdcc-build/orig/sdcc/src/pic14/gen.c:5369:genMultiAsm *{*
                      04866 ;; ***  genMultiAsm  5370
                      04867 ;; >>> /home/sdcc-builder/build/sdcc-build/orig/sdcc/src/pic14/gen.c:5387:genMultiAsm
                      04868 ;;      1109 rIdx = r0x1048 
0553                  04869 _00122_DS_
0553   ???? ????      04870         BANKSEL r0x101B
0555   0D??           04871         RLF     r0x101B,F
                      04872 ;; >>> /home/sdcc-builder/build/sdcc-build/orig/sdcc/src/pic14/gen.c:5501:genGenericShift
0556   3E01           04873         ADDLW   0x01
                      04874 ;; >>> /home/sdcc-builder/build/sdcc-build/orig/sdcc/src/pic14/gen.c:5502:genGenericShift
0557   1C03           04875         BTFSS   STATUS,0
                      04876 ;; >>> /home/sdcc-builder/build/sdcc-build/orig/sdcc/src/pic14/gen.c:5503:genGenericShift
                      04877 ;; ***  popGetLabel  key=18, label offset 4
0558   2???           04878         GOTO    _00122_DS_
                      04879 ;;; /home/sdcc-builder/build/sdcc-build/orig/sdcc/src/pic14/gen.c:2316:resultRemat *{*
                      04880 ;;; /home/sdcc-builder/build/sdcc-build/orig/sdcc/src/pic14/gen.c:1609:genCpl *{*
                      04881 ;; ***  genCpl  1611
                      04882 ;;      694 register type nRegs=1
                      04883 ;;      694 register type nRegs=1
                      04884 ;; >>> /home/sdcc-builder/build/sdcc-build/orig/sdcc/src/pic14/gen.c:1631:genCpl
                      04885 ;;      1109 rIdx = r0x1048 
0559                  04886 _00123_DS_
0559   ???? ????      04887         BANKSEL r0x101B
055B   09??           04888         COMF    r0x101B,F
055C   ???? ????      04889         BANKSEL _TRISB
055E   08??           04890         MOVF    _TRISB,W
                      04891 ;; >>> /home/sdcc-builder/build/sdcc-build/orig/sdcc/src/pic14/gen.c:4138:genAnd
                      04892 ;;      1109 rIdx = r0x1048 
055F   ???? ????      04893         BANKSEL r0x101B
0561   05??           04894         ANDWF   r0x101B,F
                      04895 ;;; /home/sdcc-builder/build/sdcc-build/orig/sdcc/src/pic14/gen.c:2316:resultRemat *{*
gpasm-1.4.0 #1106 (Oct  6 2014) obj\Debug\gpi   5-11-2022  02:00:26         PAGE 94


LOC    OBJECT CODE    LINE  SOURCE TEXT
  VALUE

                      04896 ;;; /home/sdcc-builder/build/sdcc-build/orig/sdcc/src/pic14/gen.c:5418:genGenericShift *{*
                      04897 ;; ***  genGenericShift  5421
                      04898 ;;      694 register type nRegs=1
                      04899 ;;      694 register type nRegs=1
                      04900 ;;      694 register type nRegs=1
                      04901 ;; ***  mov2w  1381  offset=0
                      04902 ;; >>> /home/sdcc-builder/build/sdcc-build/orig/sdcc/src/pic14/gen.c:1386:mov2w
                      04903 ;;      1109 rIdx = r0x104A 
0562   08??           04904         MOVF    r0x101D,W
                      04905 ;; >>> /home/sdcc-builder/build/sdcc-build/orig/sdcc/src/pic14/gen.c:1393:movwf
                      04906 ;;      1109 rIdx = r0x104B 
0563   00??           04907         MOVWF   r0x101E
                      04908 ;; ***  addSign  861
                      04909 ;;; /home/sdcc-builder/build/sdcc-build/orig/sdcc/src/pic14/genarith.c:862:addSign *{*
                      04910 ;; ***  mov2w  1381  offset=0
                      04911 ;; >>> /home/sdcc-builder/build/sdcc-build/orig/sdcc/src/pic14/gen.c:1386:mov2w
                      04912 ;;      1109 rIdx = r0x1049 
0564   08??           04913         MOVF    r0x101C,W
                      04914 ;; >>> /home/sdcc-builder/build/sdcc-build/orig/sdcc/src/pic14/gen.c:5492:genGenericShift
0565   3C00           04915         SUBLW   0x00
                      04916 ;; >>> /home/sdcc-builder/build/sdcc-build/orig/sdcc/src/pic14/gen.c:5494:genGenericShift
0566   1903           04917         BTFSC   STATUS,2
                      04918 ;; >>> /home/sdcc-builder/build/sdcc-build/orig/sdcc/src/pic14/gen.c:5495:genGenericShift
                      04919 ;; ***  popGetLabel  key=21, label offset 4
0567   2???           04920         GOTO    _00125_DS_
                      04921 ;;; /home/sdcc-builder/build/sdcc-build/orig/sdcc/src/pic14/gen.c:5369:genMultiAsm *{*
                      04922 ;; ***  genMultiAsm  5370
                      04923 ;; >>> /home/sdcc-builder/build/sdcc-build/orig/sdcc/src/pic14/gen.c:5387:genMultiAsm
                      04924 ;;      1109 rIdx = r0x104B 
0568                  04925 _00124_DS_
0568   ???? ????      04926         BANKSEL r0x101E
056A   0D??           04927         RLF     r0x101E,F
                      04928 ;; >>> /home/sdcc-builder/build/sdcc-build/orig/sdcc/src/pic14/gen.c:5501:genGenericShift
056B   3E01           04929         ADDLW   0x01
                      04930 ;; >>> /home/sdcc-builder/build/sdcc-build/orig/sdcc/src/pic14/gen.c:5502:genGenericShift
056C   1C03           04931         BTFSS   STATUS,0
                      04932 ;; >>> /home/sdcc-builder/build/sdcc-build/orig/sdcc/src/pic14/gen.c:5503:genGenericShift
                      04933 ;; ***  popGetLabel  key=20, label offset 4
056D   2???           04934         GOTO    _00124_DS_
                      04935 ;;; /home/sdcc-builder/build/sdcc-build/orig/sdcc/src/pic14/gen.c:2316:resultRemat *{*
                      04936 ;;; /home/sdcc-builder/build/sdcc-build/orig/sdcc/src/pic14/gen.c:4220:genOr *{*
                      04937 ;; ***  genOr  4221
                      04938 ;;      694 register type nRegs=1
                      04939 ;;      694 register type nRegs=1
                      04940 ;; ***  aopForSym 315
                      04941 ;;      327 sym->rname = _TRISB, size = 1
                      04942 ;;      line = 4227 result AOP_DIR=_TRISB, size=1, left AOP_REG=r0x1048, size=1, right AOP_REG=r0x104B, 
                            size=1
                      04943 ;;      line = 4253 result AOP_DIR=_TRISB, size=1, left AOP_REG=r0x1048, size=1, right AOP_REG=r0x104B, 
                            size=1
                      04944 ;; >>> /home/sdcc-builder/build/sdcc-build/orig/sdcc/src/pic14/gen.c:4479:genOr
                      04945 ;;      1109 rIdx = r0x104B 
056E                  04946 _00125_DS_
gpasm-1.4.0 #1106 (Oct  6 2014) obj\Debug\gpi   5-11-2022  02:00:26         PAGE 95


LOC    OBJECT CODE    LINE  SOURCE TEXT
  VALUE

056E   ???? ????      04947         BANKSEL r0x101E
0570   08??           04948         MOVF    r0x101E,W
                      04949 ;; >>> /home/sdcc-builder/build/sdcc-build/orig/sdcc/src/pic14/gen.c:4480:genOr
                      04950 ;;      1109 rIdx = r0x1048 
0571   04??           04951         IORWF   r0x101B,W
                      04952 ;; >>> /home/sdcc-builder/build/sdcc-build/orig/sdcc/src/pic14/gen.c:4481:genOr
                      04953 ;;      1009
                      04954 ;;      1028  _TRISB   offset=0
0572   ???? ????      04955         BANKSEL _TRISB
0574   00??           04956         MOVWF   _TRISB
                      04957 ;;; /home/sdcc-builder/build/sdcc-build/orig/sdcc/src/pic14/gen.c:2316:resultRemat *{*
                      04958 ;;; /home/sdcc-builder/build/sdcc-build/orig/sdcc/src/pic14/gen.c:2778:genGoto *{*
                      04959 ;; >>> /home/sdcc-builder/build/sdcc-build/orig/sdcc/src/pic14/gen.c:2780:genGoto
                      04960 ;; ***  popGetLabel  key=7, label offset 4
                      04961         .line   13; "gpio.c"    break ;
0575   2???           04962         GOTO    _00111_DS_
                      04963 ;;; /home/sdcc-builder/build/sdcc-build/orig/sdcc/src/pic14/gen.c:2316:resultRemat *{*
                      04964 ;;; /home/sdcc-builder/build/sdcc-build/orig/sdcc/src/pic14/gen.c:2760:genLabel *{*
                      04965 ;; ***  genLabel  2763
                      04966 ;;; /home/sdcc-builder/build/sdcc-build/orig/sdcc/src/pic14/gen.c:2316:resultRemat *{*
                      04967 ;;; /home/sdcc-builder/build/sdcc-build/orig/sdcc/src/pic14/gen.c:5418:genGenericShift *{*
                      04968 ;; ***  genGenericShift  5421
                      04969 ;;      694 register type nRegs=1
                      04970 ;;      694 register type nRegs=1
                      04971 ;; ***  mov2w  1381  offset=0
                      04972 ;; >>> /home/sdcc-builder/build/sdcc-build/orig/sdcc/src/pic14/gen.c:1384:mov2w
0576                  04973 _00107_DS_
                      04974         .line   15; "gpio.c"    SET_REGISTER_BIT(TRISC,pin,pinDirection) ;
0576   3001           04975         MOVLW   0x01
                      04976 ;; >>> /home/sdcc-builder/build/sdcc-build/orig/sdcc/src/pic14/gen.c:1393:movwf
                      04977 ;;      1109 rIdx = r0x1048 
0577   ???? ????      04978         BANKSEL r0x101B
0579   00??           04979         MOVWF   r0x101B
                      04980 ;; ***  addSign  861
                      04981 ;;; /home/sdcc-builder/build/sdcc-build/orig/sdcc/src/pic14/genarith.c:862:addSign *{*
                      04982 ;; ***  mov2w  1381  offset=0
                      04983 ;; >>> /home/sdcc-builder/build/sdcc-build/orig/sdcc/src/pic14/gen.c:1386:mov2w
                      04984 ;;      1109 rIdx = r0x1049 
057A   08??           04985         MOVF    r0x101C,W
                      04986 ;; >>> /home/sdcc-builder/build/sdcc-build/orig/sdcc/src/pic14/gen.c:5492:genGenericShift
057B   3C00           04987         SUBLW   0x00
                      04988 ;; >>> /home/sdcc-builder/build/sdcc-build/orig/sdcc/src/pic14/gen.c:5494:genGenericShift
057C   1903           04989         BTFSC   STATUS,2
                      04990 ;; >>> /home/sdcc-builder/build/sdcc-build/orig/sdcc/src/pic14/gen.c:5495:genGenericShift
                      04991 ;; ***  popGetLabel  key=23, label offset 4
057D   2???           04992         GOTO    _00127_DS_
                      04993 ;;; /home/sdcc-builder/build/sdcc-build/orig/sdcc/src/pic14/gen.c:5369:genMultiAsm *{*
                      04994 ;; ***  genMultiAsm  5370
                      04995 ;; >>> /home/sdcc-builder/build/sdcc-build/orig/sdcc/src/pic14/gen.c:5387:genMultiAsm
                      04996 ;;      1109 rIdx = r0x1048 
057E                  04997 _00126_DS_
057E   ???? ????      04998         BANKSEL r0x101B
0580   0D??           04999         RLF     r0x101B,F
gpasm-1.4.0 #1106 (Oct  6 2014) obj\Debug\gpi   5-11-2022  02:00:26         PAGE 96


LOC    OBJECT CODE    LINE  SOURCE TEXT
  VALUE

                      05000 ;; >>> /home/sdcc-builder/build/sdcc-build/orig/sdcc/src/pic14/gen.c:5501:genGenericShift
0581   3E01           05001         ADDLW   0x01
                      05002 ;; >>> /home/sdcc-builder/build/sdcc-build/orig/sdcc/src/pic14/gen.c:5502:genGenericShift
0582   1C03           05003         BTFSS   STATUS,0
                      05004 ;; >>> /home/sdcc-builder/build/sdcc-build/orig/sdcc/src/pic14/gen.c:5503:genGenericShift
                      05005 ;; ***  popGetLabel  key=22, label offset 4
0583   2???           05006         GOTO    _00126_DS_
                      05007 ;;; /home/sdcc-builder/build/sdcc-build/orig/sdcc/src/pic14/gen.c:2316:resultRemat *{*
                      05008 ;;; /home/sdcc-builder/build/sdcc-build/orig/sdcc/src/pic14/gen.c:1609:genCpl *{*
                      05009 ;; ***  genCpl  1611
                      05010 ;;      694 register type nRegs=1
                      05011 ;;      694 register type nRegs=1
                      05012 ;; >>> /home/sdcc-builder/build/sdcc-build/orig/sdcc/src/pic14/gen.c:1631:genCpl
                      05013 ;;      1109 rIdx = r0x1048 
0584                  05014 _00127_DS_
0584   ???? ????      05015         BANKSEL r0x101B
0586   09??           05016         COMF    r0x101B,F
0587   ???? ????      05017         BANKSEL _TRISC
0589   08??           05018         MOVF    _TRISC,W
                      05019 ;; >>> /home/sdcc-builder/build/sdcc-build/orig/sdcc/src/pic14/gen.c:4138:genAnd
                      05020 ;;      1109 rIdx = r0x1048 
058A   ???? ????      05021         BANKSEL r0x101B
058C   05??           05022         ANDWF   r0x101B,F
                      05023 ;;; /home/sdcc-builder/build/sdcc-build/orig/sdcc/src/pic14/gen.c:2316:resultRemat *{*
                      05024 ;;; /home/sdcc-builder/build/sdcc-build/orig/sdcc/src/pic14/gen.c:5418:genGenericShift *{*
                      05025 ;; ***  genGenericShift  5421
                      05026 ;;      694 register type nRegs=1
                      05027 ;;      694 register type nRegs=1
                      05028 ;;      694 register type nRegs=1
                      05029 ;; ***  mov2w  1381  offset=0
                      05030 ;; >>> /home/sdcc-builder/build/sdcc-build/orig/sdcc/src/pic14/gen.c:1386:mov2w
                      05031 ;;      1109 rIdx = r0x104A 
058D   08??           05032         MOVF    r0x101D,W
                      05033 ;; >>> /home/sdcc-builder/build/sdcc-build/orig/sdcc/src/pic14/gen.c:1393:movwf
                      05034 ;;      1109 rIdx = r0x104B 
058E   00??           05035         MOVWF   r0x101E
                      05036 ;; ***  addSign  861
                      05037 ;;; /home/sdcc-builder/build/sdcc-build/orig/sdcc/src/pic14/genarith.c:862:addSign *{*
                      05038 ;; ***  mov2w  1381  offset=0
                      05039 ;; >>> /home/sdcc-builder/build/sdcc-build/orig/sdcc/src/pic14/gen.c:1386:mov2w
                      05040 ;;      1109 rIdx = r0x1049 
058F   08??           05041         MOVF    r0x101C,W
                      05042 ;; >>> /home/sdcc-builder/build/sdcc-build/orig/sdcc/src/pic14/gen.c:5492:genGenericShift
0590   3C00           05043         SUBLW   0x00
                      05044 ;; >>> /home/sdcc-builder/build/sdcc-build/orig/sdcc/src/pic14/gen.c:5494:genGenericShift
0591   1903           05045         BTFSC   STATUS,2
                      05046 ;; >>> /home/sdcc-builder/build/sdcc-build/orig/sdcc/src/pic14/gen.c:5495:genGenericShift
                      05047 ;; ***  popGetLabel  key=25, label offset 4
0592   2???           05048         GOTO    _00129_DS_
                      05049 ;;; /home/sdcc-builder/build/sdcc-build/orig/sdcc/src/pic14/gen.c:5369:genMultiAsm *{*
                      05050 ;; ***  genMultiAsm  5370
                      05051 ;; >>> /home/sdcc-builder/build/sdcc-build/orig/sdcc/src/pic14/gen.c:5387:genMultiAsm
                      05052 ;;      1109 rIdx = r0x104B 
gpasm-1.4.0 #1106 (Oct  6 2014) obj\Debug\gpi   5-11-2022  02:00:26         PAGE 97


LOC    OBJECT CODE    LINE  SOURCE TEXT
  VALUE

0593                  05053 _00128_DS_
0593   ???? ????      05054         BANKSEL r0x101E
0595   0D??           05055         RLF     r0x101E,F
                      05056 ;; >>> /home/sdcc-builder/build/sdcc-build/orig/sdcc/src/pic14/gen.c:5501:genGenericShift
0596   3E01           05057         ADDLW   0x01
                      05058 ;; >>> /home/sdcc-builder/build/sdcc-build/orig/sdcc/src/pic14/gen.c:5502:genGenericShift
0597   1C03           05059         BTFSS   STATUS,0
                      05060 ;; >>> /home/sdcc-builder/build/sdcc-build/orig/sdcc/src/pic14/gen.c:5503:genGenericShift
                      05061 ;; ***  popGetLabel  key=24, label offset 4
0598   2???           05062         GOTO    _00128_DS_
                      05063 ;;; /home/sdcc-builder/build/sdcc-build/orig/sdcc/src/pic14/gen.c:2316:resultRemat *{*
                      05064 ;;; /home/sdcc-builder/build/sdcc-build/orig/sdcc/src/pic14/gen.c:4220:genOr *{*
                      05065 ;; ***  genOr  4221
                      05066 ;;      694 register type nRegs=1
                      05067 ;;      694 register type nRegs=1
                      05068 ;; ***  aopForSym 315
                      05069 ;;      327 sym->rname = _TRISC, size = 1
                      05070 ;;      line = 4227 result AOP_DIR=_TRISC, size=1, left AOP_REG=r0x1048, size=1, right AOP_REG=r0x104B, 
                            size=1
                      05071 ;;      line = 4253 result AOP_DIR=_TRISC, size=1, left AOP_REG=r0x1048, size=1, right AOP_REG=r0x104B, 
                            size=1
                      05072 ;; >>> /home/sdcc-builder/build/sdcc-build/orig/sdcc/src/pic14/gen.c:4479:genOr
                      05073 ;;      1109 rIdx = r0x104B 
0599                  05074 _00129_DS_
0599   ???? ????      05075         BANKSEL r0x101E
059B   08??           05076         MOVF    r0x101E,W
                      05077 ;; >>> /home/sdcc-builder/build/sdcc-build/orig/sdcc/src/pic14/gen.c:4480:genOr
                      05078 ;;      1109 rIdx = r0x1048 
059C   04??           05079         IORWF   r0x101B,W
                      05080 ;; >>> /home/sdcc-builder/build/sdcc-build/orig/sdcc/src/pic14/gen.c:4481:genOr
                      05081 ;;      1009
                      05082 ;;      1028  _TRISC   offset=0
059D   ???? ????      05083         BANKSEL _TRISC
059F   00??           05084         MOVWF   _TRISC
                      05085 ;;; /home/sdcc-builder/build/sdcc-build/orig/sdcc/src/pic14/gen.c:2316:resultRemat *{*
                      05086 ;;; /home/sdcc-builder/build/sdcc-build/orig/sdcc/src/pic14/gen.c:2778:genGoto *{*
                      05087 ;; >>> /home/sdcc-builder/build/sdcc-build/orig/sdcc/src/pic14/gen.c:2780:genGoto
                      05088 ;; ***  popGetLabel  key=7, label offset 4
                      05089         .line   16; "gpio.c"    break ;
05A0   2???           05090         GOTO    _00111_DS_
                      05091 ;;; /home/sdcc-builder/build/sdcc-build/orig/sdcc/src/pic14/gen.c:2316:resultRemat *{*
                      05092 ;;; /home/sdcc-builder/build/sdcc-build/orig/sdcc/src/pic14/gen.c:2760:genLabel *{*
                      05093 ;; ***  genLabel  2763
                      05094 ;;; /home/sdcc-builder/build/sdcc-build/orig/sdcc/src/pic14/gen.c:2316:resultRemat *{*
                      05095 ;;; /home/sdcc-builder/build/sdcc-build/orig/sdcc/src/pic14/gen.c:5418:genGenericShift *{*
                      05096 ;; ***  genGenericShift  5421
                      05097 ;;      694 register type nRegs=1
                      05098 ;;      694 register type nRegs=1
                      05099 ;; ***  mov2w  1381  offset=0
                      05100 ;; >>> /home/sdcc-builder/build/sdcc-build/orig/sdcc/src/pic14/gen.c:1384:mov2w
05A1                  05101 _00108_DS_
                      05102         .line   18; "gpio.c"    SET_REGISTER_BIT(TRISD,pin,pinDirection) ;
05A1   3001           05103         MOVLW   0x01
gpasm-1.4.0 #1106 (Oct  6 2014) obj\Debug\gpi   5-11-2022  02:00:26         PAGE 98


LOC    OBJECT CODE    LINE  SOURCE TEXT
  VALUE

                      05104 ;; >>> /home/sdcc-builder/build/sdcc-build/orig/sdcc/src/pic14/gen.c:1393:movwf
                      05105 ;;      1109 rIdx = r0x1048 
05A2   ???? ????      05106         BANKSEL r0x101B
05A4   00??           05107         MOVWF   r0x101B
                      05108 ;; ***  addSign  861
                      05109 ;;; /home/sdcc-builder/build/sdcc-build/orig/sdcc/src/pic14/genarith.c:862:addSign *{*
                      05110 ;; ***  mov2w  1381  offset=0
                      05111 ;; >>> /home/sdcc-builder/build/sdcc-build/orig/sdcc/src/pic14/gen.c:1386:mov2w
                      05112 ;;      1109 rIdx = r0x1049 
05A5   08??           05113         MOVF    r0x101C,W
                      05114 ;; >>> /home/sdcc-builder/build/sdcc-build/orig/sdcc/src/pic14/gen.c:5492:genGenericShift
05A6   3C00           05115         SUBLW   0x00
                      05116 ;; >>> /home/sdcc-builder/build/sdcc-build/orig/sdcc/src/pic14/gen.c:5494:genGenericShift
05A7   1903           05117         BTFSC   STATUS,2
                      05118 ;; >>> /home/sdcc-builder/build/sdcc-build/orig/sdcc/src/pic14/gen.c:5495:genGenericShift
                      05119 ;; ***  popGetLabel  key=27, label offset 4
05A8   2???           05120         GOTO    _00131_DS_
                      05121 ;;; /home/sdcc-builder/build/sdcc-build/orig/sdcc/src/pic14/gen.c:5369:genMultiAsm *{*
                      05122 ;; ***  genMultiAsm  5370
                      05123 ;; >>> /home/sdcc-builder/build/sdcc-build/orig/sdcc/src/pic14/gen.c:5387:genMultiAsm
                      05124 ;;      1109 rIdx = r0x1048 
05A9                  05125 _00130_DS_
05A9   ???? ????      05126         BANKSEL r0x101B
05AB   0D??           05127         RLF     r0x101B,F
                      05128 ;; >>> /home/sdcc-builder/build/sdcc-build/orig/sdcc/src/pic14/gen.c:5501:genGenericShift
05AC   3E01           05129         ADDLW   0x01
                      05130 ;; >>> /home/sdcc-builder/build/sdcc-build/orig/sdcc/src/pic14/gen.c:5502:genGenericShift
05AD   1C03           05131         BTFSS   STATUS,0
                      05132 ;; >>> /home/sdcc-builder/build/sdcc-build/orig/sdcc/src/pic14/gen.c:5503:genGenericShift
                      05133 ;; ***  popGetLabel  key=26, label offset 4
05AE   2???           05134         GOTO    _00130_DS_
                      05135 ;;; /home/sdcc-builder/build/sdcc-build/orig/sdcc/src/pic14/gen.c:2316:resultRemat *{*
                      05136 ;;; /home/sdcc-builder/build/sdcc-build/orig/sdcc/src/pic14/gen.c:1609:genCpl *{*
                      05137 ;; ***  genCpl  1611
                      05138 ;;      694 register type nRegs=1
                      05139 ;;      694 register type nRegs=1
                      05140 ;; >>> /home/sdcc-builder/build/sdcc-build/orig/sdcc/src/pic14/gen.c:1631:genCpl
                      05141 ;;      1109 rIdx = r0x1048 
05AF                  05142 _00131_DS_
05AF   ???? ????      05143         BANKSEL r0x101B
05B1   09??           05144         COMF    r0x101B,F
05B2   ???? ????      05145         BANKSEL _TRISD
05B4   08??           05146         MOVF    _TRISD,W
                      05147 ;; >>> /home/sdcc-builder/build/sdcc-build/orig/sdcc/src/pic14/gen.c:4138:genAnd
                      05148 ;;      1109 rIdx = r0x1048 
05B5   ???? ????      05149         BANKSEL r0x101B
05B7   05??           05150         ANDWF   r0x101B,F
                      05151 ;;; /home/sdcc-builder/build/sdcc-build/orig/sdcc/src/pic14/gen.c:2316:resultRemat *{*
                      05152 ;;; /home/sdcc-builder/build/sdcc-build/orig/sdcc/src/pic14/gen.c:5418:genGenericShift *{*
                      05153 ;; ***  genGenericShift  5421
                      05154 ;;      694 register type nRegs=1
                      05155 ;;      694 register type nRegs=1
                      05156 ;;      694 register type nRegs=1
gpasm-1.4.0 #1106 (Oct  6 2014) obj\Debug\gpi   5-11-2022  02:00:26         PAGE 99


LOC    OBJECT CODE    LINE  SOURCE TEXT
  VALUE

                      05157 ;; ***  mov2w  1381  offset=0
                      05158 ;; >>> /home/sdcc-builder/build/sdcc-build/orig/sdcc/src/pic14/gen.c:1386:mov2w
                      05159 ;;      1109 rIdx = r0x104A 
05B8   08??           05160         MOVF    r0x101D,W
                      05161 ;; >>> /home/sdcc-builder/build/sdcc-build/orig/sdcc/src/pic14/gen.c:1393:movwf
                      05162 ;;      1109 rIdx = r0x104B 
05B9   00??           05163         MOVWF   r0x101E
                      05164 ;; ***  addSign  861
                      05165 ;;; /home/sdcc-builder/build/sdcc-build/orig/sdcc/src/pic14/genarith.c:862:addSign *{*
                      05166 ;; ***  mov2w  1381  offset=0
                      05167 ;; >>> /home/sdcc-builder/build/sdcc-build/orig/sdcc/src/pic14/gen.c:1386:mov2w
                      05168 ;;      1109 rIdx = r0x1049 
05BA   08??           05169         MOVF    r0x101C,W
                      05170 ;; >>> /home/sdcc-builder/build/sdcc-build/orig/sdcc/src/pic14/gen.c:5492:genGenericShift
05BB   3C00           05171         SUBLW   0x00
                      05172 ;; >>> /home/sdcc-builder/build/sdcc-build/orig/sdcc/src/pic14/gen.c:5494:genGenericShift
05BC   1903           05173         BTFSC   STATUS,2
                      05174 ;; >>> /home/sdcc-builder/build/sdcc-build/orig/sdcc/src/pic14/gen.c:5495:genGenericShift
                      05175 ;; ***  popGetLabel  key=29, label offset 4
05BD   2???           05176         GOTO    _00133_DS_
                      05177 ;;; /home/sdcc-builder/build/sdcc-build/orig/sdcc/src/pic14/gen.c:5369:genMultiAsm *{*
                      05178 ;; ***  genMultiAsm  5370
                      05179 ;; >>> /home/sdcc-builder/build/sdcc-build/orig/sdcc/src/pic14/gen.c:5387:genMultiAsm
                      05180 ;;      1109 rIdx = r0x104B 
05BE                  05181 _00132_DS_
05BE   ???? ????      05182         BANKSEL r0x101E
05C0   0D??           05183         RLF     r0x101E,F
                      05184 ;; >>> /home/sdcc-builder/build/sdcc-build/orig/sdcc/src/pic14/gen.c:5501:genGenericShift
05C1   3E01           05185         ADDLW   0x01
                      05186 ;; >>> /home/sdcc-builder/build/sdcc-build/orig/sdcc/src/pic14/gen.c:5502:genGenericShift
05C2   1C03           05187         BTFSS   STATUS,0
                      05188 ;; >>> /home/sdcc-builder/build/sdcc-build/orig/sdcc/src/pic14/gen.c:5503:genGenericShift
                      05189 ;; ***  popGetLabel  key=28, label offset 4
05C3   2???           05190         GOTO    _00132_DS_
                      05191 ;;; /home/sdcc-builder/build/sdcc-build/orig/sdcc/src/pic14/gen.c:2316:resultRemat *{*
                      05192 ;;; /home/sdcc-builder/build/sdcc-build/orig/sdcc/src/pic14/gen.c:4220:genOr *{*
                      05193 ;; ***  genOr  4221
                      05194 ;;      694 register type nRegs=1
                      05195 ;;      694 register type nRegs=1
                      05196 ;; ***  aopForSym 315
                      05197 ;;      327 sym->rname = _TRISD, size = 1
                      05198 ;;      line = 4227 result AOP_DIR=_TRISD, size=1, left AOP_REG=r0x1048, size=1, right AOP_REG=r0x104B, 
                            size=1
                      05199 ;;      line = 4253 result AOP_DIR=_TRISD, size=1, left AOP_REG=r0x1048, size=1, right AOP_REG=r0x104B, 
                            size=1
                      05200 ;; >>> /home/sdcc-builder/build/sdcc-build/orig/sdcc/src/pic14/gen.c:4479:genOr
                      05201 ;;      1109 rIdx = r0x104B 
05C4                  05202 _00133_DS_
05C4   ???? ????      05203         BANKSEL r0x101E
05C6   08??           05204         MOVF    r0x101E,W
                      05205 ;; >>> /home/sdcc-builder/build/sdcc-build/orig/sdcc/src/pic14/gen.c:4480:genOr
                      05206 ;;      1109 rIdx = r0x1048 
05C7   04??           05207         IORWF   r0x101B,W
gpasm-1.4.0 #1106 (Oct  6 2014) obj\Debug\gpi   5-11-2022  02:00:26         PAGE 100


LOC    OBJECT CODE    LINE  SOURCE TEXT
  VALUE

                      05208 ;; >>> /home/sdcc-builder/build/sdcc-build/orig/sdcc/src/pic14/gen.c:4481:genOr
                      05209 ;;      1009
                      05210 ;;      1028  _TRISD   offset=0
05C8   ???? ????      05211         BANKSEL _TRISD
05CA   00??           05212         MOVWF   _TRISD
                      05213 ;;; /home/sdcc-builder/build/sdcc-build/orig/sdcc/src/pic14/gen.c:2316:resultRemat *{*
                      05214 ;;; /home/sdcc-builder/build/sdcc-build/orig/sdcc/src/pic14/gen.c:2778:genGoto *{*
                      05215 ;; >>> /home/sdcc-builder/build/sdcc-build/orig/sdcc/src/pic14/gen.c:2780:genGoto
                      05216 ;; ***  popGetLabel  key=7, label offset 4
                      05217         .line   19; "gpio.c"    break ;
05CB   2???           05218         GOTO    _00111_DS_
                      05219 ;;; /home/sdcc-builder/build/sdcc-build/orig/sdcc/src/pic14/gen.c:2316:resultRemat *{*
                      05220 ;;; /home/sdcc-builder/build/sdcc-build/orig/sdcc/src/pic14/gen.c:2760:genLabel *{*
                      05221 ;; ***  genLabel  2763
                      05222 ;;; /home/sdcc-builder/build/sdcc-build/orig/sdcc/src/pic14/gen.c:2316:resultRemat *{*
                      05223 ;;; /home/sdcc-builder/build/sdcc-build/orig/sdcc/src/pic14/gen.c:5418:genGenericShift *{*
                      05224 ;; ***  genGenericShift  5421
                      05225 ;;      694 register type nRegs=1
                      05226 ;;      694 register type nRegs=1
                      05227 ;; ***  mov2w  1381  offset=0
                      05228 ;; >>> /home/sdcc-builder/build/sdcc-build/orig/sdcc/src/pic14/gen.c:1384:mov2w
05CC                  05229 _00109_DS_
                      05230         .line   21; "gpio.c"    SET_REGISTER_BIT(TRISE,pin,pinDirection) ;
05CC   3001           05231         MOVLW   0x01
                      05232 ;; >>> /home/sdcc-builder/build/sdcc-build/orig/sdcc/src/pic14/gen.c:1393:movwf
                      05233 ;;      1109 rIdx = r0x1048 
05CD   ???? ????      05234         BANKSEL r0x101B
05CF   00??           05235         MOVWF   r0x101B
                      05236 ;; ***  addSign  861
                      05237 ;;; /home/sdcc-builder/build/sdcc-build/orig/sdcc/src/pic14/genarith.c:862:addSign *{*
                      05238 ;; ***  mov2w  1381  offset=0
                      05239 ;; >>> /home/sdcc-builder/build/sdcc-build/orig/sdcc/src/pic14/gen.c:1386:mov2w
                      05240 ;;      1109 rIdx = r0x1049 
05D0   08??           05241         MOVF    r0x101C,W
                      05242 ;; >>> /home/sdcc-builder/build/sdcc-build/orig/sdcc/src/pic14/gen.c:5492:genGenericShift
05D1   3C00           05243         SUBLW   0x00
                      05244 ;; >>> /home/sdcc-builder/build/sdcc-build/orig/sdcc/src/pic14/gen.c:5494:genGenericShift
05D2   1903           05245         BTFSC   STATUS,2
                      05246 ;; >>> /home/sdcc-builder/build/sdcc-build/orig/sdcc/src/pic14/gen.c:5495:genGenericShift
                      05247 ;; ***  popGetLabel  key=31, label offset 4
05D3   2???           05248         GOTO    _00135_DS_
                      05249 ;;; /home/sdcc-builder/build/sdcc-build/orig/sdcc/src/pic14/gen.c:5369:genMultiAsm *{*
                      05250 ;; ***  genMultiAsm  5370
                      05251 ;; >>> /home/sdcc-builder/build/sdcc-build/orig/sdcc/src/pic14/gen.c:5387:genMultiAsm
                      05252 ;;      1109 rIdx = r0x1048 
05D4                  05253 _00134_DS_
05D4   ???? ????      05254         BANKSEL r0x101B
05D6   0D??           05255         RLF     r0x101B,F
                      05256 ;; >>> /home/sdcc-builder/build/sdcc-build/orig/sdcc/src/pic14/gen.c:5501:genGenericShift
05D7   3E01           05257         ADDLW   0x01
                      05258 ;; >>> /home/sdcc-builder/build/sdcc-build/orig/sdcc/src/pic14/gen.c:5502:genGenericShift
05D8   1C03           05259         BTFSS   STATUS,0
                      05260 ;; >>> /home/sdcc-builder/build/sdcc-build/orig/sdcc/src/pic14/gen.c:5503:genGenericShift
gpasm-1.4.0 #1106 (Oct  6 2014) obj\Debug\gpi   5-11-2022  02:00:26         PAGE 101


LOC    OBJECT CODE    LINE  SOURCE TEXT
  VALUE

                      05261 ;; ***  popGetLabel  key=30, label offset 4
05D9   2???           05262         GOTO    _00134_DS_
                      05263 ;;; /home/sdcc-builder/build/sdcc-build/orig/sdcc/src/pic14/gen.c:2316:resultRemat *{*
                      05264 ;;; /home/sdcc-builder/build/sdcc-build/orig/sdcc/src/pic14/gen.c:1609:genCpl *{*
                      05265 ;; ***  genCpl  1611
                      05266 ;;      694 register type nRegs=1
                      05267 ;;      694 register type nRegs=1
                      05268 ;; >>> /home/sdcc-builder/build/sdcc-build/orig/sdcc/src/pic14/gen.c:1631:genCpl
                      05269 ;;      1109 rIdx = r0x1048 
05DA                  05270 _00135_DS_
05DA   ???? ????      05271         BANKSEL r0x101B
05DC   09??           05272         COMF    r0x101B,F
05DD   ???? ????      05273         BANKSEL _TRISE
05DF   08??           05274         MOVF    _TRISE,W
                      05275 ;; >>> /home/sdcc-builder/build/sdcc-build/orig/sdcc/src/pic14/gen.c:4138:genAnd
                      05276 ;;      1109 rIdx = r0x1048 
05E0   ???? ????      05277         BANKSEL r0x101B
05E2   05??           05278         ANDWF   r0x101B,F
                      05279 ;;; /home/sdcc-builder/build/sdcc-build/orig/sdcc/src/pic14/gen.c:2316:resultRemat *{*
                      05280 ;;; /home/sdcc-builder/build/sdcc-build/orig/sdcc/src/pic14/gen.c:5418:genGenericShift *{*
                      05281 ;; ***  genGenericShift  5421
                      05282 ;;      694 register type nRegs=1
                      05283 ;;      694 register type nRegs=1
                      05284 ;;      694 register type nRegs=1
                      05285 ;; ***  mov2w  1381  offset=0
                      05286 ;; >>> /home/sdcc-builder/build/sdcc-build/orig/sdcc/src/pic14/gen.c:1386:mov2w
                      05287 ;;      1109 rIdx = r0x104A 
05E3   08??           05288         MOVF    r0x101D,W
                      05289 ;; >>> /home/sdcc-builder/build/sdcc-build/orig/sdcc/src/pic14/gen.c:1393:movwf
                      05290 ;;      1109 rIdx = r0x104B 
05E4   00??           05291         MOVWF   r0x101E
                      05292 ;; ***  addSign  861
                      05293 ;;; /home/sdcc-builder/build/sdcc-build/orig/sdcc/src/pic14/genarith.c:862:addSign *{*
                      05294 ;; ***  mov2w  1381  offset=0
                      05295 ;; >>> /home/sdcc-builder/build/sdcc-build/orig/sdcc/src/pic14/gen.c:1386:mov2w
                      05296 ;;      1109 rIdx = r0x1049 
05E5   08??           05297         MOVF    r0x101C,W
                      05298 ;; >>> /home/sdcc-builder/build/sdcc-build/orig/sdcc/src/pic14/gen.c:5492:genGenericShift
05E6   3C00           05299         SUBLW   0x00
                      05300 ;; >>> /home/sdcc-builder/build/sdcc-build/orig/sdcc/src/pic14/gen.c:5494:genGenericShift
05E7   1903           05301         BTFSC   STATUS,2
                      05302 ;; >>> /home/sdcc-builder/build/sdcc-build/orig/sdcc/src/pic14/gen.c:5495:genGenericShift
                      05303 ;; ***  popGetLabel  key=33, label offset 4
05E8   2???           05304         GOTO    _00137_DS_
                      05305 ;;; /home/sdcc-builder/build/sdcc-build/orig/sdcc/src/pic14/gen.c:5369:genMultiAsm *{*
                      05306 ;; ***  genMultiAsm  5370
                      05307 ;; >>> /home/sdcc-builder/build/sdcc-build/orig/sdcc/src/pic14/gen.c:5387:genMultiAsm
                      05308 ;;      1109 rIdx = r0x104B 
05E9                  05309 _00136_DS_
05E9   ???? ????      05310         BANKSEL r0x101E
05EB   0D??           05311         RLF     r0x101E,F
                      05312 ;; >>> /home/sdcc-builder/build/sdcc-build/orig/sdcc/src/pic14/gen.c:5501:genGenericShift
05EC   3E01           05313         ADDLW   0x01
gpasm-1.4.0 #1106 (Oct  6 2014) obj\Debug\gpi   5-11-2022  02:00:26         PAGE 102


LOC    OBJECT CODE    LINE  SOURCE TEXT
  VALUE

                      05314 ;; >>> /home/sdcc-builder/build/sdcc-build/orig/sdcc/src/pic14/gen.c:5502:genGenericShift
05ED   1C03           05315         BTFSS   STATUS,0
                      05316 ;; >>> /home/sdcc-builder/build/sdcc-build/orig/sdcc/src/pic14/gen.c:5503:genGenericShift
                      05317 ;; ***  popGetLabel  key=32, label offset 4
05EE   2???           05318         GOTO    _00136_DS_
                      05319 ;;; /home/sdcc-builder/build/sdcc-build/orig/sdcc/src/pic14/gen.c:2316:resultRemat *{*
                      05320 ;;; /home/sdcc-builder/build/sdcc-build/orig/sdcc/src/pic14/gen.c:4220:genOr *{*
                      05321 ;; ***  genOr  4221
                      05322 ;;      694 register type nRegs=1
                      05323 ;;      694 register type nRegs=1
                      05324 ;; ***  aopForSym 315
                      05325 ;;      327 sym->rname = _TRISE, size = 1
                      05326 ;;      line = 4227 result AOP_DIR=_TRISE, size=1, left AOP_REG=r0x1048, size=1, right AOP_REG=r0x104B, 
                            size=1
                      05327 ;;      line = 4253 result AOP_DIR=_TRISE, size=1, left AOP_REG=r0x1048, size=1, right AOP_REG=r0x104B, 
                            size=1
                      05328 ;; >>> /home/sdcc-builder/build/sdcc-build/orig/sdcc/src/pic14/gen.c:4479:genOr
                      05329 ;;      1109 rIdx = r0x104B 
05EF                  05330 _00137_DS_
05EF   ???? ????      05331         BANKSEL r0x101E
05F1   08??           05332         MOVF    r0x101E,W
                      05333 ;; >>> /home/sdcc-builder/build/sdcc-build/orig/sdcc/src/pic14/gen.c:4480:genOr
                      05334 ;;      1109 rIdx = r0x1048 
05F2   04??           05335         IORWF   r0x101B,W
                      05336 ;; >>> /home/sdcc-builder/build/sdcc-build/orig/sdcc/src/pic14/gen.c:4481:genOr
                      05337 ;;      1009
                      05338 ;;      1028  _TRISE   offset=0
05F3   ???? ????      05339         BANKSEL _TRISE
05F5   00??           05340         MOVWF   _TRISE
                      05341 ;;; /home/sdcc-builder/build/sdcc-build/orig/sdcc/src/pic14/gen.c:2316:resultRemat *{*
                      05342 ;;; /home/sdcc-builder/build/sdcc-build/orig/sdcc/src/pic14/gen.c:2760:genLabel *{*
                      05343 ;; ***  genLabel  2763
                      05344 ;;; /home/sdcc-builder/build/sdcc-build/orig/sdcc/src/pic14/gen.c:2316:resultRemat *{*
                      05345 ;;; /home/sdcc-builder/build/sdcc-build/orig/sdcc/src/pic14/gen.c:2528:genEndFunction *{*
                      05346 ;; ***  genEndFunction  2530
05F6                  05347 _00111_DS_
                      05348         .line   23; "gpio.c"    }
05F6   0008           05349         RETURN  
                      05350 ; exit point of _GPIO_InitPin
                      05351 ;;; /home/sdcc-builder/build/sdcc-build/orig/sdcc/src/pic14/gen.c:7426:genpic14Code *{*
                      05352 
                      05353 
                      05354 ;       code size estimation:
                      05355 ;        1039+  244 =  1283 instructions ( 3054 byte)
                      05356 
                      05357         end
gpasm-1.4.0 #1106 (Oct  6 2014) obj\Debug\gpi   5-11-2022  02:00:26         PAGE 103


SYMBOL TABLE
  LABEL                             VALUE

ACKDT                             00000005
ACKEN                             00000004
ACKSTAT                           00000006
ADCON0                            0000001F
ADCON1                            0000009F
ADCS0                             00000006
ADCS1                             00000007
ADCS2                             00000006
ADDEN                             00000003
ADFM                              00000007
ADIE                              00000006
ADIF                              00000006
ADON                              00000000
ADRESH                            0000001E
ADRESL                            0000009E
BCLIE                             00000003
BCLIF                             00000003
BF                                00000000
BRGH                              00000002
C                                 00000000
C1INV                             00000004
C1OUT                             00000006
C2INV                             00000005
C2OUT                             00000007
CCP1CON                           00000017
CCP1IE                            00000002
CCP1IF                            00000002
CCP1M0                            00000000
CCP1M1                            00000001
CCP1M2                            00000002
CCP1M3                            00000003
CCP1X                             00000005
CCP1Y                             00000004
CCP2CON                           0000001D
CCP2IE                            00000000
CCP2IF                            00000000
CCP2M0                            00000000
CCP2M1                            00000001
CCP2M2                            00000002
CCP2M3                            00000003
CCP2X                             00000005
CCP2Y                             00000004
CCPR1                             00000015
CCPR1H                            00000016
CCPR1L                            00000015
CCPR2                             0000001B
CCPR2H                            0000001C
CCPR2L                            0000001B
CHS0                              00000003
CHS1                              00000004
CHS2                              00000005
CIS                               00000003
CKE                               00000006
gpasm-1.4.0 #1106 (Oct  6 2014) obj\Debug\gpi   5-11-2022  02:00:26         PAGE 104


SYMBOL TABLE
  LABEL                             VALUE 

CKP                               00000004
CM0                               00000000
CM1                               00000001
CM2                               00000002
CMCON                             0000009C
CMIE                              00000006
CMIF                              00000006
CREN                              00000004
CSRC                              00000007
CVR0                              00000000
CVR1                              00000001
CVR2                              00000002
CVR3                              00000003
CVRCON                            0000009D
CVREN                             00000007
CVROE                             00000006
CVRR                              00000005
D                                 00000005
DATA_ADDRESS                      00000005
DC                                00000001
D_A                               00000005
D_NOT_A                           00000005
EEADR                             0000010D
EEADRH                            0000010F
EECON1                            0000018C
EECON2                            0000018D
EEDATA                            0000010C
EEDATH                            0000010E
EEIE                              00000004
EEIF                              00000004
EEPGD                             00000007
F                                 00000001
FERR                              00000002
FSR                               00000004
GCEN                              00000007
GIE                               00000007
GO                                00000002
GO_DONE                           00000002
GO_NOT_DONE                       00000002
I2C_DATA                          00000005
I2C_READ                          00000002
I2C_START                         00000003
I2C_STOP                          00000004
IBF                               00000007
IBOV                              00000005
INDF                              00000000
INTCON                            0000000B
INTE                              00000004
INTEDG                            00000006
INTF                              00000001
IRP                               00000007
NOT_A                             00000005
NOT_ADDRESS                       00000005
gpasm-1.4.0 #1106 (Oct  6 2014) obj\Debug\gpi   5-11-2022  02:00:26         PAGE 105


SYMBOL TABLE
  LABEL                             VALUE 

NOT_BO                            00000000
NOT_BOR                           00000000
NOT_DONE                          00000002
NOT_PD                            00000003
NOT_POR                           00000001
NOT_RBPU                          00000007
NOT_RC8                           00000006
NOT_T1SYNC                        00000002
NOT_TO                            00000004
NOT_TX8                           00000006
NOT_W                             00000002
NOT_WRITE                         00000002
OBF                               00000006
OERR                              00000001
OPTION_REG                        00000081
P                                 00000004
PCFG0                             00000000
PCFG1                             00000001
PCFG2                             00000002
PCFG3                             00000003
PCL                               00000002
PCLATH                            0000000A
PCON                              0000008E
PEIE                              00000006
PEN                               00000002
PIE1                              0000008C
PIE2                              0000008D
PIR1                              0000000C
PIR2                              0000000D
PORTA                             00000005
PORTB                             00000006
PORTC                             00000007
PORTD                             00000008
PORTE                             00000009
PR2                               00000092
PS0                               00000000
PS1                               00000001
PS2                               00000002
PSA                               00000003
PSAVE                             00000000
PSPIE                             00000007
PSPIF                             00000007
PSPMODE                           00000004
R                                 00000002
RA0                               00000000
RA1                               00000001
RA2                               00000002
RA3                               00000003
RA4                               00000004
RA5                               00000005
RB0                               00000000
RB1                               00000001
RB2                               00000002
gpasm-1.4.0 #1106 (Oct  6 2014) obj\Debug\gpi   5-11-2022  02:00:26         PAGE 106


SYMBOL TABLE
  LABEL                             VALUE 

RB3                               00000003
RB4                               00000004
RB5                               00000005
RB6                               00000006
RB7                               00000007
RBIE                              00000003
RBIF                              00000000
RC0                               00000000
RC1                               00000001
RC2                               00000002
RC3                               00000003
RC4                               00000004
RC5                               00000005
RC6                               00000006
RC7                               00000007
RC8_9                             00000006
RC9                               00000006
RCD8                              00000000
RCEN                              00000003
RCIE                              00000005
RCIF                              00000005
RCREG                             0000001A
RCSTA                             00000018
RD                                00000000
RD0                               00000000
RD1                               00000001
RD2                               00000002
RD3                               00000003
RD4                               00000004
RD5                               00000005
RD6                               00000006
RD7                               00000007
RE0                               00000000
RE1                               00000001
RE2                               00000002
READ_WRITE                        00000002
RP0                               00000005
RP1                               00000006
RSEN                              00000001
RX9                               00000006
RX9D                              00000000
R_NOT_W                           00000002
R_W                               00000002
S                                 00000003
SEN                               00000000
SMP                               00000007
SPBRG                             00000099
SPEN                              00000007
SREN                              00000005
SSAVE                             00000000
SSPADD                            00000093
SSPBUF                            00000013
SSPCON                            00000014
gpasm-1.4.0 #1106 (Oct  6 2014) obj\Debug\gpi   5-11-2022  02:00:26         PAGE 107


SYMBOL TABLE
  LABEL                             VALUE 

SSPCON2                           00000091
SSPEN                             00000005
SSPIE                             00000003
SSPIF                             00000003
SSPM0                             00000000
SSPM1                             00000001
SSPM2                             00000002
SSPM3                             00000003
SSPOV                             00000006
SSPSTAT                           00000094
STATUS                            00000003
STK00                             00000000
STK01                             00000000
STK02                             00000000
STK03                             00000000
STK04                             00000000
STK05                             00000000
STK06                             00000000
STK07                             00000000
STK08                             00000000
STK09                             00000000
STK10                             00000000
STK11                             00000000
STK12                             00000000
SYNC                              00000004
T0CS                              00000005
T0IE                              00000005
T0IF                              00000002
T0SE                              00000004
T1CKPS0                           00000004
T1CKPS1                           00000005
T1CON                             00000010
T1INSYNC                          00000002
T1OSCEN                           00000003
T1SYNC                            00000002
T2CKPS0                           00000000
T2CKPS1                           00000001
T2CON                             00000012
TMR0                              00000001
TMR0IE                            00000005
TMR0IF                            00000002
TMR1                              0000000E
TMR1CS                            00000001
TMR1H                             0000000F
TMR1IE                            00000000
TMR1IF                            00000000
TMR1L                             0000000E
TMR1ON                            00000000
TMR2                              00000011
TMR2IE                            00000001
TMR2IF                            00000001
TMR2ON                            00000002
TOUTPS0                           00000003
gpasm-1.4.0 #1106 (Oct  6 2014) obj\Debug\gpi   5-11-2022  02:00:26         PAGE 108


SYMBOL TABLE
  LABEL                             VALUE 

TOUTPS1                           00000004
TOUTPS2                           00000005
TOUTPS3                           00000006
TRISA                             00000085
TRISA0                            00000000
TRISA1                            00000001
TRISA2                            00000002
TRISA3                            00000003
TRISA4                            00000004
TRISA5                            00000005
TRISB                             00000086
TRISB0                            00000000
TRISB1                            00000001
TRISB2                            00000002
TRISB3                            00000003
TRISB4                            00000004
TRISB5                            00000005
TRISB6                            00000006
TRISB7                            00000007
TRISC                             00000087
TRISC0                            00000000
TRISC1                            00000001
TRISC2                            00000002
TRISC3                            00000003
TRISC4                            00000004
TRISC5                            00000005
TRISC6                            00000006
TRISC7                            00000007
TRISD                             00000088
TRISD0                            00000000
TRISD1                            00000001
TRISD2                            00000002
TRISD3                            00000003
TRISD4                            00000004
TRISD5                            00000005
TRISD6                            00000006
TRISD7                            00000007
TRISE                             00000089
TRISE0                            00000000
TRISE1                            00000001
TRISE2                            00000002
TRMT                              00000001
TX8_9                             00000006
TX9                               00000006
TX9D                              00000000
TXD8                              00000000
TXEN                              00000005
TXIE                              00000004
TXIF                              00000004
TXREG                             00000019
TXSTA                             00000098
UA                                00000001
W                                 00000000
gpasm-1.4.0 #1106 (Oct  6 2014) obj\Debug\gpi   5-11-2022  02:00:26         PAGE 109


SYMBOL TABLE
  LABEL                             VALUE 

WCOL                              00000007
WR                                00000001
WREN                              00000002
WRERR                             00000003
WSAVE                             00000000
Z                                 00000002
_00001_DS_                        00000014
_00002_DS_                        00000049
_00003_DS_                        00000244
_00004_DS_                        00000287
_00005_DS_                        000003A5
_00006_DS_                        000003E6
_00007_DS_                        000004D9
_00008_DS_                        0000051A
_00105_DS_                        00000520
_00106_DS_                        0000054B
_00107_DS_                        00000576
_00108_DS_                        000005A1
_00109_DS_                        000005CC
_00111_DS_                        000005F6
_00117_DS_                        0000051B
_00118_DS_                        00000528
_00119_DS_                        0000052E
_00120_DS_                        0000053D
_00121_DS_                        00000543
_00122_DS_                        00000553
_00123_DS_                        00000559
_00124_DS_                        00000568
_00125_DS_                        0000056E
_00126_DS_                        0000057E
_00127_DS_                        00000584
_00128_DS_                        00000593
_00129_DS_                        00000599
_00130_DS_                        000005A9
_00131_DS_                        000005AF
_00132_DS_                        000005BE
_00133_DS_                        000005C4
_00134_DS_                        000005D4
_00135_DS_                        000005DA
_00136_DS_                        000005E9
_00137_DS_                        000005EF
_00142_DS_                        000004DF
_00143_DS_                        000004E6
_00144_DS_                        000004ED
_00145_DS_                        000004F4
_00146_DS_                        000004FB
_00148_DS_                        00000501
_00154_DS_                        000004DA
_00159_DS_                        000003EC
_00160_DS_                        00000417
_00161_DS_                        00000442
_00162_DS_                        0000046D
_00163_DS_                        00000498
gpasm-1.4.0 #1106 (Oct  6 2014) obj\Debug\gpi   5-11-2022  02:00:26         PAGE 110


SYMBOL TABLE
  LABEL                             VALUE 

_00165_DS_                        000004C2
_00171_DS_                        000003E7
_00172_DS_                        000003F4
_00173_DS_                        000003FA
_00174_DS_                        00000409
_00175_DS_                        0000040F
_00176_DS_                        0000041F
_00177_DS_                        00000425
_00178_DS_                        00000434
_00179_DS_                        0000043A
_00180_DS_                        0000044A
_00181_DS_                        00000450
_00182_DS_                        0000045F
_00183_DS_                        00000465
_00184_DS_                        00000475
_00185_DS_                        0000047B
_00186_DS_                        0000048A
_00187_DS_                        00000490
_00188_DS_                        000004A0
_00189_DS_                        000004A6
_00190_DS_                        000004B5
_00191_DS_                        000004BB
_00196_DS_                        000003AB
_00197_DS_                        000003B2
_00198_DS_                        000003B9
_00199_DS_                        000003C0
_00200_DS_                        000003C7
_00202_DS_                        000003CD
_00208_DS_                        000003A6
_00213_DS_                        0000028D
_00214_DS_                        000002C0
_00215_DS_                        000002F3
_00216_DS_                        00000326
_00217_DS_                        00000359
_00218_DS_                        0000038B
_00225_DS_                        00000288
_00226_DS_                        00000297
_00227_DS_                        0000029E
_00228_DS_                        000002B1
_00229_DS_                        000002BB
_00230_DS_                        000002CA
_00231_DS_                        000002D1
_00232_DS_                        000002E4
_00233_DS_                        000002EE
_00234_DS_                        000002FD
_00235_DS_                        00000304
_00236_DS_                        00000317
_00237_DS_                        00000321
_00238_DS_                        00000330
_00239_DS_                        00000337
_00240_DS_                        0000034A
_00241_DS_                        00000354
_00242_DS_                        00000363
gpasm-1.4.0 #1106 (Oct  6 2014) obj\Debug\gpi   5-11-2022  02:00:26         PAGE 111


SYMBOL TABLE
  LABEL                             VALUE 

_00243_DS_                        0000036A
_00244_DS_                        0000037D
_00245_DS_                        00000387
_00250_DS_                        0000024A
_00251_DS_                        00000251
_00252_DS_                        00000258
_00253_DS_                        0000025F
_00254_DS_                        00000266
_00255_DS_                        0000026C
_00262_DS_                        00000245
_00267_DS_                        0000004F
_00268_DS_                        000000AF
_00269_DS_                        0000010F
_00270_DS_                        0000016F
_00271_DS_                        000001CF
_00273_DS_                        0000022E
_00279_DS_                        0000004A
_00280_DS_                        00000059
_00281_DS_                        00000060
_00282_DS_                        00000073
_00283_DS_                        0000007D
_00284_DS_                        00000087
_00285_DS_                        0000008D
_00286_DS_                        000000A0
_00287_DS_                        000000A6
_00288_DS_                        000000B9
_00289_DS_                        000000C0
_00290_DS_                        000000D3
_00291_DS_                        000000DD
_00292_DS_                        000000E7
_00293_DS_                        000000ED
_00294_DS_                        00000100
_00295_DS_                        00000106
_00296_DS_                        00000119
_00297_DS_                        00000120
_00298_DS_                        00000133
_00299_DS_                        0000013D
_00300_DS_                        00000147
_00301_DS_                        0000014D
_00302_DS_                        00000160
_00303_DS_                        00000166
_00304_DS_                        00000179
_00305_DS_                        00000180
_00306_DS_                        00000193
_00307_DS_                        0000019D
_00308_DS_                        000001A7
_00309_DS_                        000001AD
_00310_DS_                        000001C0
_00311_DS_                        000001C6
_00312_DS_                        000001D9
_00313_DS_                        000001E0
_00314_DS_                        000001F3
_00315_DS_                        000001FD
gpasm-1.4.0 #1106 (Oct  6 2014) obj\Debug\gpi   5-11-2022  02:00:26         PAGE 112


SYMBOL TABLE
  LABEL                             VALUE 

_00316_DS_                        00000207
_00317_DS_                        0000020D
_00318_DS_                        00000220
_00319_DS_                        00000226
_00324_DS_                        0000001A
_00325_DS_                        0000001F
_00326_DS_                        00000024
_00327_DS_                        00000029
_00328_DS_                        0000002E
_00330_DS_                        00000032
_00336_DS_                        00000015
_ADCON0                           00000000
_ADCON0bits                       00000000
_ADCON1                           00000000
_ADCON1bits                       00000000
_ADRESH                           00000000
_ADRESL                           00000000
_BODEN_OFF                        00003FBF
_BODEN_ON                         00003FFF
_BOREN_OFF                        00003FBF
_BOREN_ON                         00003FFF
_CCP1CON                          00000000
_CCP1CONbits                      00000000
_CCP2CON                          00000000
_CCP2CONbits                      00000000
_CCPR1                            00000000
_CCPR1H                           00000000
_CCPR1L                           00000000
_CCPR2                            00000000
_CCPR2H                           00000000
_CCPR2L                           00000000
_CMCON                            00000000
_CMCONbits                        00000000
_CONFIG                           00002007
_CPD_OFF                          00003FFF
_CPD_ON                           00003EFF
_CP_ALL                           00001FFF
_CP_OFF                           00003FFF
_CP_ON                            00001FFF
_CVRCON                           00000000
_CVRCONbits                       00000000
_DEBUG_OFF                        00003FFF
_DEBUG_ON                         000037FF
_DEVID1                           00002006
_Delay_ms                         00000000
_EEADR                            00000000
_EEADRH                           00000000
_EECON1                           00000000
_EECON1bits                       00000000
_EECON2                           00000000
_EEDATA                           00000000
_EEDATH                           00000000
_FOSC_EXTRC                       00003FFF
gpasm-1.4.0 #1106 (Oct  6 2014) obj\Debug\gpi   5-11-2022  02:00:26         PAGE 113


SYMBOL TABLE
  LABEL                             VALUE 

_FOSC_HS                          00003FFE
_FOSC_LP                          00003FFC
_FOSC_XT                          00003FFD
_FSR                              00000000
_GPIO_BitToggle                   00000033
_GPIO_GetPinState                 00000270
_GPIO_GetPortState                0000022F
_GPIO_InitPin                     00000502
_GPIO_InitPort                    000004C3
_GPIO_PortToggle                  00000000
_GPIO_SetPinState                 000003CE
_GPIO_SetPortState                0000038F
_HS_OSC                           00003FFE
_IDLOC0                           00002000
_IDLOC1                           00002001
_IDLOC2                           00002002
_IDLOC3                           00002003
_INDF                             00000000
_INTCON                           00000000
_INTCONbits                       00000000
_LP_OSC                           00003FFC
_LVP_OFF                          00003F7F
_LVP_ON                           00003FFF
_OPTION_REG                       00000000
_OPTION_REGbits                   00000000
_PCL                              00000000
_PCLATH                           00000000
_PCON                             00000000
_PCONbits                         00000000
_PIE1                             00000000
_PIE1bits                         00000000
_PIE2                             00000000
_PIE2bits                         00000000
_PIR1                             00000000
_PIR1bits                         00000000
_PIR2                             00000000
_PIR2bits                         00000000
_PORTA                            00000000
_PORTAbits                        00000000
_PORTB                            00000000
_PORTBbits                        00000000
_PORTC                            00000000
_PORTCbits                        00000000
_PORTD                            00000000
_PORTDbits                        00000000
_PORTE                            00000000
_PORTEbits                        00000000
_PR2                              00000000
_PWRTE_OFF                        00003FFF
_PWRTE_ON                         00003FF7
_RCREG                            00000000
_RCSTA                            00000000
_RCSTAbits                        00000000
gpasm-1.4.0 #1106 (Oct  6 2014) obj\Debug\gpi   5-11-2022  02:00:26         PAGE 114


SYMBOL TABLE
  LABEL                             VALUE 

_RC_OSC                           00003FFF
_SPBRG                            00000000
_SSPADD                           00000000
_SSPBUF                           00000000
_SSPCON                           00000000
_SSPCON2                          00000000
_SSPCON2bits                      00000000
_SSPCONbits                       00000000
_SSPSTAT                          00000000
_SSPSTATbits                      00000000
_STATUS                           00000000
_STATUSbits                       00000000
_T1CON                            00000000
_T1CONbits                        00000000
_T2CON                            00000000
_T2CONbits                        00000000
_TMR0                             00000000
_TMR1                             00000000
_TMR1H                            00000000
_TMR1L                            00000000
_TMR2                             00000000
_TRISA                            00000000
_TRISAbits                        00000000
_TRISB                            00000000
_TRISBbits                        00000000
_TRISC                            00000000
_TRISCbits                        00000000
_TRISD                            00000000
_TRISDbits                        00000000
_TRISE                            00000000
_TRISEbits                        00000000
_TXREG                            00000000
_TXSTA                            00000000
_TXSTAbits                        00000000
_WDTE_OFF                         00003FFB
_WDTE_ON                          00003FFF
_WDT_OFF                          00003FFB
_WDT_ON                           00003FFF
_WRT_1FOURTH                      00003BFF
_WRT_256                          00003DFF
_WRT_HALF                         000039FF
_WRT_OFF                          00003FFF
_XT_OSC                           00003FFD
__16F877A                         00000001
__CODE_END                        00001FFF
__CODE_START                      00000000
__COMMON_RAM_END                  0000007F
__COMMON_RAM_START                00000070
__EEPROM_END                      000021FF
__EEPROM_START                    00002100
__VECTOR_INT                      00000004
__VECTOR_RESET                    00000000
r0x1000                           0000001E
gpasm-1.4.0 #1106 (Oct  6 2014) obj\Debug\gpi   5-11-2022  02:00:26         PAGE 115


SYMBOL TABLE
  LABEL                             VALUE 

r0x1001                           00000014
r0x1002                           00000015
r0x1003                           00000016
r0x1004                           00000017
r0x1005                           00000018
r0x1006                           00000019
r0x1007                           0000001A
r0x1008                           0000001B
r0x1009                           0000001C
r0x100A                           0000001D
r0x100B                           00000012
r0x100C                           00000013
r0x100D                           0000000C
r0x100E                           0000000D
r0x100F                           0000000E
r0x1010                           0000000F
r0x1011                           00000010
r0x1012                           00000011
r0x1013                           0000000A
r0x1014                           0000000B
r0x1015                           00000006
r0x1016                           00000007
r0x1017                           00000008
r0x1018                           00000009
r0x1019                           00000004
r0x101A                           00000005
r0x101B                           00000000
r0x101C                           00000001
r0x101D                           00000002
r0x101E                           00000003

Errors   :     0
Warnings :     0 reported,     0 suppressed
Messages :     0 reported,     0 suppressed

